
bigmotor.elf:     file format elf32-avr

Sections:
Idx Name          Size      VMA       LMA       File off  Algn
  0 .data         0000011e  00800100  000049a0  00004a34  2**0
                  CONTENTS, ALLOC, LOAD, DATA
  1 .text         000049a0  00000000  00000000  00000094  2**1
                  CONTENTS, ALLOC, LOAD, READONLY, CODE
  2 .bss          00000126  0080021e  0080021e  00004b52  2**0
                  ALLOC
  3 .stab         00000f90  00000000  00000000  00004b54  2**2
                  CONTENTS, READONLY, DEBUGGING
  4 .stabstr      000002fe  00000000  00000000  00005ae4  2**0
                  CONTENTS, READONLY, DEBUGGING
  5 .debug_aranges 00000400  00000000  00000000  00005de2  2**0
                  CONTENTS, READONLY, DEBUGGING
  6 .debug_pubnames 000018fd  00000000  00000000  000061e2  2**0
                  CONTENTS, READONLY, DEBUGGING
  7 .debug_info   000084b3  00000000  00000000  00007adf  2**0
                  CONTENTS, READONLY, DEBUGGING
  8 .debug_abbrev 00003255  00000000  00000000  0000ff92  2**0
                  CONTENTS, READONLY, DEBUGGING
  9 .debug_line   00005ba3  00000000  00000000  000131e7  2**0
                  CONTENTS, READONLY, DEBUGGING
 10 .debug_frame  00000f10  00000000  00000000  00018d8c  2**2
                  CONTENTS, READONLY, DEBUGGING
 11 .debug_str    000029ff  00000000  00000000  00019c9c  2**0
                  CONTENTS, READONLY, DEBUGGING
 12 .debug_loc    0000385b  00000000  00000000  0001c69b  2**0
                  CONTENTS, READONLY, DEBUGGING
 13 .debug_pubtypes 00000a3c  00000000  00000000  0001fef6  2**0
                  CONTENTS, READONLY, DEBUGGING
 14 .debug_ranges 00000390  00000000  00000000  00020932  2**0
                  CONTENTS, READONLY, DEBUGGING

Disassembly of section .text:

00000000 <__vectors>:
       0:	0c 94 46 00 	jmp	0x8c	; 0x8c <__ctors_end>
       4:	0c 94 63 00 	jmp	0xc6	; 0xc6 <__bad_interrupt>
       8:	0c 94 63 00 	jmp	0xc6	; 0xc6 <__bad_interrupt>
       c:	0c 94 63 00 	jmp	0xc6	; 0xc6 <__bad_interrupt>
      10:	0c 94 63 00 	jmp	0xc6	; 0xc6 <__bad_interrupt>
      14:	0c 94 63 00 	jmp	0xc6	; 0xc6 <__bad_interrupt>
      18:	0c 94 63 00 	jmp	0xc6	; 0xc6 <__bad_interrupt>
      1c:	0c 94 63 00 	jmp	0xc6	; 0xc6 <__bad_interrupt>
      20:	0c 94 63 00 	jmp	0xc6	; 0xc6 <__bad_interrupt>
      24:	0c 94 63 00 	jmp	0xc6	; 0xc6 <__bad_interrupt>
      28:	0c 94 63 00 	jmp	0xc6	; 0xc6 <__bad_interrupt>
      2c:	0c 94 63 00 	jmp	0xc6	; 0xc6 <__bad_interrupt>
      30:	0c 94 63 00 	jmp	0xc6	; 0xc6 <__bad_interrupt>
      34:	0c 94 63 00 	jmp	0xc6	; 0xc6 <__bad_interrupt>
      38:	0c 94 63 00 	jmp	0xc6	; 0xc6 <__bad_interrupt>
      3c:	0c 94 c5 1a 	jmp	0x358a	; 0x358a <__vector_15>
      40:	0c 94 63 00 	jmp	0xc6	; 0xc6 <__bad_interrupt>
      44:	0c 94 63 00 	jmp	0xc6	; 0xc6 <__bad_interrupt>
      48:	0c 94 e1 10 	jmp	0x21c2	; 0x21c2 <__vector_18>
      4c:	0c 94 63 00 	jmp	0xc6	; 0xc6 <__bad_interrupt>
      50:	0c 94 63 00 	jmp	0xc6	; 0xc6 <__bad_interrupt>
      54:	0c 94 63 00 	jmp	0xc6	; 0xc6 <__bad_interrupt>
      58:	0c 94 de 0c 	jmp	0x19bc	; 0x19bc <__vector_22>
      5c:	0c 94 63 00 	jmp	0xc6	; 0xc6 <__bad_interrupt>
      60:	0c 94 63 00 	jmp	0xc6	; 0xc6 <__bad_interrupt>
      64:	0c 94 63 00 	jmp	0xc6	; 0xc6 <__bad_interrupt>
      68:	0c 94 63 00 	jmp	0xc6	; 0xc6 <__bad_interrupt>
      6c:	0c 94 a4 0d 	jmp	0x1b48	; 0x1b48 <__vector_27>
      70:	0c 94 63 00 	jmp	0xc6	; 0xc6 <__bad_interrupt>
      74:	0c 94 63 00 	jmp	0xc6	; 0xc6 <__bad_interrupt>
      78:	0c 94 63 00 	jmp	0xc6	; 0xc6 <__bad_interrupt>

0000007c <BoardDescription>:
      7c:	44 72 69 76 65 73 20 44 43 20 6d 6f 74 6f 72 00     Drives DC motor.

0000008c <__ctors_end>:
      8c:	11 24       	eor	r1, r1
      8e:	1f be       	out	0x3f, r1	; 63
      90:	cf ef       	ldi	r28, 0xFF	; 255
      92:	d4 e0       	ldi	r29, 0x04	; 4
      94:	de bf       	out	0x3e, r29	; 62
      96:	cd bf       	out	0x3d, r28	; 61

00000098 <__do_copy_data>:
      98:	12 e0       	ldi	r17, 0x02	; 2
      9a:	a0 e0       	ldi	r26, 0x00	; 0
      9c:	b1 e0       	ldi	r27, 0x01	; 1
      9e:	e0 ea       	ldi	r30, 0xA0	; 160
      a0:	f9 e4       	ldi	r31, 0x49	; 73
      a2:	02 c0       	rjmp	.+4      	; 0xa8 <__do_copy_data+0x10>
      a4:	05 90       	lpm	r0, Z+
      a6:	0d 92       	st	X+, r0
      a8:	ae 31       	cpi	r26, 0x1E	; 30
      aa:	b1 07       	cpc	r27, r17
      ac:	d9 f7       	brne	.-10     	; 0xa4 <__do_copy_data+0xc>

000000ae <__do_clear_bss>:
      ae:	13 e0       	ldi	r17, 0x03	; 3
      b0:	ae e1       	ldi	r26, 0x1E	; 30
      b2:	b2 e0       	ldi	r27, 0x02	; 2
      b4:	01 c0       	rjmp	.+2      	; 0xb8 <.do_clear_bss_start>

000000b6 <.do_clear_bss_loop>:
      b6:	1d 92       	st	X+, r1

000000b8 <.do_clear_bss_start>:
      b8:	a4 34       	cpi	r26, 0x44	; 68
      ba:	b1 07       	cpc	r27, r17
      bc:	e1 f7       	brne	.-8      	; 0xb6 <.do_clear_bss_loop>
      be:	0e 94 1f 01 	call	0x23e	; 0x23e <main>
      c2:	0c 94 ce 24 	jmp	0x499c	; 0x499c <_exit>

000000c6 <__bad_interrupt>:
      c6:	0c 94 00 00 	jmp	0	; 0x0 <__vectors>

000000ca <_Z24can_prep_eeprom_dump_msgP4sCANPh>:

bool okay_to_read_cal = false;


void can_prep_eeprom_dump_msg( sCAN* mMsg, byte* addr )
{
      ca:	0f 93       	push	r16
      cc:	1f 93       	push	r17
      ce:	cf 93       	push	r28
      d0:	df 93       	push	r29
      d2:	ec 01       	movw	r28, r24
      d4:	8b 01       	movw	r16, r22
	mMsg->id  = create_CAN_eid( 0x0111, MyInstance );
      d6:	81 e1       	ldi	r24, 0x11	; 17
      d8:	91 e0       	ldi	r25, 0x01	; 1
      da:	60 91 c2 02 	lds	r22, 0x02C2
      de:	0e 94 ff 13 	call	0x27fe	; 0x27fe <_Z14create_CAN_eidth>
      e2:	68 83       	st	Y, r22
      e4:	79 83       	std	Y+1, r23	; 0x01
      e6:	8a 83       	std	Y+2, r24	; 0x02
      e8:	9b 83       	std	Y+3, r25	; 0x03
    mMsg->data[0] = (eeprom_read_byte( addr++ ));
      ea:	98 01       	movw	r18, r16
      ec:	2f 5f       	subi	r18, 0xFF	; 255
      ee:	3f 4f       	sbci	r19, 0xFF	; 255
/** \ingroup avr_eeprom
    Read one byte from EEPROM address \a __p.
 */
__ATTR_PURE__ static __inline__ uint8_t eeprom_read_byte (const uint8_t *__p)
{
    do {} while (!eeprom_is_ready ());
      f0:	f9 99       	sbic	0x1f, 1	; 31
      f2:	fe cf       	rjmp	.-4      	; 0xf0 <_Z24can_prep_eeprom_dump_msgP4sCANPh+0x26>
#if E2END <= 0xFF
    EEARL = (uint8_t)(uint16_t)__p;
#else
    EEAR = (uint16_t)__p;
      f4:	12 bd       	out	0x22, r17	; 34
      f6:	01 bd       	out	0x21, r16	; 33
        "/* END EEPROM READ CRITICAL SECTION */ \n\t"
        : "=r" (__result)
        : "i" (_SFR_IO_ADDR(EECR)),
          "i" (EERE),
          "i" (_SFR_IO_ADDR(EEDR))
    );
      f8:	f8 9a       	sbi	0x1f, 0	; 31
      fa:	80 b5       	in	r24, 0x20	; 32
      fc:	8d 83       	std	Y+5, r24	; 0x05
    mMsg->data[1] = (eeprom_read_byte( addr++ ));
      fe:	c9 01       	movw	r24, r18
     100:	01 96       	adiw	r24, 0x01	; 1
/** \ingroup avr_eeprom
    Read one byte from EEPROM address \a __p.
 */
__ATTR_PURE__ static __inline__ uint8_t eeprom_read_byte (const uint8_t *__p)
{
    do {} while (!eeprom_is_ready ());
     102:	f9 99       	sbic	0x1f, 1	; 31
     104:	fe cf       	rjmp	.-4      	; 0x102 <_Z24can_prep_eeprom_dump_msgP4sCANPh+0x38>
#if E2END <= 0xFF
    EEARL = (uint8_t)(uint16_t)__p;
#else
    EEAR = (uint16_t)__p;
     106:	32 bd       	out	0x22, r19	; 34
     108:	21 bd       	out	0x21, r18	; 33
        "/* END EEPROM READ CRITICAL SECTION */ \n\t"
        : "=r" (__result)
        : "i" (_SFR_IO_ADDR(EECR)),
          "i" (EERE),
          "i" (_SFR_IO_ADDR(EEDR))
    );
     10a:	f8 9a       	sbi	0x1f, 0	; 31
     10c:	20 b5       	in	r18, 0x20	; 32
     10e:	2e 83       	std	Y+6, r18	; 0x06
    mMsg->data[2] = (eeprom_read_byte( addr++ ));
     110:	9c 01       	movw	r18, r24
     112:	2f 5f       	subi	r18, 0xFF	; 255
     114:	3f 4f       	sbci	r19, 0xFF	; 255
/** \ingroup avr_eeprom
    Read one byte from EEPROM address \a __p.
 */
__ATTR_PURE__ static __inline__ uint8_t eeprom_read_byte (const uint8_t *__p)
{
    do {} while (!eeprom_is_ready ());
     116:	f9 99       	sbic	0x1f, 1	; 31
     118:	fe cf       	rjmp	.-4      	; 0x116 <_Z24can_prep_eeprom_dump_msgP4sCANPh+0x4c>
#if E2END <= 0xFF
    EEARL = (uint8_t)(uint16_t)__p;
#else
    EEAR = (uint16_t)__p;
     11a:	92 bd       	out	0x22, r25	; 34
     11c:	81 bd       	out	0x21, r24	; 33
        "/* END EEPROM READ CRITICAL SECTION */ \n\t"
        : "=r" (__result)
        : "i" (_SFR_IO_ADDR(EECR)),
          "i" (EERE),
          "i" (_SFR_IO_ADDR(EEDR))
    );
     11e:	f8 9a       	sbi	0x1f, 0	; 31
     120:	80 b5       	in	r24, 0x20	; 32
     122:	8f 83       	std	Y+7, r24	; 0x07
    mMsg->data[3] = (eeprom_read_byte( addr++ ));
     124:	c9 01       	movw	r24, r18
     126:	01 96       	adiw	r24, 0x01	; 1
/** \ingroup avr_eeprom
    Read one byte from EEPROM address \a __p.
 */
__ATTR_PURE__ static __inline__ uint8_t eeprom_read_byte (const uint8_t *__p)
{
    do {} while (!eeprom_is_ready ());
     128:	f9 99       	sbic	0x1f, 1	; 31
     12a:	fe cf       	rjmp	.-4      	; 0x128 <_Z24can_prep_eeprom_dump_msgP4sCANPh+0x5e>
#if E2END <= 0xFF
    EEARL = (uint8_t)(uint16_t)__p;
#else
    EEAR = (uint16_t)__p;
     12c:	32 bd       	out	0x22, r19	; 34
     12e:	21 bd       	out	0x21, r18	; 33
        "/* END EEPROM READ CRITICAL SECTION */ \n\t"
        : "=r" (__result)
        : "i" (_SFR_IO_ADDR(EECR)),
          "i" (EERE),
          "i" (_SFR_IO_ADDR(EEDR))
    );
     130:	f8 9a       	sbi	0x1f, 0	; 31
     132:	20 b5       	in	r18, 0x20	; 32
     134:	28 87       	std	Y+8, r18	; 0x08
    mMsg->data[4] = (eeprom_read_byte( addr++ ));
     136:	9c 01       	movw	r18, r24
     138:	2f 5f       	subi	r18, 0xFF	; 255
     13a:	3f 4f       	sbci	r19, 0xFF	; 255
/** \ingroup avr_eeprom
    Read one byte from EEPROM address \a __p.
 */
__ATTR_PURE__ static __inline__ uint8_t eeprom_read_byte (const uint8_t *__p)
{
    do {} while (!eeprom_is_ready ());
     13c:	f9 99       	sbic	0x1f, 1	; 31
     13e:	fe cf       	rjmp	.-4      	; 0x13c <_Z24can_prep_eeprom_dump_msgP4sCANPh+0x72>
#if E2END <= 0xFF
    EEARL = (uint8_t)(uint16_t)__p;
#else
    EEAR = (uint16_t)__p;
     140:	92 bd       	out	0x22, r25	; 34
     142:	81 bd       	out	0x21, r24	; 33
        "/* END EEPROM READ CRITICAL SECTION */ \n\t"
        : "=r" (__result)
        : "i" (_SFR_IO_ADDR(EECR)),
          "i" (EERE),
          "i" (_SFR_IO_ADDR(EEDR))
    );
     144:	f8 9a       	sbi	0x1f, 0	; 31
     146:	80 b5       	in	r24, 0x20	; 32
     148:	89 87       	std	Y+9, r24	; 0x09
    mMsg->data[5] = (eeprom_read_byte( addr++ ));
     14a:	c9 01       	movw	r24, r18
     14c:	01 96       	adiw	r24, 0x01	; 1
/** \ingroup avr_eeprom
    Read one byte from EEPROM address \a __p.
 */
__ATTR_PURE__ static __inline__ uint8_t eeprom_read_byte (const uint8_t *__p)
{
    do {} while (!eeprom_is_ready ());
     14e:	f9 99       	sbic	0x1f, 1	; 31
     150:	fe cf       	rjmp	.-4      	; 0x14e <_Z24can_prep_eeprom_dump_msgP4sCANPh+0x84>
#if E2END <= 0xFF
    EEARL = (uint8_t)(uint16_t)__p;
#else
    EEAR = (uint16_t)__p;
     152:	32 bd       	out	0x22, r19	; 34
     154:	21 bd       	out	0x21, r18	; 33
        "/* END EEPROM READ CRITICAL SECTION */ \n\t"
        : "=r" (__result)
        : "i" (_SFR_IO_ADDR(EECR)),
          "i" (EERE),
          "i" (_SFR_IO_ADDR(EEDR))
    );
     156:	f8 9a       	sbi	0x1f, 0	; 31
     158:	20 b5       	in	r18, 0x20	; 32
     15a:	2a 87       	std	Y+10, r18	; 0x0a
    mMsg->data[6] = (eeprom_read_byte( addr++ ));
     15c:	9c 01       	movw	r18, r24
     15e:	2f 5f       	subi	r18, 0xFF	; 255
     160:	3f 4f       	sbci	r19, 0xFF	; 255
/** \ingroup avr_eeprom
    Read one byte from EEPROM address \a __p.
 */
__ATTR_PURE__ static __inline__ uint8_t eeprom_read_byte (const uint8_t *__p)
{
    do {} while (!eeprom_is_ready ());
     162:	f9 99       	sbic	0x1f, 1	; 31
     164:	fe cf       	rjmp	.-4      	; 0x162 <_Z24can_prep_eeprom_dump_msgP4sCANPh+0x98>
#if E2END <= 0xFF
    EEARL = (uint8_t)(uint16_t)__p;
#else
    EEAR = (uint16_t)__p;
     166:	92 bd       	out	0x22, r25	; 34
     168:	81 bd       	out	0x21, r24	; 33
        "/* END EEPROM READ CRITICAL SECTION */ \n\t"
        : "=r" (__result)
        : "i" (_SFR_IO_ADDR(EECR)),
          "i" (EERE),
          "i" (_SFR_IO_ADDR(EEDR))
    );
     16a:	f8 9a       	sbi	0x1f, 0	; 31
     16c:	80 b5       	in	r24, 0x20	; 32
     16e:	8b 87       	std	Y+11, r24	; 0x0b
/** \ingroup avr_eeprom
    Read one byte from EEPROM address \a __p.
 */
__ATTR_PURE__ static __inline__ uint8_t eeprom_read_byte (const uint8_t *__p)
{
    do {} while (!eeprom_is_ready ());
     170:	f9 99       	sbic	0x1f, 1	; 31
     172:	fe cf       	rjmp	.-4      	; 0x170 <_Z24can_prep_eeprom_dump_msgP4sCANPh+0xa6>
#if E2END <= 0xFF
    EEARL = (uint8_t)(uint16_t)__p;
#else
    EEAR = (uint16_t)__p;
     174:	32 bd       	out	0x22, r19	; 34
     176:	21 bd       	out	0x21, r18	; 33
        "/* END EEPROM READ CRITICAL SECTION */ \n\t"
        : "=r" (__result)
        : "i" (_SFR_IO_ADDR(EECR)),
          "i" (EERE),
          "i" (_SFR_IO_ADDR(EEDR))
    );
     178:	f8 9a       	sbi	0x1f, 0	; 31
     17a:	80 b5       	in	r24, 0x20	; 32
    mMsg->data[7] = (eeprom_read_byte( addr++ ));
     17c:	8c 87       	std	Y+12, r24	; 0x0c
    mMsg->header.DLC	= 8;
     17e:	8c 81       	ldd	r24, Y+4	; 0x04
     180:	80 7e       	andi	r24, 0xE0	; 224
    mMsg->header.rtr    = 0;
     182:	80 61       	ori	r24, 0x10	; 16
     184:	8c 83       	std	Y+4, r24	; 0x04
}
     186:	df 91       	pop	r29
     188:	cf 91       	pop	r28
     18a:	1f 91       	pop	r17
     18c:	0f 91       	pop	r16
     18e:	08 95       	ret

00000190 <_Z25can_prep_eeprom_dump1_msgv>:
void can_prep_eeprom_dump1_msg( )
{
     190:	cf 93       	push	r28
     192:	df 93       	push	r29
	byte* addr = INSTANCE_EEPROM_ADDRESS;
	can_prep_eeprom_dump_msg( &msg1, addr );
     194:	c7 e8       	ldi	r28, 0x87	; 135
     196:	d2 e0       	ldi	r29, 0x02	; 2
     198:	ce 01       	movw	r24, r28
     19a:	61 e0       	ldi	r22, 0x01	; 1
     19c:	70 e0       	ldi	r23, 0x00	; 0
     19e:	0e 94 65 00 	call	0xca	; 0xca <_Z24can_prep_eeprom_dump_msgP4sCANPh>
	can_send_msg( 0, &msg1 );
     1a2:	80 e0       	ldi	r24, 0x00	; 0
     1a4:	be 01       	movw	r22, r28
     1a6:	0e 94 bb 11 	call	0x2376	; 0x2376 <_Z12can_send_msghP4sCAN>
}
     1aa:	df 91       	pop	r29
     1ac:	cf 91       	pop	r28
     1ae:	08 95       	ret

000001b0 <_Z25can_prep_eeprom_dump2_msgv>:
void can_prep_eeprom_dump2_msg( )
{
     1b0:	cf 93       	push	r28
     1b2:	df 93       	push	r29
	byte* addr = (byte*)(INSTANCE_EEPROM_ADDRESS+8);
	can_prep_eeprom_dump_msg( &msg2, addr );
     1b4:	c6 e9       	ldi	r28, 0x96	; 150
     1b6:	d2 e0       	ldi	r29, 0x02	; 2
     1b8:	ce 01       	movw	r24, r28
     1ba:	69 e0       	ldi	r22, 0x09	; 9
     1bc:	70 e0       	ldi	r23, 0x00	; 0
     1be:	0e 94 65 00 	call	0xca	; 0xca <_Z24can_prep_eeprom_dump_msgP4sCANPh>
	can_send_msg( 2, &msg2 );
     1c2:	82 e0       	ldi	r24, 0x02	; 2
     1c4:	be 01       	movw	r22, r28
     1c6:	0e 94 bb 11 	call	0x2376	; 0x2376 <_Z12can_send_msghP4sCAN>
}
     1ca:	df 91       	pop	r29
     1cc:	cf 91       	pop	r28
     1ce:	08 95       	ret

000001d0 <_Z25can_prep_eeprom_dump3_msgv>:
void can_prep_eeprom_dump3_msg( )
{
     1d0:	cf 93       	push	r28
     1d2:	df 93       	push	r29
	byte* addr = (byte*)(INSTANCE_EEPROM_ADDRESS+16);
	can_prep_eeprom_dump_msg( &msg1, addr );
     1d4:	c7 e8       	ldi	r28, 0x87	; 135
     1d6:	d2 e0       	ldi	r29, 0x02	; 2
     1d8:	ce 01       	movw	r24, r28
     1da:	61 e1       	ldi	r22, 0x11	; 17
     1dc:	70 e0       	ldi	r23, 0x00	; 0
     1de:	0e 94 65 00 	call	0xca	; 0xca <_Z24can_prep_eeprom_dump_msgP4sCANPh>
	can_send_msg( 4, &msg1 );
     1e2:	84 e0       	ldi	r24, 0x04	; 4
     1e4:	be 01       	movw	r22, r28
     1e6:	0e 94 bb 11 	call	0x2376	; 0x2376 <_Z12can_send_msghP4sCAN>
}
     1ea:	df 91       	pop	r29
     1ec:	cf 91       	pop	r28
     1ee:	08 95       	ret

000001f0 <_Z4initv>:
byte ResetReason = 0x00;

void init()
{
	ResetReason = MCUSR;		
     1f0:	84 b7       	in	r24, 0x34	; 52
     1f2:	80 93 1f 02 	sts	0x021F, r24
 	cli();
     1f6:	f8 94       	cli
    chip_init ();    				// Chip initialization
     1f8:	0e 94 77 1a 	call	0x34ee	; 0x34ee <_Z9chip_initv>
	init_leds ();
     1fc:	0e 94 91 17 	call	0x2f22	; 0x2f22 <_Z9init_ledsv>
	delay(1000000);					// ~ 2 sec
     200:	60 e4       	ldi	r22, 0x40	; 64
     202:	72 e4       	ldi	r23, 0x42	; 66
     204:	8f e0       	ldi	r24, 0x0F	; 15
     206:	90 e0       	ldi	r25, 0x00	; 0
     208:	0e 94 3f 1a 	call	0x347e	; 0x347e <_Z5delayl>
	read_cal();						// Read everything including motor stops.	
     20c:	0e 94 a7 07 	call	0xf4e	; 0xf4e <_Z8read_calv>
	// yes can_init() needs MyInstance to be set already for filtering!
	can_init(CAN_250K_BAUD);		/* Enables Mob0 for Reception! */
     210:	83 e0       	ldi	r24, 0x03	; 3
     212:	0e 94 08 12 	call	0x2410	; 0x2410 <_Z8can_inith>

    // INIT MYINSTANCE:	
	config_init();
     216:	0e 94 76 1b 	call	0x36ec	; 0x36ec <_Z11config_initv>
	can_instance_init();
     21a:	0e 94 f2 12 	call	0x25e4	; 0x25e4 <_Z17can_instance_initv>
	
    set_rx_callback			( can_file_message );
     21e:	80 ea       	ldi	r24, 0xA0	; 160
     220:	93 e0       	ldi	r25, 0x03	; 3
     222:	0e 94 e1 0e 	call	0x1dc2	; 0x1dc2 <_Z15set_rx_callbackPFvP4sCANE>
	set_configure_callback	( config_change    );
     226:	8c e3       	ldi	r24, 0x3C	; 60
     228:	96 e0       	ldi	r25, 0x06	; 6
     22a:	0e 94 2f 14 	call	0x285e	; 0x285e <_Z22set_configure_callbackPFvhE>
	sei();
     22e:	78 94       	sei

	OS_InitTask();
     230:	0e 94 83 1a 	call	0x3506	; 0x3506 <_Z11OS_InitTaskv>
	pot_init();	
     234:	0e 94 1b 09 	call	0x1236	; 0x1236 <_Z8pot_initv>
	motor_init ();
     238:	0e 94 e0 07 	call	0xfc0	; 0xfc0 <_Z10motor_initv>
	//encoder_init();
	
//	can_prep_instance_request( &msg2, 0xBB );
//	can_send_msg( 0, &msg2 );
}
     23c:	08 95       	ret

0000023e <main>:

//********** main *****************************************************
word prevPosition = 0;
int main(void)
{
	init();
     23e:	0e 94 f8 00 	call	0x1f0	; 0x1f0 <_Z4initv>
    while (1)
    {
    	// CAN Messaging will directly Start/Stop the motor.
		delay(one_second); delay(one_second); 
     242:	60 e8       	ldi	r22, 0x80	; 128
     244:	7a e1       	ldi	r23, 0x1A	; 26
     246:	86 e0       	ldi	r24, 0x06	; 6
     248:	90 e0       	ldi	r25, 0x00	; 0
     24a:	0e 94 3f 1a 	call	0x347e	; 0x347e <_Z5delayl>
     24e:	60 e8       	ldi	r22, 0x80	; 128
     250:	7a e1       	ldi	r23, 0x1A	; 26
     252:	86 e0       	ldi	r24, 0x06	; 6
     254:	90 e0       	ldi	r25, 0x00	; 0
     256:	0e 94 3f 1a 	call	0x347e	; 0x347e <_Z5delayl>
     25a:	f3 cf       	rjmp	.-26     	; 0x242 <main+0x4>

0000025c <_Z17extract_float_msgPh>:
/**************** VARIABLES *************************************/
uint8_t  size = sizeof(float);

/************************ UTILITY FUNCTIONS *******************************/
float extract_float_msg( byte* mdata )
{
     25c:	df 93       	push	r29
     25e:	cf 93       	push	r28
     260:	00 d0       	rcall	.+0      	; 0x262 <_Z17extract_float_msgPh+0x6>
     262:	00 d0       	rcall	.+0      	; 0x264 <_Z17extract_float_msgPh+0x8>
     264:	cd b7       	in	r28, 0x3d	; 61
     266:	de b7       	in	r29, 0x3e	; 62
     268:	a8 2f       	mov	r26, r24
     26a:	b9 2f       	mov	r27, r25
     26c:	fe 01       	movw	r30, r28
     26e:	31 96       	adiw	r30, 0x01	; 1

/**************** VARIABLES *************************************/
uint8_t  size = sizeof(float);

/************************ UTILITY FUNCTIONS *******************************/
float extract_float_msg( byte* mdata )
     270:	ce 01       	movw	r24, r28
     272:	05 96       	adiw	r24, 0x05	; 5
{
	float_array 	floater;
	for (int i=0; i<4; i++)
		floater.array[i] = mdata[i];
     274:	2d 91       	ld	r18, X+
     276:	21 93       	st	Z+, r18

/************************ UTILITY FUNCTIONS *******************************/
float extract_float_msg( byte* mdata )
{
	float_array 	floater;
	for (int i=0; i<4; i++)
     278:	e8 17       	cp	r30, r24
     27a:	f9 07       	cpc	r31, r25
     27c:	d9 f7       	brne	.-10     	; 0x274 <_Z17extract_float_msgPh+0x18>
		floater.array[i] = mdata[i];
	return floater.value;
}
     27e:	59 81       	ldd	r21, Y+1	; 0x01
     280:	4a 81       	ldd	r20, Y+2	; 0x02
     282:	3b 81       	ldd	r19, Y+3	; 0x03
     284:	2c 81       	ldd	r18, Y+4	; 0x04
     286:	65 2f       	mov	r22, r21
     288:	74 2f       	mov	r23, r20
     28a:	83 2f       	mov	r24, r19
     28c:	92 2f       	mov	r25, r18
     28e:	0f 90       	pop	r0
     290:	0f 90       	pop	r0
     292:	0f 90       	pop	r0
     294:	0f 90       	pop	r0
     296:	cf 91       	pop	r28
     298:	df 91       	pop	r29
     29a:	08 95       	ret

0000029c <_Z15extract_word_bePh>:
word extract_word_be( byte* mData )
{
     29c:	fc 01       	movw	r30, r24
	long int retval = 0;
	retval |= (mData[0]<<8);
     29e:	30 81       	ld	r19, Z
     2a0:	20 e0       	ldi	r18, 0x00	; 0
     2a2:	44 27       	eor	r20, r20
     2a4:	37 fd       	sbrc	r19, 7
     2a6:	40 95       	com	r20
     2a8:	54 2f       	mov	r21, r20
	retval |= mData[1];
     2aa:	81 81       	ldd	r24, Z+1	; 0x01
     2ac:	90 e0       	ldi	r25, 0x00	; 0
     2ae:	a0 e0       	ldi	r26, 0x00	; 0
     2b0:	b0 e0       	ldi	r27, 0x00	; 0
     2b2:	28 2b       	or	r18, r24
     2b4:	39 2b       	or	r19, r25
     2b6:	4a 2b       	or	r20, r26
     2b8:	5b 2b       	or	r21, r27
	return retval;
}
     2ba:	c9 01       	movw	r24, r18
     2bc:	08 95       	ret

000002be <_Z15extract_word_lePh>:
word extract_word_le( byte* mData )
{
     2be:	fc 01       	movw	r30, r24
	long int retval = 0;
	retval |= mData[0];
	retval |= (mData[1]<<8 );
     2c0:	31 81       	ldd	r19, Z+1	; 0x01
     2c2:	20 e0       	ldi	r18, 0x00	; 0
     2c4:	44 27       	eor	r20, r20
     2c6:	37 fd       	sbrc	r19, 7
     2c8:	40 95       	com	r20
     2ca:	54 2f       	mov	r21, r20
	return retval;
}
word extract_word_le( byte* mData )
{
	long int retval = 0;
	retval |= mData[0];
     2cc:	80 81       	ld	r24, Z
     2ce:	90 e0       	ldi	r25, 0x00	; 0
     2d0:	a0 e0       	ldi	r26, 0x00	; 0
     2d2:	b0 e0       	ldi	r27, 0x00	; 0
	retval |= (mData[1]<<8 );
     2d4:	28 2b       	or	r18, r24
     2d6:	39 2b       	or	r19, r25
     2d8:	4a 2b       	or	r20, r26
     2da:	5b 2b       	or	r21, r27
	return retval;
}
     2dc:	c9 01       	movw	r24, r18
     2de:	08 95       	ret

000002e0 <_Z19extract_long_int_bePh>:

long int extract_long_int_be( byte* mData)
{
     2e0:	fc 01       	movw	r30, r24
	long int retval = 0;
	retval |= (((unsigned long)mData[0])<<24);
	retval |= (((unsigned long)mData[1])<<16);
	retval |= (((unsigned long)mData[2])<<8);
	retval |= (((unsigned long)mData[3]));
     2e2:	23 81       	ldd	r18, Z+3	; 0x03
     2e4:	30 e0       	ldi	r19, 0x00	; 0
     2e6:	40 e0       	ldi	r20, 0x00	; 0
     2e8:	50 e0       	ldi	r21, 0x00	; 0
}

long int extract_long_int_be( byte* mData)
{
	long int retval = 0;
	retval |= (((unsigned long)mData[0])<<24);
     2ea:	80 81       	ld	r24, Z
     2ec:	90 e0       	ldi	r25, 0x00	; 0
     2ee:	a0 e0       	ldi	r26, 0x00	; 0
     2f0:	b0 e0       	ldi	r27, 0x00	; 0
     2f2:	b8 2f       	mov	r27, r24
     2f4:	aa 27       	eor	r26, r26
     2f6:	99 27       	eor	r25, r25
     2f8:	88 27       	eor	r24, r24
	retval |= (((unsigned long)mData[1])<<16);
     2fa:	28 2b       	or	r18, r24
     2fc:	39 2b       	or	r19, r25
     2fe:	4a 2b       	or	r20, r26
     300:	5b 2b       	or	r21, r27
     302:	61 81       	ldd	r22, Z+1	; 0x01
     304:	70 e0       	ldi	r23, 0x00	; 0
     306:	80 e0       	ldi	r24, 0x00	; 0
     308:	90 e0       	ldi	r25, 0x00	; 0
     30a:	cb 01       	movw	r24, r22
     30c:	77 27       	eor	r23, r23
     30e:	66 27       	eor	r22, r22
	retval |= (((unsigned long)mData[2])<<8);
     310:	26 2b       	or	r18, r22
     312:	37 2b       	or	r19, r23
     314:	48 2b       	or	r20, r24
     316:	59 2b       	or	r21, r25
     318:	82 81       	ldd	r24, Z+2	; 0x02
     31a:	90 e0       	ldi	r25, 0x00	; 0
     31c:	a0 e0       	ldi	r26, 0x00	; 0
     31e:	b0 e0       	ldi	r27, 0x00	; 0
     320:	ba 2f       	mov	r27, r26
     322:	a9 2f       	mov	r26, r25
     324:	98 2f       	mov	r25, r24
     326:	88 27       	eor	r24, r24
	retval |= (((unsigned long)mData[3]));
     328:	28 2b       	or	r18, r24
     32a:	39 2b       	or	r19, r25
     32c:	4a 2b       	or	r20, r26
     32e:	5b 2b       	or	r21, r27
	return retval;
}
     330:	b9 01       	movw	r22, r18
     332:	ca 01       	movw	r24, r20
     334:	08 95       	ret

00000336 <_Z19extract_long_int_lePh>:
long int extract_long_int_le( byte* mData)
{
     336:	fc 01       	movw	r30, r24
	long int retval = 0;
	retval |= mData[0];
	retval |= (mData[1]<<8 );
	retval |= ((long)mData[2])<<16;
     338:	22 81       	ldd	r18, Z+2	; 0x02
     33a:	30 e0       	ldi	r19, 0x00	; 0
     33c:	40 e0       	ldi	r20, 0x00	; 0
     33e:	50 e0       	ldi	r21, 0x00	; 0
     340:	a9 01       	movw	r20, r18
     342:	33 27       	eor	r19, r19
     344:	22 27       	eor	r18, r18
	retval |= ((long)mData[3]<<24);
     346:	63 81       	ldd	r22, Z+3	; 0x03
     348:	70 e0       	ldi	r23, 0x00	; 0
     34a:	80 e0       	ldi	r24, 0x00	; 0
     34c:	90 e0       	ldi	r25, 0x00	; 0
     34e:	96 2f       	mov	r25, r22
     350:	88 27       	eor	r24, r24
     352:	77 27       	eor	r23, r23
     354:	66 27       	eor	r22, r22
}
long int extract_long_int_le( byte* mData)
{
	long int retval = 0;
	retval |= mData[0];
	retval |= (mData[1]<<8 );
     356:	26 2b       	or	r18, r22
     358:	37 2b       	or	r19, r23
     35a:	48 2b       	or	r20, r24
     35c:	59 2b       	or	r21, r25
	return retval;
}
long int extract_long_int_le( byte* mData)
{
	long int retval = 0;
	retval |= mData[0];
     35e:	60 81       	ld	r22, Z
     360:	70 e0       	ldi	r23, 0x00	; 0
     362:	80 e0       	ldi	r24, 0x00	; 0
     364:	90 e0       	ldi	r25, 0x00	; 0
	retval |= (mData[1]<<8 );
	retval |= ((long)mData[2])<<16;
     366:	26 2b       	or	r18, r22
     368:	37 2b       	or	r19, r23
     36a:	48 2b       	or	r20, r24
     36c:	59 2b       	or	r21, r25
}
long int extract_long_int_le( byte* mData)
{
	long int retval = 0;
	retval |= mData[0];
	retval |= (mData[1]<<8 );
     36e:	91 81       	ldd	r25, Z+1	; 0x01
     370:	80 e0       	ldi	r24, 0x00	; 0
     372:	aa 27       	eor	r26, r26
     374:	97 fd       	sbrc	r25, 7
     376:	a0 95       	com	r26
     378:	ba 2f       	mov	r27, r26
	retval |= ((long)mData[2])<<16;
	retval |= ((long)mData[3]<<24);
     37a:	28 2b       	or	r18, r24
     37c:	39 2b       	or	r19, r25
     37e:	4a 2b       	or	r20, r26
     380:	5b 2b       	or	r21, r27
	return retval;
}
     382:	b9 01       	movw	r22, r18
     384:	ca 01       	movw	r24, r20
     386:	08 95       	ret

00000388 <_Z17can_proc_tilt_msgP4sCAN>:
}

/* Extract angle from the Message */
#define KConst 0.25
void can_proc_tilt_msg( sCAN* mMsg )
{
     388:	cf 93       	push	r28
     38a:	fc 01       	movw	r30, r24
	byte yh  = mMsg->data[3];
	byte yl  = mMsg->data[2];
	short y1  = ((yh<<8) | yl);
     38c:	30 85       	ldd	r19, Z+8	; 0x08
     38e:	20 e0       	ldi	r18, 0x00	; 0
     390:	67 81       	ldd	r22, Z+7	; 0x07
     392:	70 e0       	ldi	r23, 0x00	; 0
     394:	62 2b       	or	r22, r18
     396:	73 2b       	or	r23, r19
	float y2 = ((float)y1 / (16535.0));
     398:	88 27       	eor	r24, r24
     39a:	77 fd       	sbrc	r23, 7
     39c:	80 95       	com	r24
     39e:	98 2f       	mov	r25, r24
     3a0:	0e 94 84 20 	call	0x4108	; 0x4108 <__floatsisf>
     3a4:	20 e0       	ldi	r18, 0x00	; 0
     3a6:	3e e2       	ldi	r19, 0x2E	; 46
     3a8:	41 e8       	ldi	r20, 0x81	; 129
     3aa:	56 e4       	ldi	r21, 0x46	; 70
     3ac:	0e 94 46 1f 	call	0x3e8c	; 0x3e8c <__divsf3>
     3b0:	9b 01       	movw	r18, r22
     3b2:	ac 01       	movw	r20, r24
	// multiply by proportionality constant

	// We don't actually set the motor duty here, because we don't know if it's in a stop region
	// or under influence of some other condition (ie pid mode, etc).  So we queue up a 
	// request and let the timeslice deal with it.
	MotorState 		 	  = MOTOR_REQUEST_PENDING;
     3b4:	8a e0       	ldi	r24, 0x0A	; 10
     3b6:	80 93 38 02 	sts	0x0238, r24
	Destination.speed     = fabs(y2);
     3ba:	da 01       	movw	r26, r20
     3bc:	c9 01       	movw	r24, r18
     3be:	bf 77       	andi	r27, 0x7F	; 127
     3c0:	80 93 53 02 	sts	0x0253, r24
     3c4:	90 93 54 02 	sts	0x0254, r25
     3c8:	a0 93 55 02 	sts	0x0255, r26
     3cc:	b0 93 56 02 	sts	0x0256, r27
	Destination.direction = (y2 > 0);
     3d0:	c1 e0       	ldi	r28, 0x01	; 1
     3d2:	ca 01       	movw	r24, r20
     3d4:	b9 01       	movw	r22, r18
     3d6:	20 e0       	ldi	r18, 0x00	; 0
     3d8:	30 e0       	ldi	r19, 0x00	; 0
     3da:	a9 01       	movw	r20, r18
     3dc:	0e 94 f4 1f 	call	0x3fe8	; 0x3fe8 <__gtsf2>
     3e0:	18 16       	cp	r1, r24
     3e2:	24 f4       	brge	.+8      	; 0x3ec <_Z17can_proc_tilt_msgP4sCAN+0x64>
     3e4:	c0 93 52 02 	sts	0x0252, r28
}
     3e8:	cf 91       	pop	r28
     3ea:	08 95       	ret
	// We don't actually set the motor duty here, because we don't know if it's in a stop region
	// or under influence of some other condition (ie pid mode, etc).  So we queue up a 
	// request and let the timeslice deal with it.
	MotorState 		 	  = MOTOR_REQUEST_PENDING;
	Destination.speed     = fabs(y2);
	Destination.direction = (y2 > 0);
     3ec:	c0 e0       	ldi	r28, 0x00	; 0
     3ee:	c0 93 52 02 	sts	0x0252, r28
}
     3f2:	cf 91       	pop	r28
     3f4:	08 95       	ret

000003f6 <_Z21can_proc_set_stop_msgP4sCAN>:

/* Extract angle from the Message */
void can_proc_set_stop_msg( sCAN* mMsg )
{
     3f6:	cf 93       	push	r28
     3f8:	df 93       	push	r29
     3fa:	ec 01       	movw	r28, r24
	if (mMsg->data[0] == 1)
     3fc:	8d 81       	ldd	r24, Y+5	; 0x05
     3fe:	81 30       	cpi	r24, 0x01	; 1
     400:	31 f1       	breq	.+76     	; 0x44e <_Z21can_proc_set_stop_msgP4sCAN+0x58>
	{
		EndPoint1.angle = extract_long_int_be( &(mMsg->data[1]) );
		EndPoint1.value = extract_word_be	 ( &(mMsg->data[5]) );
	} else if (mMsg->data[0] == 2)
     402:	82 30       	cpi	r24, 0x02	; 2
     404:	19 f0       	breq	.+6      	; 0x40c <_Z21can_proc_set_stop_msgP4sCAN+0x16>
	//EndPoint1.angle = 0xFFFFFF12;
	//EndPoint2.angle = 0xFFFFFF13;
	//order_stops_by_value();
	//compute_range();
	//save_cal();
}
     406:	df 91       	pop	r29
     408:	cf 91       	pop	r28
     40a:	08 95       	ret
	{
		EndPoint1.angle = extract_long_int_be( &(mMsg->data[1]) );
		EndPoint1.value = extract_word_be	 ( &(mMsg->data[5]) );
	} else if (mMsg->data[0] == 2)
	{
		EndPoint2.angle = extract_long_int_be( &(mMsg->data[1]) );
     40c:	ce 01       	movw	r24, r28
     40e:	06 96       	adiw	r24, 0x06	; 6
     410:	0e 94 70 01 	call	0x2e0	; 0x2e0 <_Z19extract_long_int_bePh>
     414:	60 93 28 02 	sts	0x0228, r22
     418:	70 93 29 02 	sts	0x0229, r23
     41c:	80 93 2a 02 	sts	0x022A, r24
     420:	90 93 2b 02 	sts	0x022B, r25
	return floater.value;
}
word extract_word_be( byte* mData )
{
	long int retval = 0;
	retval |= (mData[0]<<8);
     424:	9a 85       	ldd	r25, Y+10	; 0x0a
     426:	80 e0       	ldi	r24, 0x00	; 0
     428:	aa 27       	eor	r26, r26
     42a:	97 fd       	sbrc	r25, 7
     42c:	a0 95       	com	r26
     42e:	ba 2f       	mov	r27, r26
	retval |= mData[1];
     430:	2b 85       	ldd	r18, Y+11	; 0x0b
     432:	30 e0       	ldi	r19, 0x00	; 0
     434:	40 e0       	ldi	r20, 0x00	; 0
     436:	50 e0       	ldi	r21, 0x00	; 0
     438:	82 2b       	or	r24, r18
     43a:	93 2b       	or	r25, r19
     43c:	a4 2b       	or	r26, r20
     43e:	b5 2b       	or	r27, r21
	return retval;
     440:	90 93 2d 02 	sts	0x022D, r25
     444:	80 93 2c 02 	sts	0x022C, r24
	//EndPoint1.angle = 0xFFFFFF12;
	//EndPoint2.angle = 0xFFFFFF13;
	//order_stops_by_value();
	//compute_range();
	//save_cal();
}
     448:	df 91       	pop	r29
     44a:	cf 91       	pop	r28
     44c:	08 95       	ret
/* Extract angle from the Message */
void can_proc_set_stop_msg( sCAN* mMsg )
{
	if (mMsg->data[0] == 1)
	{
		EndPoint1.angle = extract_long_int_be( &(mMsg->data[1]) );
     44e:	ce 01       	movw	r24, r28
     450:	06 96       	adiw	r24, 0x06	; 6
     452:	0e 94 70 01 	call	0x2e0	; 0x2e0 <_Z19extract_long_int_bePh>
     456:	60 93 22 02 	sts	0x0222, r22
     45a:	70 93 23 02 	sts	0x0223, r23
     45e:	80 93 24 02 	sts	0x0224, r24
     462:	90 93 25 02 	sts	0x0225, r25
	return floater.value;
}
word extract_word_be( byte* mData )
{
	long int retval = 0;
	retval |= (mData[0]<<8);
     466:	9a 85       	ldd	r25, Y+10	; 0x0a
     468:	80 e0       	ldi	r24, 0x00	; 0
     46a:	aa 27       	eor	r26, r26
     46c:	97 fd       	sbrc	r25, 7
     46e:	a0 95       	com	r26
     470:	ba 2f       	mov	r27, r26
	retval |= mData[1];
     472:	2b 85       	ldd	r18, Y+11	; 0x0b
     474:	30 e0       	ldi	r19, 0x00	; 0
     476:	40 e0       	ldi	r20, 0x00	; 0
     478:	50 e0       	ldi	r21, 0x00	; 0
     47a:	82 2b       	or	r24, r18
     47c:	93 2b       	or	r25, r19
     47e:	a4 2b       	or	r26, r20
     480:	b5 2b       	or	r27, r21
	return retval;
     482:	90 93 27 02 	sts	0x0227, r25
     486:	80 93 26 02 	sts	0x0226, r24
	//EndPoint1.angle = 0xFFFFFF12;
	//EndPoint2.angle = 0xFFFFFF13;
	//order_stops_by_value();
	//compute_range();
	//save_cal();
}
     48a:	df 91       	pop	r29
     48c:	cf 91       	pop	r28
     48e:	08 95       	ret

00000490 <_Z26can_proc_move_to_angle_msgP4sCAN>:

/* Extract angle from the Message */
void can_proc_move_to_angle_msg ( sCAN* mMsg )
{
     490:	cf 93       	push	r28
     492:	df 93       	push	r29
     494:	ec 01       	movw	r28, r24
	// Angle is a 4 byte signed integer.  
	// It is degrees * 100 
	long int tmp_angle 	 		  = extract_long_int_be( mMsg->data );
     496:	05 96       	adiw	r24, 0x05	; 5
     498:	0e 94 70 01 	call	0x2e0	; 0x2e0 <_Z19extract_long_int_bePh>
	Destination.starting_position = PotSample[1];
     49c:	20 91 7f 02 	lds	r18, 0x027F
     4a0:	30 91 80 02 	lds	r19, 0x0280
     4a4:	30 93 4f 02 	sts	0x024F, r19
     4a8:	20 93 4e 02 	sts	0x024E, r18
	Destination.position 		  = convert_to_value(tmp_angle);
     4ac:	0e 94 79 0a 	call	0x14f2	; 0x14f2 <_Z16convert_to_valuel>
     4b0:	90 93 51 02 	sts	0x0251, r25
     4b4:	80 93 50 02 	sts	0x0250, r24
	Destination.coast 			  = 0x00;  // apply when destination is reached.
     4b8:	10 92 5b 02 	sts	0x025B, r1

	short speed  = (mMsg->data[4]<<8) + mMsg->data[5];
     4bc:	99 85       	ldd	r25, Y+9	; 0x09
     4be:	80 e0       	ldi	r24, 0x00	; 0
     4c0:	2a 85       	ldd	r18, Y+10	; 0x0a
     4c2:	82 0f       	add	r24, r18
     4c4:	91 1d       	adc	r25, r1
	Destination.speed = (speed/100);	    // hundredth percent is sent.
     4c6:	64 e6       	ldi	r22, 0x64	; 100
     4c8:	70 e0       	ldi	r23, 0x00	; 0
     4ca:	0e 94 ab 23 	call	0x4756	; 0x4756 <__divmodhi4>
     4ce:	88 27       	eor	r24, r24
     4d0:	77 fd       	sbrc	r23, 7
     4d2:	80 95       	com	r24
     4d4:	98 2f       	mov	r25, r24
     4d6:	0e 94 84 20 	call	0x4108	; 0x4108 <__floatsisf>
     4da:	60 93 53 02 	sts	0x0253, r22
     4de:	70 93 54 02 	sts	0x0254, r23
     4e2:	80 93 55 02 	sts	0x0255, r24
     4e6:	90 93 56 02 	sts	0x0256, r25
	get_direction_to_destination();
     4ea:	0e 94 8f 09 	call	0x131e	; 0x131e <_Z28get_direction_to_destinationv>
}
     4ee:	df 91       	pop	r29
     4f0:	cf 91       	pop	r28
     4f2:	08 95       	ret

000004f4 <_Z23can_proc_move_speed_msgP4sCAN>:

/* Extract angle from the Message */
void can_proc_move_speed_msg( sCAN* mMsg )
{
     4f4:	ef 92       	push	r14
     4f6:	ff 92       	push	r15
     4f8:	0f 93       	push	r16
     4fa:	1f 93       	push	r17
     4fc:	fc 01       	movw	r30, r24
	return floater.value;
}
word extract_word_be( byte* mData )
{
	long int retval = 0;
	retval |= (mData[0]<<8);
     4fe:	75 81       	ldd	r23, Z+5	; 0x05
     500:	60 e0       	ldi	r22, 0x00	; 0
     502:	88 27       	eor	r24, r24
     504:	77 fd       	sbrc	r23, 7
     506:	80 95       	com	r24
     508:	98 2f       	mov	r25, r24
	retval |= mData[1];
     50a:	26 81       	ldd	r18, Z+6	; 0x06
     50c:	30 e0       	ldi	r19, 0x00	; 0
     50e:	40 e0       	ldi	r20, 0x00	; 0
     510:	50 e0       	ldi	r21, 0x00	; 0
     512:	62 2b       	or	r22, r18
     514:	73 2b       	or	r23, r19
     516:	84 2b       	or	r24, r20
     518:	95 2b       	or	r25, r21
{
	// speed is a float
	// Value is a number [-100.00 to 100.00]  * 100  == [-10000..10000]
	// So 10,000 represents 100.00%
	short speed = extract_word_be( mMsg->data );	
	Destination.coast = 0; 
     51a:	10 92 5b 02 	sts	0x025B, r1
	Destination.speed = ((float)speed / 10000.0);
     51e:	88 27       	eor	r24, r24
     520:	77 fd       	sbrc	r23, 7
     522:	80 95       	com	r24
     524:	98 2f       	mov	r25, r24
     526:	0e 94 84 20 	call	0x4108	; 0x4108 <__floatsisf>
     52a:	20 e0       	ldi	r18, 0x00	; 0
     52c:	30 e4       	ldi	r19, 0x40	; 64
     52e:	4c e1       	ldi	r20, 0x1C	; 28
     530:	56 e4       	ldi	r21, 0x46	; 70
     532:	0e 94 46 1f 	call	0x3e8c	; 0x3e8c <__divsf3>
     536:	e6 2e       	mov	r14, r22
     538:	f7 2e       	mov	r15, r23
     53a:	08 2f       	mov	r16, r24
     53c:	19 2f       	mov	r17, r25
     53e:	26 2f       	mov	r18, r22
     540:	37 2f       	mov	r19, r23
     542:	48 2f       	mov	r20, r24
     544:	59 2f       	mov	r21, r25
     546:	20 93 53 02 	sts	0x0253, r18
     54a:	30 93 54 02 	sts	0x0254, r19
     54e:	40 93 55 02 	sts	0x0255, r20
     552:	50 93 56 02 	sts	0x0256, r21
	if (Destination.speed > 0)
     556:	20 e0       	ldi	r18, 0x00	; 0
     558:	30 e0       	ldi	r19, 0x00	; 0
     55a:	a9 01       	movw	r20, r18
     55c:	0e 94 f4 1f 	call	0x3fe8	; 0x3fe8 <__gtsf2>
     560:	18 16       	cp	r1, r24
     562:	9c f0       	brlt	.+38     	; 0x58a <__stack+0x8b>
		Destination.direction = 1;
	else {
		Destination.direction = 0;
     564:	10 92 52 02 	sts	0x0252, r1
		Destination.speed = -Destination.speed;	// make it positive		
     568:	17 fb       	bst	r17, 7
     56a:	10 95       	com	r17
     56c:	17 f9       	bld	r17, 7
     56e:	10 95       	com	r17
     570:	e0 92 53 02 	sts	0x0253, r14
     574:	f0 92 54 02 	sts	0x0254, r15
     578:	00 93 55 02 	sts	0x0255, r16
     57c:	10 93 56 02 	sts	0x0256, r17
	}

}
     580:	1f 91       	pop	r17
     582:	0f 91       	pop	r16
     584:	ff 90       	pop	r15
     586:	ef 90       	pop	r14
     588:	08 95       	ret
	// So 10,000 represents 100.00%
	short speed = extract_word_be( mMsg->data );	
	Destination.coast = 0; 
	Destination.speed = ((float)speed / 10000.0);
	if (Destination.speed > 0)
		Destination.direction = 1;
     58a:	81 e0       	ldi	r24, 0x01	; 1
     58c:	80 93 52 02 	sts	0x0252, r24
	else {
		Destination.direction = 0;
		Destination.speed = -Destination.speed;	// make it positive		
	}

}
     590:	1f 91       	pop	r17
     592:	0f 91       	pop	r16
     594:	ff 90       	pop	r15
     596:	ef 90       	pop	r14
     598:	08 95       	ret

0000059a <_Z23can_proc_stop_motor_msgP4sCAN>:

void can_proc_stop_motor_msg( sCAN* mMsg )
{
     59a:	cf 93       	push	r28
     59c:	df 93       	push	r29
     59e:	ec 01       	movw	r28, r24
	return floater.value;
}
word extract_word_be( byte* mData )
{
	long int retval = 0;
	retval |= (mData[0]<<8);
     5a0:	7d 81       	ldd	r23, Y+5	; 0x05
     5a2:	60 e0       	ldi	r22, 0x00	; 0
     5a4:	88 27       	eor	r24, r24
     5a6:	77 fd       	sbrc	r23, 7
     5a8:	80 95       	com	r24
     5aa:	98 2f       	mov	r25, r24
	retval |= mData[1];
     5ac:	2e 81       	ldd	r18, Y+6	; 0x06
     5ae:	30 e0       	ldi	r19, 0x00	; 0
     5b0:	40 e0       	ldi	r20, 0x00	; 0
     5b2:	50 e0       	ldi	r21, 0x00	; 0
     5b4:	62 2b       	or	r22, r18
     5b6:	73 2b       	or	r23, r19
     5b8:	84 2b       	or	r24, r20
     5ba:	95 2b       	or	r25, r21
}

void can_proc_stop_motor_msg( sCAN* mMsg )
{
	short brake = extract_word_be( &(mMsg->data[0])  );
	Destination.speed = fabs(((float)brake / 10000.0));
     5bc:	88 27       	eor	r24, r24
     5be:	77 fd       	sbrc	r23, 7
     5c0:	80 95       	com	r24
     5c2:	98 2f       	mov	r25, r24
     5c4:	0e 94 84 20 	call	0x4108	; 0x4108 <__floatsisf>
     5c8:	20 e0       	ldi	r18, 0x00	; 0
     5ca:	30 e4       	ldi	r19, 0x40	; 64
     5cc:	4c e1       	ldi	r20, 0x1C	; 28
     5ce:	56 e4       	ldi	r21, 0x46	; 70
     5d0:	0e 94 46 1f 	call	0x3e8c	; 0x3e8c <__divsf3>
     5d4:	9f 77       	andi	r25, 0x7F	; 127
     5d6:	60 93 53 02 	sts	0x0253, r22
     5da:	70 93 54 02 	sts	0x0254, r23
     5de:	80 93 55 02 	sts	0x0255, r24
     5e2:	90 93 56 02 	sts	0x0256, r25

	/* We can have coast (both directions low) with a duty cycle.
	   Coast with 100% on, is most gradual coast.
	   Coast with  50% on, cuts down on the recirculation current.	*/
	if (mMsg->data[2] == 0)
     5e6:	8f 81       	ldd	r24, Y+7	; 0x07
     5e8:	88 23       	and	r24, r24
     5ea:	29 f0       	breq	.+10     	; 0x5f6 <_Z23can_proc_stop_motor_msgP4sCAN+0x5c>
		Destination.coast = HARD_STOP_MOTOR;		// STOP
	else 
		Destination.coast = mMsg->data[2];
     5ec:	80 93 5b 02 	sts	0x025B, r24
}
     5f0:	df 91       	pop	r29
     5f2:	cf 91       	pop	r28
     5f4:	08 95       	ret

	/* We can have coast (both directions low) with a duty cycle.
	   Coast with 100% on, is most gradual coast.
	   Coast with  50% on, cuts down on the recirculation current.	*/
	if (mMsg->data[2] == 0)
		Destination.coast = HARD_STOP_MOTOR;		// STOP
     5f6:	83 e6       	ldi	r24, 0x63	; 99
     5f8:	80 93 5b 02 	sts	0x025B, r24
	else 
		Destination.coast = mMsg->data[2];
}
     5fc:	df 91       	pop	r29
     5fe:	cf 91       	pop	r28
     600:	08 95       	ret

00000602 <_Z28can_proc_move_dual_speed_msgP4sCAN>:

void can_proc_move_dual_speed_msg( sCAN* mMsg )
{
     602:	cf 93       	push	r28
     604:	df 93       	push	r29
     606:	ec 01       	movw	r28, r24
	return floater.value;
}
word extract_word_be( byte* mData )
{
	long int retval = 0;
	retval |= (mData[0]<<8);
     608:	7d 81       	ldd	r23, Y+5	; 0x05
     60a:	60 e0       	ldi	r22, 0x00	; 0
     60c:	88 27       	eor	r24, r24
     60e:	77 fd       	sbrc	r23, 7
     610:	80 95       	com	r24
     612:	98 2f       	mov	r25, r24
	retval |= mData[1];
     614:	2e 81       	ldd	r18, Y+6	; 0x06
     616:	30 e0       	ldi	r19, 0x00	; 0
     618:	40 e0       	ldi	r20, 0x00	; 0
     61a:	50 e0       	ldi	r21, 0x00	; 0
     61c:	62 2b       	or	r22, r18
     61e:	73 2b       	or	r23, r19
     620:	84 2b       	or	r24, r20
     622:	95 2b       	or	r25, r21

void can_proc_move_dual_speed_msg( sCAN* mMsg )
{
	// Value is a number -0.0 to 100.0  * 100  == [0..10000]
	short speed = extract_word_be( &(mMsg->data[0]) );
	Destination.speed = ((float)speed / 10000.0);		// speed is a float
     624:	88 27       	eor	r24, r24
     626:	77 fd       	sbrc	r23, 7
     628:	80 95       	com	r24
     62a:	98 2f       	mov	r25, r24
     62c:	0e 94 84 20 	call	0x4108	; 0x4108 <__floatsisf>
     630:	20 e0       	ldi	r18, 0x00	; 0
     632:	30 e4       	ldi	r19, 0x40	; 64
     634:	4c e1       	ldi	r20, 0x1C	; 28
     636:	56 e4       	ldi	r21, 0x46	; 70
     638:	0e 94 46 1f 	call	0x3e8c	; 0x3e8c <__divsf3>
     63c:	60 93 53 02 	sts	0x0253, r22
     640:	70 93 54 02 	sts	0x0254, r23
     644:	80 93 55 02 	sts	0x0255, r24
     648:	90 93 56 02 	sts	0x0256, r25
	return floater.value;
}
word extract_word_be( byte* mData )
{
	long int retval = 0;
	retval |= (mData[0]<<8);
     64c:	7f 81       	ldd	r23, Y+7	; 0x07
     64e:	60 e0       	ldi	r22, 0x00	; 0
     650:	88 27       	eor	r24, r24
     652:	77 fd       	sbrc	r23, 7
     654:	80 95       	com	r24
     656:	98 2f       	mov	r25, r24
	retval |= mData[1];
     658:	28 85       	ldd	r18, Y+8	; 0x08
     65a:	30 e0       	ldi	r19, 0x00	; 0
     65c:	40 e0       	ldi	r20, 0x00	; 0
     65e:	50 e0       	ldi	r21, 0x00	; 0
     660:	62 2b       	or	r22, r18
     662:	73 2b       	or	r23, r19
     664:	84 2b       	or	r24, r20
     666:	95 2b       	or	r25, r21
	// Value is a number -0.0 to 100.0  * 100  == [0..10000]
	short speed = extract_word_be( &(mMsg->data[0]) );
	Destination.speed = ((float)speed / 10000.0);		// speed is a float

	speed = extract_word_be( &(mMsg->data[2]) );
	Destination.speed2 = ((float)speed / 10000.0);
     668:	88 27       	eor	r24, r24
     66a:	77 fd       	sbrc	r23, 7
     66c:	80 95       	com	r24
     66e:	98 2f       	mov	r25, r24
     670:	0e 94 84 20 	call	0x4108	; 0x4108 <__floatsisf>
     674:	20 e0       	ldi	r18, 0x00	; 0
     676:	30 e4       	ldi	r19, 0x40	; 64
     678:	4c e1       	ldi	r20, 0x1C	; 28
     67a:	56 e4       	ldi	r21, 0x46	; 70
     67c:	0e 94 46 1f 	call	0x3e8c	; 0x3e8c <__divsf3>
     680:	60 93 57 02 	sts	0x0257, r22
     684:	70 93 58 02 	sts	0x0258, r23
     688:	80 93 59 02 	sts	0x0259, r24
     68c:	90 93 5a 02 	sts	0x025A, r25

	// There's no direction for unidirectional mode!
	//Destination.direction = 1;	
	//MotorState = MOTOR_REQUEST_PENDING;
}
     690:	df 91       	pop	r29
     692:	cf 91       	pop	r28
     694:	08 95       	ret

00000696 <_Z29can_proc_max_acceleration_msgP4sCAN>:

void can_proc_max_acceleration_msg ( sCAN* mMsg )
{
}
     696:	08 95       	ret

00000698 <_Z13can_prep_stopP4sCANh>:
		Calibrated Stop 1	(POT value & angle)
		Calibrated Stop 2	(POT value & angle)
***********************************************************/
/* For informational purposes, send our travel end points. */
void can_prep_stop( sCAN* mMsg, byte mStopNumber )
{
     698:	1f 93       	push	r17
     69a:	cf 93       	push	r28
     69c:	df 93       	push	r29
     69e:	ec 01       	movw	r28, r24
     6a0:	16 2f       	mov	r17, r22
	word PotValue = 0xFFFF;
	long int Angle= -1;
    mMsg->id 	  = create_CAN_eid( 0x00, ID_CALIBRATED_STOP, MyInstance );
     6a2:	80 e0       	ldi	r24, 0x00	; 0
     6a4:	65 e4       	ldi	r22, 0x45	; 69
     6a6:	70 e0       	ldi	r23, 0x00	; 0
     6a8:	40 91 c2 02 	lds	r20, 0x02C2
     6ac:	0e 94 05 14 	call	0x280a	; 0x280a <_Z14create_CAN_eidhth>
     6b0:	dc 01       	movw	r26, r24
     6b2:	cb 01       	movw	r24, r22
     6b4:	88 83       	st	Y, r24
     6b6:	99 83       	std	Y+1, r25	; 0x01
     6b8:	aa 83       	std	Y+2, r26	; 0x02
     6ba:	bb 83       	std	Y+3, r27	; 0x03

    if (mStopNumber==1) {
     6bc:	11 30       	cpi	r17, 0x01	; 1
     6be:	61 f1       	breq	.+88     	; 0x718 <_Z13can_prep_stopP4sCANh+0x80>
    	PotValue = EndPoint1.value;
    	Angle    = EndPoint1.angle;
    } else if (mStopNumber==2) { 
     6c0:	12 30       	cpi	r17, 0x02	; 2
     6c2:	b1 f0       	breq	.+44     	; 0x6f0 <_Z13can_prep_stopP4sCANh+0x58>
     6c4:	9f ef       	ldi	r25, 0xFF	; 255
     6c6:	2f ef       	ldi	r18, 0xFF	; 255
     6c8:	3f ef       	ldi	r19, 0xFF	; 255
     6ca:	4f ef       	ldi	r20, 0xFF	; 255
     6cc:	8f ef       	ldi	r24, 0xFF	; 255
     6ce:	5f ef       	ldi	r21, 0xFF	; 255
    	PotValue = EndPoint2.value;
    	Angle    = EndPoint2.angle;
    }
    mMsg->data[0] = mStopNumber&0x0F;
     6d0:	1f 70       	andi	r17, 0x0F	; 15
     6d2:	1d 83       	std	Y+5, r17	; 0x05
	word tmp = hi_word(Angle);
	mMsg->data[1] = hi(tmp);
     6d4:	5e 83       	std	Y+6, r21	; 0x06
	mMsg->data[2] = lo(tmp);	
     6d6:	8f 83       	std	Y+7, r24	; 0x07
	tmp = lo_word(Angle);
	mMsg->data[3] = hi(tmp);
     6d8:	48 87       	std	Y+8, r20	; 0x08
	mMsg->data[4] = lo(tmp);
     6da:	39 87       	std	Y+9, r19	; 0x09
	mMsg->data[5] = hi(PotValue);
     6dc:	2a 87       	std	Y+10, r18	; 0x0a
	mMsg->data[6] = lo(PotValue);
     6de:	9b 87       	std	Y+11, r25	; 0x0b
    mMsg->header.DLC = 7;
     6e0:	8c 81       	ldd	r24, Y+4	; 0x04
     6e2:	80 7e       	andi	r24, 0xE0	; 224
    mMsg->header.rtr = 0;
     6e4:	8e 60       	ori	r24, 0x0E	; 14
     6e6:	8c 83       	std	Y+4, r24	; 0x04
}
     6e8:	df 91       	pop	r29
     6ea:	cf 91       	pop	r28
     6ec:	1f 91       	pop	r17
     6ee:	08 95       	ret
    if (mStopNumber==1) {
    	PotValue = EndPoint1.value;
    	Angle    = EndPoint1.angle;
    } else if (mStopNumber==2) { 
    	PotValue = EndPoint2.value;
    	Angle    = EndPoint2.angle;
     6f0:	20 91 28 02 	lds	r18, 0x0228
     6f4:	40 91 29 02 	lds	r20, 0x0229
     6f8:	82 2f       	mov	r24, r18
     6fa:	94 2f       	mov	r25, r20
     6fc:	a0 91 2a 02 	lds	r26, 0x022A
     700:	b0 91 2b 02 	lds	r27, 0x022B
     704:	cd 01       	movw	r24, r26
     706:	aa 27       	eor	r26, r26
     708:	bb 27       	eor	r27, r27
     70a:	59 2f       	mov	r21, r25
     70c:	32 2f       	mov	r19, r18
     70e:	20 91 2d 02 	lds	r18, 0x022D
     712:	90 91 2c 02 	lds	r25, 0x022C
     716:	dc cf       	rjmp	.-72     	; 0x6d0 <_Z13can_prep_stopP4sCANh+0x38>
	long int Angle= -1;
    mMsg->id 	  = create_CAN_eid( 0x00, ID_CALIBRATED_STOP, MyInstance );

    if (mStopNumber==1) {
    	PotValue = EndPoint1.value;
    	Angle    = EndPoint1.angle;
     718:	20 91 22 02 	lds	r18, 0x0222
     71c:	40 91 23 02 	lds	r20, 0x0223
     720:	82 2f       	mov	r24, r18
     722:	94 2f       	mov	r25, r20
     724:	a0 91 24 02 	lds	r26, 0x0224
     728:	b0 91 25 02 	lds	r27, 0x0225
     72c:	cd 01       	movw	r24, r26
     72e:	aa 27       	eor	r26, r26
     730:	bb 27       	eor	r27, r27
     732:	59 2f       	mov	r21, r25
     734:	32 2f       	mov	r19, r18
     736:	20 91 27 02 	lds	r18, 0x0227
     73a:	90 91 26 02 	lds	r25, 0x0226
     73e:	c8 cf       	rjmp	.-112    	; 0x6d0 <_Z13can_prep_stopP4sCANh+0x38>

00000740 <_Z16can_file_messageP4sCAN>:
#define ID_MOVE_TO_ANGLE				0x0042		 Instance goes with intended Receiver
#define ID_MOVE_SPEED					0x0043
#define ID_SET_MAX_MOTOR_ACCEL			0x0044		*/

void can_file_message( sCAN* mMsg )
{
     740:	cf 93       	push	r28
     742:	df 93       	push	r29
     744:	ec 01       	movw	r28, r24
	if ( match( mMsg->id, 	create_CAN_eid(ID_MARK_MOTOR_STOP, MyInstance)) )
     746:	80 e4       	ldi	r24, 0x40	; 64
     748:	90 e0       	ldi	r25, 0x00	; 0
     74a:	60 91 c2 02 	lds	r22, 0x02C2
     74e:	0e 94 ff 13 	call	0x27fe	; 0x27fe <_Z14create_CAN_eidth>
     752:	9b 01       	movw	r18, r22
     754:	ac 01       	movw	r20, r24
     756:	68 81       	ld	r22, Y
     758:	79 81       	ldd	r23, Y+1	; 0x01
     75a:	8a 81       	ldd	r24, Y+2	; 0x02
     75c:	9b 81       	ldd	r25, Y+3	; 0x03
     75e:	0e 94 13 14 	call	0x2826	; 0x2826 <_Z5match6idTypeS_>
     762:	88 23       	and	r24, r24
     764:	e1 f0       	breq	.+56     	; 0x79e <_Z16can_file_messageP4sCAN+0x5e>
	{
		// data[0] == [0x1x] means report on the mark stop.
		if ( (mMsg->data[0] & 0x10) == 0x10) 	// READ?
     766:	8d 81       	ldd	r24, Y+5	; 0x05
     768:	84 fd       	sbrc	r24, 4
     76a:	09 c0       	rjmp	.+18     	; 0x77e <_Z16can_file_messageP4sCAN+0x3e>
			can_prep_stop( &msg1, 1 ); 
			can_prep_stop( &msg2, 2 );
			System_Send_Status=0x03;		// buff 1 & 2
		} else {
			// The request has been to set "mark" a stop.
			can_proc_set_stop_msg( mMsg );
     76c:	ce 01       	movw	r24, r28
     76e:	0e 94 fb 01 	call	0x3f6	; 0x3f6 <_Z21can_proc_set_stop_msgP4sCAN>
			System_Send_Status = 0x10;
     772:	80 e1       	ldi	r24, 0x10	; 16
     774:	80 93 cf 02 	sts	0x02CF, r24
	else if ( (isConfigured(MODE_TILT_RESPONDER)) && 
			  (id_match(mMsg->id, create_CAN_eid(ID_ACCEL_XYZ, 0)) ) )
	{
		can_proc_tilt_msg( mMsg );
	}
}
     778:	df 91       	pop	r29
     77a:	cf 91       	pop	r28
     77c:	08 95       	ret
	if ( match( mMsg->id, 	create_CAN_eid(ID_MARK_MOTOR_STOP, MyInstance)) )
	{
		// data[0] == [0x1x] means report on the mark stop.
		if ( (mMsg->data[0] & 0x10) == 0x10) 	// READ?
		{
			can_prep_stop( &msg1, 1 ); 
     77e:	87 e8       	ldi	r24, 0x87	; 135
     780:	92 e0       	ldi	r25, 0x02	; 2
     782:	61 e0       	ldi	r22, 0x01	; 1
     784:	0e 94 4c 03 	call	0x698	; 0x698 <_Z13can_prep_stopP4sCANh>
			can_prep_stop( &msg2, 2 );
     788:	86 e9       	ldi	r24, 0x96	; 150
     78a:	92 e0       	ldi	r25, 0x02	; 2
     78c:	62 e0       	ldi	r22, 0x02	; 2
     78e:	0e 94 4c 03 	call	0x698	; 0x698 <_Z13can_prep_stopP4sCANh>
			System_Send_Status=0x03;		// buff 1 & 2
     792:	83 e0       	ldi	r24, 0x03	; 3
     794:	80 93 cf 02 	sts	0x02CF, r24
	else if ( (isConfigured(MODE_TILT_RESPONDER)) && 
			  (id_match(mMsg->id, create_CAN_eid(ID_ACCEL_XYZ, 0)) ) )
	{
		can_proc_tilt_msg( mMsg );
	}
}
     798:	df 91       	pop	r29
     79a:	cf 91       	pop	r28
     79c:	08 95       	ret
			can_proc_set_stop_msg( mMsg );
			System_Send_Status = 0x10;
			// Save EEPROM occurs in time slice function!
		}
	}
	else if ( match(mMsg->id, create_CAN_eid(ID_MOVE_TO_ANGLE, MyInstance)) )
     79e:	81 e4       	ldi	r24, 0x41	; 65
     7a0:	90 e0       	ldi	r25, 0x00	; 0
     7a2:	60 91 c2 02 	lds	r22, 0x02C2
     7a6:	0e 94 ff 13 	call	0x27fe	; 0x27fe <_Z14create_CAN_eidth>
     7aa:	9b 01       	movw	r18, r22
     7ac:	ac 01       	movw	r20, r24
     7ae:	68 81       	ld	r22, Y
     7b0:	79 81       	ldd	r23, Y+1	; 0x01
     7b2:	8a 81       	ldd	r24, Y+2	; 0x02
     7b4:	9b 81       	ldd	r25, Y+3	; 0x03
     7b6:	0e 94 13 14 	call	0x2826	; 0x2826 <_Z5match6idTypeS_>
     7ba:	88 23       	and	r24, r24
     7bc:	09 f0       	breq	.+2      	; 0x7c0 <_Z16can_file_messageP4sCAN+0x80>
     7be:	4e c0       	rjmp	.+156    	; 0x85c <_Z16can_file_messageP4sCAN+0x11c>
	{
		// includes a speed:
		can_proc_move_to_angle_msg( mMsg );
		MotorState = MOTOR_REQUEST_PENDING;
	}
	else if ( match(mMsg->id, create_CAN_eid(ID_MOVE_SPEED, MyInstance)) )	
     7c0:	82 e4       	ldi	r24, 0x42	; 66
     7c2:	90 e0       	ldi	r25, 0x00	; 0
     7c4:	60 91 c2 02 	lds	r22, 0x02C2
     7c8:	0e 94 ff 13 	call	0x27fe	; 0x27fe <_Z14create_CAN_eidth>
     7cc:	9b 01       	movw	r18, r22
     7ce:	ac 01       	movw	r20, r24
     7d0:	68 81       	ld	r22, Y
     7d2:	79 81       	ldd	r23, Y+1	; 0x01
     7d4:	8a 81       	ldd	r24, Y+2	; 0x02
     7d6:	9b 81       	ldd	r25, Y+3	; 0x03
     7d8:	0e 94 13 14 	call	0x2826	; 0x2826 <_Z5match6idTypeS_>
     7dc:	88 23       	and	r24, r24
     7de:	09 f0       	breq	.+2      	; 0x7e2 <_Z16can_file_messageP4sCAN+0xa2>
     7e0:	46 c0       	rjmp	.+140    	; 0x86e <_Z16can_file_messageP4sCAN+0x12e>
	{
		can_proc_move_speed_msg( mMsg );
		MotorState = MOTOR_REQUEST_PENDING;
	} 
	else if ( match(mMsg->id, create_CAN_eid(ID_STOP_MOTOR, MyInstance)) )
     7e2:	8b e4       	ldi	r24, 0x4B	; 75
     7e4:	90 e0       	ldi	r25, 0x00	; 0
     7e6:	60 91 c2 02 	lds	r22, 0x02C2
     7ea:	0e 94 ff 13 	call	0x27fe	; 0x27fe <_Z14create_CAN_eidth>
     7ee:	9b 01       	movw	r18, r22
     7f0:	ac 01       	movw	r20, r24
     7f2:	68 81       	ld	r22, Y
     7f4:	79 81       	ldd	r23, Y+1	; 0x01
     7f6:	8a 81       	ldd	r24, Y+2	; 0x02
     7f8:	9b 81       	ldd	r25, Y+3	; 0x03
     7fa:	0e 94 13 14 	call	0x2826	; 0x2826 <_Z5match6idTypeS_>
     7fe:	88 23       	and	r24, r24
     800:	09 f4       	brne	.+2      	; 0x804 <_Z16can_file_messageP4sCAN+0xc4>
     802:	40 c0       	rjmp	.+128    	; 0x884 <_Z16can_file_messageP4sCAN+0x144>
	return floater.value;
}
word extract_word_be( byte* mData )
{
	long int retval = 0;
	retval |= (mData[0]<<8);
     804:	7d 81       	ldd	r23, Y+5	; 0x05
     806:	60 e0       	ldi	r22, 0x00	; 0
     808:	88 27       	eor	r24, r24
     80a:	77 fd       	sbrc	r23, 7
     80c:	80 95       	com	r24
     80e:	98 2f       	mov	r25, r24
	retval |= mData[1];
     810:	2e 81       	ldd	r18, Y+6	; 0x06
     812:	30 e0       	ldi	r19, 0x00	; 0
     814:	40 e0       	ldi	r20, 0x00	; 0
     816:	50 e0       	ldi	r21, 0x00	; 0
     818:	62 2b       	or	r22, r18
     81a:	73 2b       	or	r23, r19
     81c:	84 2b       	or	r24, r20
     81e:	95 2b       	or	r25, r21
}

void can_proc_stop_motor_msg( sCAN* mMsg )
{
	short brake = extract_word_be( &(mMsg->data[0])  );
	Destination.speed = fabs(((float)brake / 10000.0));
     820:	88 27       	eor	r24, r24
     822:	77 fd       	sbrc	r23, 7
     824:	80 95       	com	r24
     826:	98 2f       	mov	r25, r24
     828:	0e 94 84 20 	call	0x4108	; 0x4108 <__floatsisf>
     82c:	20 e0       	ldi	r18, 0x00	; 0
     82e:	30 e4       	ldi	r19, 0x40	; 64
     830:	4c e1       	ldi	r20, 0x1C	; 28
     832:	56 e4       	ldi	r21, 0x46	; 70
     834:	0e 94 46 1f 	call	0x3e8c	; 0x3e8c <__divsf3>
     838:	9f 77       	andi	r25, 0x7F	; 127
     83a:	60 93 53 02 	sts	0x0253, r22
     83e:	70 93 54 02 	sts	0x0254, r23
     842:	80 93 55 02 	sts	0x0255, r24
     846:	90 93 56 02 	sts	0x0256, r25

	/* We can have coast (both directions low) with a duty cycle.
	   Coast with 100% on, is most gradual coast.
	   Coast with  50% on, cuts down on the recirculation current.	*/
	if (mMsg->data[2] == 0)
     84a:	8f 81       	ldd	r24, Y+7	; 0x07
     84c:	88 23       	and	r24, r24
     84e:	b1 f0       	breq	.+44     	; 0x87c <_Z16can_file_messageP4sCAN+0x13c>
		Destination.coast = HARD_STOP_MOTOR;		// STOP
	else 
		Destination.coast = mMsg->data[2];
     850:	80 93 5b 02 	sts	0x025B, r24
		MotorState = MOTOR_REQUEST_PENDING;
	} 
	else if ( match(mMsg->id, create_CAN_eid(ID_MOVE_DUAL_SPEED, MyInstance)) )	
	{
		can_proc_move_dual_speed_msg( mMsg );
		MotorState = MOTOR_REQUEST_PENDING;
     854:	8a e0       	ldi	r24, 0x0A	; 10
     856:	80 93 38 02 	sts	0x0238, r24
     85a:	8e cf       	rjmp	.-228    	; 0x778 <_Z16can_file_messageP4sCAN+0x38>
		}
	}
	else if ( match(mMsg->id, create_CAN_eid(ID_MOVE_TO_ANGLE, MyInstance)) )
	{
		// includes a speed:
		can_proc_move_to_angle_msg( mMsg );
     85c:	ce 01       	movw	r24, r28
     85e:	0e 94 48 02 	call	0x490	; 0x490 <_Z26can_proc_move_to_angle_msgP4sCAN>
		MotorState = MOTOR_REQUEST_PENDING;
     862:	8a e0       	ldi	r24, 0x0A	; 10
     864:	80 93 38 02 	sts	0x0238, r24
	else if ( (isConfigured(MODE_TILT_RESPONDER)) && 
			  (id_match(mMsg->id, create_CAN_eid(ID_ACCEL_XYZ, 0)) ) )
	{
		can_proc_tilt_msg( mMsg );
	}
}
     868:	df 91       	pop	r29
     86a:	cf 91       	pop	r28
     86c:	08 95       	ret
		can_proc_move_to_angle_msg( mMsg );
		MotorState = MOTOR_REQUEST_PENDING;
	}
	else if ( match(mMsg->id, create_CAN_eid(ID_MOVE_SPEED, MyInstance)) )	
	{
		can_proc_move_speed_msg( mMsg );
     86e:	ce 01       	movw	r24, r28
     870:	0e 94 7a 02 	call	0x4f4	; 0x4f4 <_Z23can_proc_move_speed_msgP4sCAN>
		MotorState = MOTOR_REQUEST_PENDING;
     874:	8a e0       	ldi	r24, 0x0A	; 10
     876:	80 93 38 02 	sts	0x0238, r24
     87a:	7e cf       	rjmp	.-260    	; 0x778 <_Z16can_file_messageP4sCAN+0x38>

	/* We can have coast (both directions low) with a duty cycle.
	   Coast with 100% on, is most gradual coast.
	   Coast with  50% on, cuts down on the recirculation current.	*/
	if (mMsg->data[2] == 0)
		Destination.coast = HARD_STOP_MOTOR;		// STOP
     87c:	83 e6       	ldi	r24, 0x63	; 99
     87e:	80 93 5b 02 	sts	0x025B, r24
     882:	e8 cf       	rjmp	.-48     	; 0x854 <_Z16can_file_messageP4sCAN+0x114>
	else if ( match(mMsg->id, create_CAN_eid(ID_STOP_MOTOR, MyInstance)) )
	{
		can_proc_stop_motor_msg( mMsg );
		MotorState = MOTOR_REQUEST_PENDING;
	} 
	else if ( match(mMsg->id, create_CAN_eid(ID_MOVE_DUAL_SPEED, MyInstance)) )	
     884:	84 e4       	ldi	r24, 0x44	; 68
     886:	90 e0       	ldi	r25, 0x00	; 0
     888:	60 91 c2 02 	lds	r22, 0x02C2
     88c:	0e 94 ff 13 	call	0x27fe	; 0x27fe <_Z14create_CAN_eidth>
     890:	9b 01       	movw	r18, r22
     892:	ac 01       	movw	r20, r24
     894:	68 81       	ld	r22, Y
     896:	79 81       	ldd	r23, Y+1	; 0x01
     898:	8a 81       	ldd	r24, Y+2	; 0x02
     89a:	9b 81       	ldd	r25, Y+3	; 0x03
     89c:	0e 94 13 14 	call	0x2826	; 0x2826 <_Z5match6idTypeS_>
     8a0:	88 23       	and	r24, r24
     8a2:	09 f4       	brne	.+2      	; 0x8a6 <_Z16can_file_messageP4sCAN+0x166>
     8a4:	45 c0       	rjmp	.+138    	; 0x930 <_Z16can_file_messageP4sCAN+0x1f0>
	return floater.value;
}
word extract_word_be( byte* mData )
{
	long int retval = 0;
	retval |= (mData[0]<<8);
     8a6:	7d 81       	ldd	r23, Y+5	; 0x05
     8a8:	60 e0       	ldi	r22, 0x00	; 0
     8aa:	88 27       	eor	r24, r24
     8ac:	77 fd       	sbrc	r23, 7
     8ae:	80 95       	com	r24
     8b0:	98 2f       	mov	r25, r24
	retval |= mData[1];
     8b2:	2e 81       	ldd	r18, Y+6	; 0x06
     8b4:	30 e0       	ldi	r19, 0x00	; 0
     8b6:	40 e0       	ldi	r20, 0x00	; 0
     8b8:	50 e0       	ldi	r21, 0x00	; 0
     8ba:	62 2b       	or	r22, r18
     8bc:	73 2b       	or	r23, r19
     8be:	84 2b       	or	r24, r20
     8c0:	95 2b       	or	r25, r21

void can_proc_move_dual_speed_msg( sCAN* mMsg )
{
	// Value is a number -0.0 to 100.0  * 100  == [0..10000]
	short speed = extract_word_be( &(mMsg->data[0]) );
	Destination.speed = ((float)speed / 10000.0);		// speed is a float
     8c2:	88 27       	eor	r24, r24
     8c4:	77 fd       	sbrc	r23, 7
     8c6:	80 95       	com	r24
     8c8:	98 2f       	mov	r25, r24
     8ca:	0e 94 84 20 	call	0x4108	; 0x4108 <__floatsisf>
     8ce:	20 e0       	ldi	r18, 0x00	; 0
     8d0:	30 e4       	ldi	r19, 0x40	; 64
     8d2:	4c e1       	ldi	r20, 0x1C	; 28
     8d4:	56 e4       	ldi	r21, 0x46	; 70
     8d6:	0e 94 46 1f 	call	0x3e8c	; 0x3e8c <__divsf3>
     8da:	60 93 53 02 	sts	0x0253, r22
     8de:	70 93 54 02 	sts	0x0254, r23
     8e2:	80 93 55 02 	sts	0x0255, r24
     8e6:	90 93 56 02 	sts	0x0256, r25
	return floater.value;
}
word extract_word_be( byte* mData )
{
	long int retval = 0;
	retval |= (mData[0]<<8);
     8ea:	7f 81       	ldd	r23, Y+7	; 0x07
     8ec:	60 e0       	ldi	r22, 0x00	; 0
     8ee:	88 27       	eor	r24, r24
     8f0:	77 fd       	sbrc	r23, 7
     8f2:	80 95       	com	r24
     8f4:	98 2f       	mov	r25, r24
	retval |= mData[1];
     8f6:	28 85       	ldd	r18, Y+8	; 0x08
     8f8:	30 e0       	ldi	r19, 0x00	; 0
     8fa:	40 e0       	ldi	r20, 0x00	; 0
     8fc:	50 e0       	ldi	r21, 0x00	; 0
     8fe:	62 2b       	or	r22, r18
     900:	73 2b       	or	r23, r19
     902:	84 2b       	or	r24, r20
     904:	95 2b       	or	r25, r21
	// Value is a number -0.0 to 100.0  * 100  == [0..10000]
	short speed = extract_word_be( &(mMsg->data[0]) );
	Destination.speed = ((float)speed / 10000.0);		// speed is a float

	speed = extract_word_be( &(mMsg->data[2]) );
	Destination.speed2 = ((float)speed / 10000.0);
     906:	88 27       	eor	r24, r24
     908:	77 fd       	sbrc	r23, 7
     90a:	80 95       	com	r24
     90c:	98 2f       	mov	r25, r24
     90e:	0e 94 84 20 	call	0x4108	; 0x4108 <__floatsisf>
     912:	20 e0       	ldi	r18, 0x00	; 0
     914:	30 e4       	ldi	r19, 0x40	; 64
     916:	4c e1       	ldi	r20, 0x1C	; 28
     918:	56 e4       	ldi	r21, 0x46	; 70
     91a:	0e 94 46 1f 	call	0x3e8c	; 0x3e8c <__divsf3>
     91e:	60 93 57 02 	sts	0x0257, r22
     922:	70 93 58 02 	sts	0x0258, r23
     926:	80 93 59 02 	sts	0x0259, r24
     92a:	90 93 5a 02 	sts	0x025A, r25
     92e:	92 cf       	rjmp	.-220    	; 0x854 <_Z16can_file_messageP4sCAN+0x114>
	else if ( match(mMsg->id, create_CAN_eid(ID_MOVE_DUAL_SPEED, MyInstance)) )	
	{
		can_proc_move_dual_speed_msg( mMsg );
		MotorState = MOTOR_REQUEST_PENDING;
	} 
	else if ( match(mMsg->id, create_CAN_eid(ID_SET_MAX_MOTOR_ACCEL, MyInstance)) )
     930:	83 e4       	ldi	r24, 0x43	; 67
     932:	90 e0       	ldi	r25, 0x00	; 0
     934:	60 91 c2 02 	lds	r22, 0x02C2
     938:	0e 94 ff 13 	call	0x27fe	; 0x27fe <_Z14create_CAN_eidth>
     93c:	9b 01       	movw	r18, r22
     93e:	ac 01       	movw	r20, r24
     940:	68 81       	ld	r22, Y
     942:	79 81       	ldd	r23, Y+1	; 0x01
     944:	8a 81       	ldd	r24, Y+2	; 0x02
     946:	9b 81       	ldd	r25, Y+3	; 0x03
     948:	0e 94 13 14 	call	0x2826	; 0x2826 <_Z5match6idTypeS_>
     94c:	88 23       	and	r24, r24
     94e:	09 f0       	breq	.+2      	; 0x952 <_Z16can_file_messageP4sCAN+0x212>
     950:	13 cf       	rjmp	.-474    	; 0x778 <_Z16can_file_messageP4sCAN+0x38>
extern byte config_byte_2 ;
extern byte config_byte_3 ;
extern byte config_byte_4 ;
extern byte sys_config_byte;

inline byte isConfigured (byte Test)	{  return ((config_byte_1 & Test)>0); };
     952:	80 91 3f 03 	lds	r24, 0x033F
	{
		can_proc_max_acceleration_msg( mMsg );
	}
	else if ( (isConfigured(MODE_TILT_RESPONDER)) && 
     956:	84 ff       	sbrs	r24, 4
     958:	0f cf       	rjmp	.-482    	; 0x778 <_Z16can_file_messageP4sCAN+0x38>
			  (id_match(mMsg->id, create_CAN_eid(ID_ACCEL_XYZ, 0)) ) )
     95a:	81 e7       	ldi	r24, 0x71	; 113
     95c:	90 e0       	ldi	r25, 0x00	; 0
     95e:	60 e0       	ldi	r22, 0x00	; 0
     960:	0e 94 ff 13 	call	0x27fe	; 0x27fe <_Z14create_CAN_eidth>
     964:	9b 01       	movw	r18, r22
     966:	ac 01       	movw	r20, r24
     968:	68 81       	ld	r22, Y
     96a:	79 81       	ldd	r23, Y+1	; 0x01
     96c:	8a 81       	ldd	r24, Y+2	; 0x02
     96e:	9b 81       	ldd	r25, Y+3	; 0x03
     970:	0e 94 20 14 	call	0x2840	; 0x2840 <_Z8id_match6idTypeS_>
	} 
	else if ( match(mMsg->id, create_CAN_eid(ID_SET_MAX_MOTOR_ACCEL, MyInstance)) )
	{
		can_proc_max_acceleration_msg( mMsg );
	}
	else if ( (isConfigured(MODE_TILT_RESPONDER)) && 
     974:	88 23       	and	r24, r24
     976:	09 f4       	brne	.+2      	; 0x97a <_Z16can_file_messageP4sCAN+0x23a>
     978:	ff ce       	rjmp	.-514    	; 0x778 <_Z16can_file_messageP4sCAN+0x38>
#define KConst 0.25
void can_proc_tilt_msg( sCAN* mMsg )
{
	byte yh  = mMsg->data[3];
	byte yl  = mMsg->data[2];
	short y1  = ((yh<<8) | yl);
     97a:	98 85       	ldd	r25, Y+8	; 0x08
     97c:	80 e0       	ldi	r24, 0x00	; 0
     97e:	6f 81       	ldd	r22, Y+7	; 0x07
     980:	70 e0       	ldi	r23, 0x00	; 0
     982:	68 2b       	or	r22, r24
     984:	79 2b       	or	r23, r25
	float y2 = ((float)y1 / (16535.0));
     986:	88 27       	eor	r24, r24
     988:	77 fd       	sbrc	r23, 7
     98a:	80 95       	com	r24
     98c:	98 2f       	mov	r25, r24
     98e:	0e 94 84 20 	call	0x4108	; 0x4108 <__floatsisf>
     992:	20 e0       	ldi	r18, 0x00	; 0
     994:	3e e2       	ldi	r19, 0x2E	; 46
     996:	41 e8       	ldi	r20, 0x81	; 129
     998:	56 e4       	ldi	r21, 0x46	; 70
     99a:	0e 94 46 1f 	call	0x3e8c	; 0x3e8c <__divsf3>
     99e:	9b 01       	movw	r18, r22
     9a0:	ac 01       	movw	r20, r24
	// multiply by proportionality constant

	// We don't actually set the motor duty here, because we don't know if it's in a stop region
	// or under influence of some other condition (ie pid mode, etc).  So we queue up a 
	// request and let the timeslice deal with it.
	MotorState 		 	  = MOTOR_REQUEST_PENDING;
     9a2:	8a e0       	ldi	r24, 0x0A	; 10
     9a4:	80 93 38 02 	sts	0x0238, r24
	Destination.speed     = fabs(y2);
     9a8:	da 01       	movw	r26, r20
     9aa:	c9 01       	movw	r24, r18
     9ac:	bf 77       	andi	r27, 0x7F	; 127
     9ae:	80 93 53 02 	sts	0x0253, r24
     9b2:	90 93 54 02 	sts	0x0254, r25
     9b6:	a0 93 55 02 	sts	0x0255, r26
     9ba:	b0 93 56 02 	sts	0x0256, r27
	Destination.direction = (y2 > 0);
     9be:	c1 e0       	ldi	r28, 0x01	; 1
     9c0:	ca 01       	movw	r24, r20
     9c2:	b9 01       	movw	r22, r18
     9c4:	20 e0       	ldi	r18, 0x00	; 0
     9c6:	30 e0       	ldi	r19, 0x00	; 0
     9c8:	a9 01       	movw	r20, r18
     9ca:	0e 94 f4 1f 	call	0x3fe8	; 0x3fe8 <__gtsf2>
     9ce:	18 16       	cp	r1, r24
     9d0:	1c f4       	brge	.+6      	; 0x9d8 <_Z16can_file_messageP4sCAN+0x298>
     9d2:	c0 93 52 02 	sts	0x0252, r28
     9d6:	d0 ce       	rjmp	.-608    	; 0x778 <_Z16can_file_messageP4sCAN+0x38>
     9d8:	c0 e0       	ldi	r28, 0x00	; 0
     9da:	fb cf       	rjmp	.-10     	; 0x9d2 <_Z16can_file_messageP4sCAN+0x292>

000009dc <_Z20can_prep_motor_angleP4sCAN>:
    mMsg->header.DLC = 7;
    mMsg->header.rtr = 0;
}

void can_prep_motor_angle( sCAN* mMsg )
{
     9dc:	cf 93       	push	r28
     9de:	df 93       	push	r29
     9e0:	ec 01       	movw	r28, r24
	byte size = 4;
    mMsg->id = create_CAN_eid( ID_MOTOR_ANGLE, MyInstance );
     9e2:	86 e4       	ldi	r24, 0x46	; 70
     9e4:	90 e0       	ldi	r25, 0x00	; 0
     9e6:	60 91 c2 02 	lds	r22, 0x02C2
     9ea:	0e 94 ff 13 	call	0x27fe	; 0x27fe <_Z14create_CAN_eidth>
     9ee:	68 83       	st	Y, r22
     9f0:	79 83       	std	Y+1, r23	; 0x01
     9f2:	8a 83       	std	Y+2, r24	; 0x02
     9f4:	9b 83       	std	Y+3, r25	; 0x03

	// FILL CURRENT ANGLE :
	// Fixed point, 
	float_array Angle; 
	Angle.value = get_motor_angle();
     9f6:	0e 94 3b 08 	call	0x1076	; 0x1076 <_Z15get_motor_anglev>
	for (int i=0; i<size; i++)
	    mMsg->data[i] = Angle.array[i];
     9fa:	6d 83       	std	Y+5, r22	; 0x05
     9fc:	7e 83       	std	Y+6, r23	; 0x06
     9fe:	8f 83       	std	Y+7, r24	; 0x07
     a00:	98 87       	std	Y+8, r25	; 0x08
	mMsg->data[size+0] = hi(CurrentAvg);
	mMsg->data[size+1] = lo(CurrentAvg); */

	// Make (TENTH DEG/SEC) ANGLE SPEED INSTEAD!!!!!:
	//short TenthDegSec = PotSpeed[1]
	mMsg->data[size+0] = hi(PotSpeed[1]);
     a02:	80 91 3b 02 	lds	r24, 0x023B
     a06:	90 91 3c 02 	lds	r25, 0x023C
     a0a:	99 87       	std	Y+9, r25	; 0x09
	mMsg->data[size+1] = lo(PotSpeed[1]);
     a0c:	8a 87       	std	Y+10, r24	; 0x0a

    mMsg->header.DLC = size+2;
     a0e:	8c 81       	ldd	r24, Y+4	; 0x04
     a10:	80 7e       	andi	r24, 0xE0	; 224
    mMsg->header.rtr = 0;
     a12:	8c 60       	ori	r24, 0x0C	; 12
     a14:	8c 83       	std	Y+4, r24	; 0x04
}
     a16:	df 91       	pop	r29
     a18:	cf 91       	pop	r28
     a1a:	08 95       	ret

00000a1c <_Z25can_prep_motor_values_rawP4sCAN>:

/* Reports: Position, Speed, and electrical Current draw */
void can_prep_motor_values_raw( sCAN* mMsg )
{
     a1c:	af 92       	push	r10
     a1e:	bf 92       	push	r11
     a20:	cf 92       	push	r12
     a22:	df 92       	push	r13
     a24:	ef 92       	push	r14
     a26:	ff 92       	push	r15
     a28:	0f 93       	push	r16
     a2a:	1f 93       	push	r17
     a2c:	cf 93       	push	r28
     a2e:	df 93       	push	r29
     a30:	ec 01       	movw	r28, r24
    mMsg->id 	  = create_CAN_eid( 0x00, ID_MOTOR_VALUE, MyInstance );
     a32:	80 e0       	ldi	r24, 0x00	; 0
     a34:	67 e4       	ldi	r22, 0x47	; 71
     a36:	70 e0       	ldi	r23, 0x00	; 0
     a38:	40 91 c2 02 	lds	r20, 0x02C2
     a3c:	0e 94 05 14 	call	0x280a	; 0x280a <_Z14create_CAN_eidhth>
     a40:	68 83       	st	Y, r22
     a42:	79 83       	std	Y+1, r23	; 0x01
     a44:	8a 83       	std	Y+2, r24	; 0x02
     a46:	9b 83       	std	Y+3, r25	; 0x03
     a48:	80 91 3f 03 	lds	r24, 0x033F
    word position = 0;        
    short speed = 0;
	if (isConfigured(MODE_USE_ENCODER))  {
     a4c:	80 ff       	sbrs	r24, 0
     a4e:	65 c0       	rjmp	.+202    	; 0xb1a <_Z25can_prep_motor_values_rawP4sCAN+0xfe>
		position = EncoderCount;
     a50:	20 91 64 02 	lds	r18, 0x0264
     a54:	30 91 65 02 	lds	r19, 0x0265
		speed    = EncoderSpeed;
     a58:	80 91 66 02 	lds	r24, 0x0266
     a5c:	90 91 67 02 	lds	r25, 0x0267
		position = PotSample[1];
		speed    = PotSpeed[1];
	}

	// POSITION
	mMsg->data[0] = hi( position );
     a60:	3d 83       	std	Y+5, r19	; 0x05
	mMsg->data[1] = lo( position );
     a62:	2e 83       	std	Y+6, r18	; 0x06

	// SPEED
	mMsg->data[2] = hi(speed);
     a64:	9f 83       	std	Y+7, r25	; 0x07
	mMsg->data[3] = lo(speed);
     a66:	88 87       	std	Y+8, r24	; 0x08

	// MOTOR CURRENT:
	//  (Larger of left/right) (in Amps*10):
	word CurrentAvg = max(LeftCurrentSampleAvg*10, 
     a68:	60 91 71 02 	lds	r22, 0x0271
     a6c:	70 91 72 02 	lds	r23, 0x0272
     a70:	80 91 73 02 	lds	r24, 0x0273
     a74:	90 91 74 02 	lds	r25, 0x0274
     a78:	20 e0       	ldi	r18, 0x00	; 0
     a7a:	30 e0       	ldi	r19, 0x00	; 0
     a7c:	40 e2       	ldi	r20, 0x20	; 32
     a7e:	51 e4       	ldi	r21, 0x41	; 65
     a80:	0e 94 4c 1e 	call	0x3c98	; 0x3c98 <__mulsf3>
     a84:	d6 2e       	mov	r13, r22
     a86:	c7 2e       	mov	r12, r23
     a88:	b8 2e       	mov	r11, r24
     a8a:	a9 2e       	mov	r10, r25
     a8c:	60 91 75 02 	lds	r22, 0x0275
     a90:	70 91 76 02 	lds	r23, 0x0276
     a94:	80 91 77 02 	lds	r24, 0x0277
     a98:	90 91 78 02 	lds	r25, 0x0278
     a9c:	20 e0       	ldi	r18, 0x00	; 0
     a9e:	30 e0       	ldi	r19, 0x00	; 0
     aa0:	40 e2       	ldi	r20, 0x20	; 32
     aa2:	51 e4       	ldi	r21, 0x41	; 65
     aa4:	0e 94 4c 1e 	call	0x3c98	; 0x3c98 <__mulsf3>
     aa8:	16 2f       	mov	r17, r22
     aaa:	07 2f       	mov	r16, r23
     aac:	f8 2e       	mov	r15, r24
     aae:	e9 2e       	mov	r14, r25
     ab0:	a6 01       	movw	r20, r12
     ab2:	95 01       	movw	r18, r10
     ab4:	65 2f       	mov	r22, r21
     ab6:	74 2f       	mov	r23, r20
     ab8:	83 2f       	mov	r24, r19
     aba:	92 2f       	mov	r25, r18
     abc:	d8 01       	movw	r26, r16
     abe:	f7 01       	movw	r30, r14
     ac0:	2b 2f       	mov	r18, r27
     ac2:	3a 2f       	mov	r19, r26
     ac4:	4f 2f       	mov	r20, r31
     ac6:	5e 2f       	mov	r21, r30
     ac8:	0e 94 f4 1f 	call	0x3fe8	; 0x3fe8 <__gtsf2>
     acc:	18 16       	cp	r1, r24
     ace:	74 f1       	brlt	.+92     	; 0xb2c <_Z25can_prep_motor_values_rawP4sCAN+0x110>
     ad0:	a8 01       	movw	r20, r16
     ad2:	97 01       	movw	r18, r14
     ad4:	65 2f       	mov	r22, r21
     ad6:	74 2f       	mov	r23, r20
     ad8:	83 2f       	mov	r24, r19
     ada:	92 2f       	mov	r25, r18
     adc:	0e 94 78 1c 	call	0x38f0	; 0x38f0 <__fixunssfsi>
						  RightCurrentSampleAvg*10 );
	mMsg->data[4] = hi(CurrentAvg);
     ae0:	79 87       	std	Y+9, r23	; 0x09
	mMsg->data[5] = lo(CurrentAvg);
     ae2:	6a 87       	std	Y+10, r22	; 0x0a

	// for DEBUG ONLY
	short RCurrentAvg = round(RightCurrentSampleAvg*10.); 
     ae4:	a8 01       	movw	r20, r16
     ae6:	97 01       	movw	r18, r14
     ae8:	65 2f       	mov	r22, r21
     aea:	70 2f       	mov	r23, r16
     aec:	83 2f       	mov	r24, r19
     aee:	9e 2d       	mov	r25, r14
     af0:	0e 94 8c 24 	call	0x4918	; 0x4918 <round>
     af4:	0e 94 e4 20 	call	0x41c8	; 0x41c8 <__fixsfsi>
	mMsg->data[6] = hi(RCurrentAvg);
     af8:	7b 87       	std	Y+11, r23	; 0x0b
	mMsg->data[7] = lo(RCurrentAvg);
     afa:	6c 87       	std	Y+12, r22	; 0x0c
	
    mMsg->header.DLC = 8;
     afc:	8c 81       	ldd	r24, Y+4	; 0x04
     afe:	80 7e       	andi	r24, 0xE0	; 224
    mMsg->header.rtr = 0;
     b00:	80 61       	ori	r24, 0x10	; 16
     b02:	8c 83       	std	Y+4, r24	; 0x04
}
     b04:	df 91       	pop	r29
     b06:	cf 91       	pop	r28
     b08:	1f 91       	pop	r17
     b0a:	0f 91       	pop	r16
     b0c:	ff 90       	pop	r15
     b0e:	ef 90       	pop	r14
     b10:	df 90       	pop	r13
     b12:	cf 90       	pop	r12
     b14:	bf 90       	pop	r11
     b16:	af 90       	pop	r10
     b18:	08 95       	ret
    short speed = 0;
	if (isConfigured(MODE_USE_ENCODER))  {
		position = EncoderCount;
		speed    = EncoderSpeed;
	} else {
		position = PotSample[1];
     b1a:	20 91 7f 02 	lds	r18, 0x027F
     b1e:	30 91 80 02 	lds	r19, 0x0280
		speed    = PotSpeed[1];
     b22:	80 91 3b 02 	lds	r24, 0x023B
     b26:	90 91 3c 02 	lds	r25, 0x023C
     b2a:	9a cf       	rjmp	.-204    	; 0xa60 <_Z25can_prep_motor_values_rawP4sCAN+0x44>
	mMsg->data[2] = hi(speed);
	mMsg->data[3] = lo(speed);

	// MOTOR CURRENT:
	//  (Larger of left/right) (in Amps*10):
	word CurrentAvg = max(LeftCurrentSampleAvg*10, 
     b2c:	a6 01       	movw	r20, r12
     b2e:	95 01       	movw	r18, r10
     b30:	d1 cf       	rjmp	.-94     	; 0xad4 <_Z25can_prep_motor_values_rawP4sCAN+0xb8>

00000b32 <_Z20can_prep_motor_speedP4sCAN11float_array>:
    mMsg->header.DLC = 8;
    mMsg->header.rtr = 0;
}

void can_prep_motor_speed( sCAN* mMsg, float_array mSpeed )
{
     b32:	0f 93       	push	r16
     b34:	1f 93       	push	r17
     b36:	df 93       	push	r29
     b38:	cf 93       	push	r28
     b3a:	00 d0       	rcall	.+0      	; 0xb3c <_Z20can_prep_motor_speedP4sCAN11float_array+0xa>
     b3c:	00 d0       	rcall	.+0      	; 0xb3e <_Z20can_prep_motor_speedP4sCAN11float_array+0xc>
     b3e:	cd b7       	in	r28, 0x3d	; 61
     b40:	de b7       	in	r29, 0x3e	; 62
     b42:	8c 01       	movw	r16, r24
     b44:	49 83       	std	Y+1, r20	; 0x01
     b46:	5a 83       	std	Y+2, r21	; 0x02
     b48:	6b 83       	std	Y+3, r22	; 0x03
     b4a:	7c 83       	std	Y+4, r23	; 0x04
    mMsg->id 	  = create_CAN_eid( 0x00, ID_MOTOR_SPEED, MyInstance );
     b4c:	80 e0       	ldi	r24, 0x00	; 0
     b4e:	68 e4       	ldi	r22, 0x48	; 72
     b50:	70 e0       	ldi	r23, 0x00	; 0
     b52:	40 91 c2 02 	lds	r20, 0x02C2
     b56:	0e 94 05 14 	call	0x280a	; 0x280a <_Z14create_CAN_eidhth>
     b5a:	f8 01       	movw	r30, r16
     b5c:	60 83       	st	Z, r22
     b5e:	71 83       	std	Z+1, r23	; 0x01
     b60:	82 83       	std	Z+2, r24	; 0x02
     b62:	93 83       	std	Z+3, r25	; 0x03
	if (config_byte_1 & MODE_USE_ENCODER)  {
     b64:	80 91 3f 03 	lds	r24, 0x033F
     b68:	80 fd       	sbrc	r24, 0
     b6a:	25 c0       	rjmp	.+74     	; 0xbb6 <_Z20can_prep_motor_speedP4sCAN11float_array+0x84>
		mMsg->data[0] = 2;	// 2 byte speed
		mMsg->data[1] = hi(EncoderSpeed);
		mMsg->data[2] = lo(EncoderSpeed);
		mMsg->header.DLC = 2;
	} else {
		mMsg->data[0] = size;
     b6c:	30 91 00 01 	lds	r19, 0x0100
     b70:	f8 01       	movw	r30, r16
     b72:	35 83       	std	Z+5, r19	; 0x05
		for (int i=0; i<size; i++)
     b74:	33 23       	and	r19, r19
     b76:	61 f0       	breq	.+24     	; 0xb90 <_Z20can_prep_motor_speedP4sCAN11float_array+0x5e>
     b78:	fe 01       	movw	r30, r28
     b7a:	31 96       	adiw	r30, 0x01	; 1
	
    mMsg->header.DLC = 8;
    mMsg->header.rtr = 0;
}

void can_prep_motor_speed( sCAN* mMsg, float_array mSpeed )
     b7c:	d8 01       	movw	r26, r16
     b7e:	16 96       	adiw	r26, 0x06	; 6
     b80:	cf 01       	movw	r24, r30
     b82:	83 0f       	add	r24, r19
     b84:	91 1d       	adc	r25, r1
		mMsg->data[2] = lo(EncoderSpeed);
		mMsg->header.DLC = 2;
	} else {
		mMsg->data[0] = size;
		for (int i=0; i<size; i++)
		    mMsg->data[i+1] = mSpeed.array[i];
     b86:	21 91       	ld	r18, Z+
     b88:	2d 93       	st	X+, r18
		mMsg->data[1] = hi(EncoderSpeed);
		mMsg->data[2] = lo(EncoderSpeed);
		mMsg->header.DLC = 2;
	} else {
		mMsg->data[0] = size;
		for (int i=0; i<size; i++)
     b8a:	e8 17       	cp	r30, r24
     b8c:	f9 07       	cpc	r31, r25
     b8e:	d9 f7       	brne	.-10     	; 0xb86 <_Z20can_prep_motor_speedP4sCAN11float_array+0x54>
		    mMsg->data[i+1] = mSpeed.array[i];
	    mMsg->header.DLC = size;
     b90:	3f 70       	andi	r19, 0x0F	; 15
     b92:	33 0f       	add	r19, r19
     b94:	f8 01       	movw	r30, r16
     b96:	84 81       	ldd	r24, Z+4	; 0x04
     b98:	81 7e       	andi	r24, 0xE1	; 225
     b9a:	83 2b       	or	r24, r19
     b9c:	84 83       	std	Z+4, r24	; 0x04
	}
    mMsg->header.rtr = 0;
     b9e:	8e 7f       	andi	r24, 0xFE	; 254
     ba0:	f8 01       	movw	r30, r16
     ba2:	84 83       	std	Z+4, r24	; 0x04
}
     ba4:	0f 90       	pop	r0
     ba6:	0f 90       	pop	r0
     ba8:	0f 90       	pop	r0
     baa:	0f 90       	pop	r0
     bac:	cf 91       	pop	r28
     bae:	df 91       	pop	r29
     bb0:	1f 91       	pop	r17
     bb2:	0f 91       	pop	r16
     bb4:	08 95       	ret

void can_prep_motor_speed( sCAN* mMsg, float_array mSpeed )
{
    mMsg->id 	  = create_CAN_eid( 0x00, ID_MOTOR_SPEED, MyInstance );
	if (config_byte_1 & MODE_USE_ENCODER)  {
		mMsg->data[0] = 2;	// 2 byte speed
     bb6:	82 e0       	ldi	r24, 0x02	; 2
     bb8:	85 83       	std	Z+5, r24	; 0x05
		mMsg->data[1] = hi(EncoderSpeed);
     bba:	80 91 66 02 	lds	r24, 0x0266
     bbe:	90 91 67 02 	lds	r25, 0x0267
     bc2:	96 83       	std	Z+6, r25	; 0x06
		mMsg->data[2] = lo(EncoderSpeed);
     bc4:	87 83       	std	Z+7, r24	; 0x07
		mMsg->header.DLC = 2;
     bc6:	84 81       	ldd	r24, Z+4	; 0x04
     bc8:	81 7e       	andi	r24, 0xE1	; 225
     bca:	84 60       	ori	r24, 0x04	; 4
     bcc:	84 83       	std	Z+4, r24	; 0x04
     bce:	e7 cf       	rjmp	.-50     	; 0xb9e <_Z20can_prep_motor_speedP4sCAN11float_array+0x6c>

00000bd0 <_Z20can_prep_motor_accelP4sCAN11float_array>:
    mMsg->header.rtr = 0;
}

/* size of a float IEEE single precision is usually 4 bytes */
void can_prep_motor_accel( sCAN* mMsg, float_array mAccel )
{
     bd0:	cf 93       	push	r28
     bd2:	df 93       	push	r29
     bd4:	ec 01       	movw	r28, r24
    mMsg->id 	  = create_CAN_eid( 0x00, ID_MOTOR_ACCEL, MyInstance );
     bd6:	80 e0       	ldi	r24, 0x00	; 0
     bd8:	69 e4       	ldi	r22, 0x49	; 73
     bda:	70 e0       	ldi	r23, 0x00	; 0
     bdc:	40 91 c2 02 	lds	r20, 0x02C2
     be0:	0e 94 05 14 	call	0x280a	; 0x280a <_Z14create_CAN_eidhth>
     be4:	68 83       	st	Y, r22
     be6:	79 83       	std	Y+1, r23	; 0x01
     be8:	8a 83       	std	Y+2, r24	; 0x02
     bea:	9b 83       	std	Y+3, r25	; 0x03
	if (config_byte_1 & MODE_USE_ENCODER)  {    
     bec:	80 91 3f 03 	lds	r24, 0x033F
     bf0:	80 fd       	sbrc	r24, 0
     bf2:	11 c0       	rjmp	.+34     	; 0xc16 <_Z20can_prep_motor_accelP4sCAN11float_array+0x46>
		mMsg->data[0] = hi(EncoderAcceleration);
		mMsg->data[1] = lo(EncoderAcceleration);
	} else {
   		mMsg->data[0] = hi(PotAcceleration[1]);
     bf4:	80 91 3f 02 	lds	r24, 0x023F
     bf8:	90 91 40 02 	lds	r25, 0x0240
     bfc:	9d 83       	std	Y+5, r25	; 0x05
   		mMsg->data[1] = lo(PotAcceleration[1]);
     bfe:	8e 83       	std	Y+6, r24	; 0x06
	}
    mMsg->header.DLC = size;
     c00:	90 91 00 01 	lds	r25, 0x0100
     c04:	9f 70       	andi	r25, 0x0F	; 15
     c06:	99 0f       	add	r25, r25
     c08:	8c 81       	ldd	r24, Y+4	; 0x04
     c0a:	80 7e       	andi	r24, 0xE0	; 224
    mMsg->header.rtr = 0;
     c0c:	89 2b       	or	r24, r25
     c0e:	8c 83       	std	Y+4, r24	; 0x04
}
     c10:	df 91       	pop	r29
     c12:	cf 91       	pop	r28
     c14:	08 95       	ret
/* size of a float IEEE single precision is usually 4 bytes */
void can_prep_motor_accel( sCAN* mMsg, float_array mAccel )
{
    mMsg->id 	  = create_CAN_eid( 0x00, ID_MOTOR_ACCEL, MyInstance );
	if (config_byte_1 & MODE_USE_ENCODER)  {    
		mMsg->data[0] = hi(EncoderAcceleration);
     c16:	80 91 68 02 	lds	r24, 0x0268
     c1a:	90 91 69 02 	lds	r25, 0x0269
     c1e:	9d 83       	std	Y+5, r25	; 0x05
		mMsg->data[1] = lo(EncoderAcceleration);
     c20:	8e 83       	std	Y+6, r24	; 0x06
     c22:	ee cf       	rjmp	.-36     	; 0xc00 <_Z20can_prep_motor_accelP4sCAN11float_array+0x30>

00000c24 <_Z21can_prep_motor_statusP4sCAN>:
    mMsg->header.DLC = size;
    mMsg->header.rtr = 0;
}

void can_prep_motor_status( sCAN* mMsg )
{
     c24:	cf 93       	push	r28
     c26:	df 93       	push	r29
     c28:	ec 01       	movw	r28, r24
    mMsg->id 	  = create_CAN_eid( 0x00, ID_MOTOR_STATUS, MyInstance );
     c2a:	80 e0       	ldi	r24, 0x00	; 0
     c2c:	6a e4       	ldi	r22, 0x4A	; 74
     c2e:	70 e0       	ldi	r23, 0x00	; 0
     c30:	40 91 c2 02 	lds	r20, 0x02C2
     c34:	0e 94 05 14 	call	0x280a	; 0x280a <_Z14create_CAN_eidhth>
     c38:	68 83       	st	Y, r22
     c3a:	79 83       	std	Y+1, r23	; 0x01
     c3c:	8a 83       	std	Y+2, r24	; 0x02
     c3e:	9b 83       	std	Y+3, r25	; 0x03
	/* Send status byte:  0=stopped, 1=forward, 2=backward, 3=in stop 1 region
							4=in stop 2 region, 5=OverTemp, 6=OverVoltage,
							8= Trouble Codes set,					*/
	mMsg->data[0] = MotorState;							
     c40:	80 91 38 02 	lds	r24, 0x0238
     c44:	8d 83       	std	Y+5, r24	; 0x05
    mMsg->header.DLC = 1;
     c46:	8c 81       	ldd	r24, Y+4	; 0x04
     c48:	80 7e       	andi	r24, 0xE0	; 224
    mMsg->header.rtr = 0;
     c4a:	82 60       	ori	r24, 0x02	; 2
     c4c:	8c 83       	std	Y+4, r24	; 0x04
}
     c4e:	df 91       	pop	r29
     c50:	cf 91       	pop	r28
     c52:	08 95       	ret

00000c54 <_Z25app_default_configurationv>:
	Only 1 time for the life of the board (or until it is reflashed)  
	To set the application defaults.		
 ***************************************************************/	
void app_default_configuration()
{
	config_byte_1 = 0x08;		// Free Spin.
     c54:	88 e0       	ldi	r24, 0x08	; 8
     c56:	80 93 3f 03 	sts	0x033F, r24
	config_byte_2 = 0;
     c5a:	10 92 40 03 	sts	0x0340, r1
	compute_default_stops();
     c5e:	0e 94 e4 0a 	call	0x15c8	; 0x15c8 <_Z21compute_default_stopsv>
	
	// Default Thresholds:
	current_1_threshold = 0x7FF;
     c62:	8f ef       	ldi	r24, 0xFF	; 255
     c64:	97 e0       	ldi	r25, 0x07	; 7
     c66:	90 93 02 01 	sts	0x0102, r25
     c6a:	80 93 01 01 	sts	0x0101, r24
	current_2_threshold = 0x7FF;
     c6e:	90 93 04 01 	sts	0x0104, r25
     c72:	80 93 03 01 	sts	0x0103, r24
}
     c76:	08 95       	ret

00000c78 <_Z13config_changeh>:

/* Callback for configuration change. */
void config_change( byte mByteChanged )
{
	if (mByteChanged==1)
     c78:	81 30       	cpi	r24, 0x01	; 1
     c7a:	09 f0       	breq	.+2      	; 0xc7e <_Z13config_changeh+0x6>
     c7c:	08 95       	ret
     c7e:	80 91 3f 03 	lds	r24, 0x033F
	{
		if (isConfigured(MODE_USE_ENCODER)) { 
     c82:	80 fd       	sbrc	r24, 0
     c84:	05 c0       	rjmp	.+10     	; 0xc90 <_Z13config_changeh+0x18>
			encoder_init();
		} else {
			encoder_disable();
     c86:	0e 94 22 0d 	call	0x1a44	; 0x1a44 <_Z15encoder_disablev>
		}

		// Update BaseFrequency (even if not changed)
		SetBaseFrequency();
     c8a:	0e 94 b0 07 	call	0xf60	; 0xf60 <_Z16SetBaseFrequencyv>
     c8e:	08 95       	ret
void config_change( byte mByteChanged )
{
	if (mByteChanged==1)
	{
		if (isConfigured(MODE_USE_ENCODER)) { 
			encoder_init();
     c90:	0e 94 14 0d 	call	0x1a28	; 0x1a28 <_Z12encoder_initv>
     c94:	fa cf       	rjmp	.-12     	; 0xc8a <_Z13config_changeh+0x12>

00000c96 <_Z17save_stops_eepromPh>:
Save both structures EndPoint1 & EndPoint2.
RETURN:		Last address written + 1 (ie. next available
			EEPROM address)
*******************************************************/
byte* save_stops_eeprom(byte* addr)
{
     c96:	9c 01       	movw	r18, r24
	byte size = sizeof(sEndPoint);

	// END POINT 1:
	byte* ptr = (byte*)&EndPoint1;
     c98:	e2 e2       	ldi	r30, 0x22	; 34
     c9a:	f2 e0       	ldi	r31, 0x02	; 2
     c9c:	ac 01       	movw	r20, r24
	for (int i=0; i<size; i++)
		eeprom_write_byte( addr++, *(ptr++) );
     c9e:	81 91       	ld	r24, Z+
/** \ingroup avr_eeprom
    Write a byte \a __value to EEPROM address \a __p.
 */
static __inline__ void eeprom_write_byte (uint8_t *__p, uint8_t __value)
{
    do {} while (!eeprom_is_ready ());
     ca0:	f9 99       	sbic	0x1f, 1	; 31
     ca2:	fe cf       	rjmp	.-4      	; 0xca0 <_Z17save_stops_eepromPh+0xa>

#if	defined(EEPM0) && defined(EEPM1)
    EECR = 0;		/* Set programming mode: erase and write.	*/
     ca4:	1f ba       	out	0x1f, r1	; 31
#endif

#if	E2END <= 0xFF
    EEARL = (unsigned)__p;
#else
    EEAR = (unsigned)__p;
     ca6:	52 bd       	out	0x22, r21	; 34
     ca8:	41 bd       	out	0x21, r20	; 33
#endif
    EEDR = __value;
     caa:	80 bd       	out	0x20, r24	; 32
        : [__eecr]  "i" (_SFR_IO_ADDR(EECR)),
          [__sreg]  "i" (_SFR_IO_ADDR(SREG)),
          [__eemwe] "i" (EEMWE),
          [__eewe]  "i" (EEWE)
        : "r0"
    );
     cac:	0f b6       	in	r0, 0x3f	; 63
     cae:	f8 94       	cli
     cb0:	fa 9a       	sbi	0x1f, 2	; 31
     cb2:	f9 9a       	sbi	0x1f, 1	; 31
     cb4:	0f be       	out	0x3f, r0	; 63
     cb6:	4f 5f       	subi	r20, 0xFF	; 255
     cb8:	5f 4f       	sbci	r21, 0xFF	; 255
{
	byte size = sizeof(sEndPoint);

	// END POINT 1:
	byte* ptr = (byte*)&EndPoint1;
	for (int i=0; i<size; i++)
     cba:	82 e0       	ldi	r24, 0x02	; 2
     cbc:	e8 32       	cpi	r30, 0x28	; 40
     cbe:	f8 07       	cpc	r31, r24
     cc0:	71 f7       	brne	.-36     	; 0xc9e <_Z17save_stops_eepromPh+0x8>
     cc2:	2a 5f       	subi	r18, 0xFA	; 250
     cc4:	3f 4f       	sbci	r19, 0xFF	; 255
		eeprom_write_byte( addr++, *(ptr++) );

	// END POINT 2:
	ptr = (byte*)&EndPoint2;
     cc6:	e8 e2       	ldi	r30, 0x28	; 40
     cc8:	f2 e0       	ldi	r31, 0x02	; 2
     cca:	a9 01       	movw	r20, r18
	for (int i=0; i<size; i++)
		eeprom_write_byte( addr++, *(ptr++) );	
     ccc:	81 91       	ld	r24, Z+
/** \ingroup avr_eeprom
    Write a byte \a __value to EEPROM address \a __p.
 */
static __inline__ void eeprom_write_byte (uint8_t *__p, uint8_t __value)
{
    do {} while (!eeprom_is_ready ());
     cce:	f9 99       	sbic	0x1f, 1	; 31
     cd0:	fe cf       	rjmp	.-4      	; 0xcce <_Z17save_stops_eepromPh+0x38>

#if	defined(EEPM0) && defined(EEPM1)
    EECR = 0;		/* Set programming mode: erase and write.	*/
     cd2:	1f ba       	out	0x1f, r1	; 31
#endif

#if	E2END <= 0xFF
    EEARL = (unsigned)__p;
#else
    EEAR = (unsigned)__p;
     cd4:	52 bd       	out	0x22, r21	; 34
     cd6:	41 bd       	out	0x21, r20	; 33
#endif
    EEDR = __value;
     cd8:	80 bd       	out	0x20, r24	; 32
        : [__eecr]  "i" (_SFR_IO_ADDR(EECR)),
          [__sreg]  "i" (_SFR_IO_ADDR(SREG)),
          [__eemwe] "i" (EEMWE),
          [__eewe]  "i" (EEWE)
        : "r0"
    );
     cda:	0f b6       	in	r0, 0x3f	; 63
     cdc:	f8 94       	cli
     cde:	fa 9a       	sbi	0x1f, 2	; 31
     ce0:	f9 9a       	sbi	0x1f, 1	; 31
     ce2:	0f be       	out	0x3f, r0	; 63
     ce4:	4f 5f       	subi	r20, 0xFF	; 255
     ce6:	5f 4f       	sbci	r21, 0xFF	; 255
	for (int i=0; i<size; i++)
		eeprom_write_byte( addr++, *(ptr++) );

	// END POINT 2:
	ptr = (byte*)&EndPoint2;
	for (int i=0; i<size; i++)
     ce8:	82 e0       	ldi	r24, 0x02	; 2
     cea:	ee 32       	cpi	r30, 0x2E	; 46
     cec:	f8 07       	cpc	r31, r24
     cee:	71 f7       	brne	.-36     	; 0xccc <_Z17save_stops_eepromPh+0x36>
     cf0:	2a 5f       	subi	r18, 0xFA	; 250
     cf2:	3f 4f       	sbci	r19, 0xFF	; 255
		eeprom_write_byte( addr++, *(ptr++) );	
	return addr;
}
     cf4:	c9 01       	movw	r24, r18
     cf6:	08 95       	ret

00000cf8 <_Z17read_stops_eepromPh>:

Reads both structures EndPoint1 & EndPoint2 from EEPROM, 
and stores into the RAM.
***********************************************************/
byte* read_stops_eeprom(byte* addr)
{
     cf8:	cf 93       	push	r28
     cfa:	df 93       	push	r29
     cfc:	9c 01       	movw	r18, r24
     cfe:	e2 e2       	ldi	r30, 0x22	; 34
     d00:	f2 e0       	ldi	r31, 0x02	; 2
/** \ingroup avr_eeprom
    Read one byte from EEPROM address \a __p.
 */
__ATTR_PURE__ static __inline__ uint8_t eeprom_read_byte (const uint8_t *__p)
{
    do {} while (!eeprom_is_ready ());
     d02:	f9 99       	sbic	0x1f, 1	; 31
     d04:	fe cf       	rjmp	.-4      	; 0xd02 <_Z17read_stops_eepromPh+0xa>
#if E2END <= 0xFF
    EEARL = (uint8_t)(uint16_t)__p;
#else
    EEAR = (uint16_t)__p;
     d06:	32 bd       	out	0x22, r19	; 34
     d08:	21 bd       	out	0x21, r18	; 33
        "/* END EEPROM READ CRITICAL SECTION */ \n\t"
        : "=r" (__result)
        : "i" (_SFR_IO_ADDR(EECR)),
          "i" (EERE),
          "i" (_SFR_IO_ADDR(EEDR))
    );
     d0a:	f8 9a       	sbi	0x1f, 0	; 31
     d0c:	40 b5       	in	r20, 0x20	; 32
	byte size = sizeof(sEndPoint);
	
	// Read EndPoint1 & EndPoint2
	byte* ptr = (byte*)&EndPoint1;
	for (int i=0; i<size; i++)
		*(ptr++) = eeprom_read_byte( addr++ );
     d0e:	41 93       	st	Z+, r20
     d10:	2f 5f       	subi	r18, 0xFF	; 255
     d12:	3f 4f       	sbci	r19, 0xFF	; 255
{
	byte size = sizeof(sEndPoint);
	
	// Read EndPoint1 & EndPoint2
	byte* ptr = (byte*)&EndPoint1;
	for (int i=0; i<size; i++)
     d14:	42 e0       	ldi	r20, 0x02	; 2
     d16:	e8 32       	cpi	r30, 0x28	; 40
     d18:	f4 07       	cpc	r31, r20
     d1a:	99 f7       	brne	.-26     	; 0xd02 <_Z17read_stops_eepromPh+0xa>
     d1c:	ec 01       	movw	r28, r24
     d1e:	26 96       	adiw	r28, 0x06	; 6
     d20:	ce 01       	movw	r24, r28
     d22:	e8 e2       	ldi	r30, 0x28	; 40
     d24:	f2 e0       	ldi	r31, 0x02	; 2
/** \ingroup avr_eeprom
    Read one byte from EEPROM address \a __p.
 */
__ATTR_PURE__ static __inline__ uint8_t eeprom_read_byte (const uint8_t *__p)
{
    do {} while (!eeprom_is_ready ());
     d26:	f9 99       	sbic	0x1f, 1	; 31
     d28:	fe cf       	rjmp	.-4      	; 0xd26 <_Z17read_stops_eepromPh+0x2e>
#if E2END <= 0xFF
    EEARL = (uint8_t)(uint16_t)__p;
#else
    EEAR = (uint16_t)__p;
     d2a:	92 bd       	out	0x22, r25	; 34
     d2c:	81 bd       	out	0x21, r24	; 33
        "/* END EEPROM READ CRITICAL SECTION */ \n\t"
        : "=r" (__result)
        : "i" (_SFR_IO_ADDR(EECR)),
          "i" (EERE),
          "i" (_SFR_IO_ADDR(EEDR))
    );
     d2e:	f8 9a       	sbi	0x1f, 0	; 31
     d30:	20 b5       	in	r18, 0x20	; 32
		*(ptr++) = eeprom_read_byte( addr++ );

	ptr = (byte*)&EndPoint2;
	for (int i=0; i<size; i++)
		*(ptr++) = eeprom_read_byte( addr++ );
     d32:	21 93       	st	Z+, r18
     d34:	01 96       	adiw	r24, 0x01	; 1
	byte* ptr = (byte*)&EndPoint1;
	for (int i=0; i<size; i++)
		*(ptr++) = eeprom_read_byte( addr++ );

	ptr = (byte*)&EndPoint2;
	for (int i=0; i<size; i++)
     d36:	22 e0       	ldi	r18, 0x02	; 2
     d38:	ee 32       	cpi	r30, 0x2E	; 46
     d3a:	f2 07       	cpc	r31, r18
     d3c:	a1 f7       	brne	.-24     	; 0xd26 <_Z17read_stops_eepromPh+0x2e>
		*(ptr++) = eeprom_read_byte( addr++ );
	
	compute_range();
     d3e:	0e 94 05 0b 	call	0x160a	; 0x160a <_Z13compute_rangev>
     d42:	26 96       	adiw	r28, 0x06	; 6
	return addr;
}
     d44:	ce 01       	movw	r24, r28
     d46:	df 91       	pop	r29
     d48:	cf 91       	pop	r28
     d4a:	08 95       	ret

00000d4c <_Z29save_currentThresholds_eepromPh>:
****************************************************/
byte* save_currentThresholds_eeprom(byte* addr)
{
	// CURRENT THRESHOLD (for shutoff)
	// SAMPLING IS 10 BITS ONLY.
	eeprom_write_byte( addr++, lo(current_1_threshold>>2) );	
     d4c:	ac 01       	movw	r20, r24
     d4e:	4f 5f       	subi	r20, 0xFF	; 255
     d50:	5f 4f       	sbci	r21, 0xFF	; 255
     d52:	20 91 01 01 	lds	r18, 0x0101
     d56:	30 91 02 01 	lds	r19, 0x0102
     d5a:	36 95       	lsr	r19
     d5c:	27 95       	ror	r18
     d5e:	36 95       	lsr	r19
     d60:	27 95       	ror	r18
/** \ingroup avr_eeprom
    Write a byte \a __value to EEPROM address \a __p.
 */
static __inline__ void eeprom_write_byte (uint8_t *__p, uint8_t __value)
{
    do {} while (!eeprom_is_ready ());
     d62:	f9 99       	sbic	0x1f, 1	; 31
     d64:	fe cf       	rjmp	.-4      	; 0xd62 <_Z29save_currentThresholds_eepromPh+0x16>

#if	defined(EEPM0) && defined(EEPM1)
    EECR = 0;		/* Set programming mode: erase and write.	*/
     d66:	1f ba       	out	0x1f, r1	; 31
#endif

#if	E2END <= 0xFF
    EEARL = (unsigned)__p;
#else
    EEAR = (unsigned)__p;
     d68:	92 bd       	out	0x22, r25	; 34
     d6a:	81 bd       	out	0x21, r24	; 33
#endif
    EEDR = __value;
     d6c:	20 bd       	out	0x20, r18	; 32
        : [__eecr]  "i" (_SFR_IO_ADDR(EECR)),
          [__sreg]  "i" (_SFR_IO_ADDR(SREG)),
          [__eemwe] "i" (EEMWE),
          [__eewe]  "i" (EEWE)
        : "r0"
    );
     d6e:	0f b6       	in	r0, 0x3f	; 63
     d70:	f8 94       	cli
     d72:	fa 9a       	sbi	0x1f, 2	; 31
     d74:	f9 9a       	sbi	0x1f, 1	; 31
     d76:	0f be       	out	0x3f, r0	; 63
	eeprom_write_byte( addr++, lo(current_2_threshold>>2) );	
     d78:	9a 01       	movw	r18, r20
     d7a:	2f 5f       	subi	r18, 0xFF	; 255
     d7c:	3f 4f       	sbci	r19, 0xFF	; 255
     d7e:	80 91 03 01 	lds	r24, 0x0103
     d82:	90 91 04 01 	lds	r25, 0x0104
     d86:	96 95       	lsr	r25
     d88:	87 95       	ror	r24
     d8a:	96 95       	lsr	r25
     d8c:	87 95       	ror	r24
/** \ingroup avr_eeprom
    Write a byte \a __value to EEPROM address \a __p.
 */
static __inline__ void eeprom_write_byte (uint8_t *__p, uint8_t __value)
{
    do {} while (!eeprom_is_ready ());
     d8e:	f9 99       	sbic	0x1f, 1	; 31
     d90:	fe cf       	rjmp	.-4      	; 0xd8e <_Z29save_currentThresholds_eepromPh+0x42>

#if	defined(EEPM0) && defined(EEPM1)
    EECR = 0;		/* Set programming mode: erase and write.	*/
     d92:	1f ba       	out	0x1f, r1	; 31
#endif

#if	E2END <= 0xFF
    EEARL = (unsigned)__p;
#else
    EEAR = (unsigned)__p;
     d94:	52 bd       	out	0x22, r21	; 34
     d96:	41 bd       	out	0x21, r20	; 33
#endif
    EEDR = __value;
     d98:	80 bd       	out	0x20, r24	; 32
        : [__eecr]  "i" (_SFR_IO_ADDR(EECR)),
          [__sreg]  "i" (_SFR_IO_ADDR(SREG)),
          [__eemwe] "i" (EEMWE),
          [__eewe]  "i" (EEWE)
        : "r0"
    );
     d9a:	0f b6       	in	r0, 0x3f	; 63
     d9c:	f8 94       	cli
     d9e:	fa 9a       	sbi	0x1f, 2	; 31
     da0:	f9 9a       	sbi	0x1f, 1	; 31
     da2:	0f be       	out	0x3f, r0	; 63
	return addr;
}
     da4:	c9 01       	movw	r24, r18
     da6:	08 95       	ret

00000da8 <_Z29read_currentThresholds_eepromPh>:

Reads from stall currents from EEPROM, and stores into RAM
***********************************************************/
byte* read_currentThresholds_eeprom(byte* addr)
{	// CURRENT THRESHOLD (for shutoff)	
	current_1_threshold = ((eeprom_read_byte( addr++ ))<<2);
     da8:	ac 01       	movw	r20, r24
     daa:	4f 5f       	subi	r20, 0xFF	; 255
     dac:	5f 4f       	sbci	r21, 0xFF	; 255
/** \ingroup avr_eeprom
    Read one byte from EEPROM address \a __p.
 */
__ATTR_PURE__ static __inline__ uint8_t eeprom_read_byte (const uint8_t *__p)
{
    do {} while (!eeprom_is_ready ());
     dae:	f9 99       	sbic	0x1f, 1	; 31
     db0:	fe cf       	rjmp	.-4      	; 0xdae <_Z29read_currentThresholds_eepromPh+0x6>
#if E2END <= 0xFF
    EEARL = (uint8_t)(uint16_t)__p;
#else
    EEAR = (uint16_t)__p;
     db2:	92 bd       	out	0x22, r25	; 34
     db4:	81 bd       	out	0x21, r24	; 33
        "/* END EEPROM READ CRITICAL SECTION */ \n\t"
        : "=r" (__result)
        : "i" (_SFR_IO_ADDR(EECR)),
          "i" (EERE),
          "i" (_SFR_IO_ADDR(EEDR))
    );
     db6:	f8 9a       	sbi	0x1f, 0	; 31
     db8:	80 b5       	in	r24, 0x20	; 32
     dba:	90 e0       	ldi	r25, 0x00	; 0
     dbc:	88 0f       	add	r24, r24
     dbe:	99 1f       	adc	r25, r25
     dc0:	88 0f       	add	r24, r24
     dc2:	99 1f       	adc	r25, r25
     dc4:	90 93 02 01 	sts	0x0102, r25
     dc8:	80 93 01 01 	sts	0x0101, r24
	current_2_threshold = ((eeprom_read_byte( addr++ ))<<2);
     dcc:	9a 01       	movw	r18, r20
     dce:	2f 5f       	subi	r18, 0xFF	; 255
     dd0:	3f 4f       	sbci	r19, 0xFF	; 255
/** \ingroup avr_eeprom
    Read one byte from EEPROM address \a __p.
 */
__ATTR_PURE__ static __inline__ uint8_t eeprom_read_byte (const uint8_t *__p)
{
    do {} while (!eeprom_is_ready ());
     dd2:	f9 99       	sbic	0x1f, 1	; 31
     dd4:	fe cf       	rjmp	.-4      	; 0xdd2 <_Z29read_currentThresholds_eepromPh+0x2a>
#if E2END <= 0xFF
    EEARL = (uint8_t)(uint16_t)__p;
#else
    EEAR = (uint16_t)__p;
     dd6:	52 bd       	out	0x22, r21	; 34
     dd8:	41 bd       	out	0x21, r20	; 33
        "/* END EEPROM READ CRITICAL SECTION */ \n\t"
        : "=r" (__result)
        : "i" (_SFR_IO_ADDR(EECR)),
          "i" (EERE),
          "i" (_SFR_IO_ADDR(EEDR))
    );
     dda:	f8 9a       	sbi	0x1f, 0	; 31
     ddc:	80 b5       	in	r24, 0x20	; 32
     dde:	90 e0       	ldi	r25, 0x00	; 0
     de0:	88 0f       	add	r24, r24
     de2:	99 1f       	adc	r25, r25
     de4:	88 0f       	add	r24, r24
     de6:	99 1f       	adc	r25, r25
     de8:	90 93 04 01 	sts	0x0104, r25
     dec:	80 93 03 01 	sts	0x0103, r24
	return addr;
}
     df0:	c9 01       	movw	r24, r18
     df2:	08 95       	ret

00000df4 <_Z27save_latest_position_eepromPh>:
     df4:	20 91 3f 03 	lds	r18, 0x033F
Also want to save:  Current thresholds.
Report DTCs (overtemperature, over voltage)
****************************************************/
byte* save_latest_position_eeprom(byte* addr)
{
	if (isConfigured(MODE_USE_ENCODER)) {
     df8:	20 fd       	sbrc	r18, 0
     dfa:	22 c0       	rjmp	.+68     	; 0xe40 <_Z27save_latest_position_eepromPh+0x4c>
		eeprom_write_byte( addr++, hi(EncoderCount) );
		eeprom_write_byte( addr++, lo(EncoderCount) );
	}else {
		eeprom_write_byte( addr++, hi(PotSample[1]) );	
     dfc:	ac 01       	movw	r20, r24
     dfe:	4f 5f       	subi	r20, 0xFF	; 255
     e00:	5f 4f       	sbci	r21, 0xFF	; 255
     e02:	20 91 80 02 	lds	r18, 0x0280
/** \ingroup avr_eeprom
    Write a byte \a __value to EEPROM address \a __p.
 */
static __inline__ void eeprom_write_byte (uint8_t *__p, uint8_t __value)
{
    do {} while (!eeprom_is_ready ());
     e06:	f9 99       	sbic	0x1f, 1	; 31
     e08:	fe cf       	rjmp	.-4      	; 0xe06 <_Z27save_latest_position_eepromPh+0x12>

#if	defined(EEPM0) && defined(EEPM1)
    EECR = 0;		/* Set programming mode: erase and write.	*/
     e0a:	1f ba       	out	0x1f, r1	; 31
#endif

#if	E2END <= 0xFF
    EEARL = (unsigned)__p;
#else
    EEAR = (unsigned)__p;
     e0c:	92 bd       	out	0x22, r25	; 34
     e0e:	81 bd       	out	0x21, r24	; 33
#endif
    EEDR = __value;
     e10:	20 bd       	out	0x20, r18	; 32
        : [__eecr]  "i" (_SFR_IO_ADDR(EECR)),
          [__sreg]  "i" (_SFR_IO_ADDR(SREG)),
          [__eemwe] "i" (EEMWE),
          [__eewe]  "i" (EEWE)
        : "r0"
    );
     e12:	0f b6       	in	r0, 0x3f	; 63
     e14:	f8 94       	cli
     e16:	fa 9a       	sbi	0x1f, 2	; 31
     e18:	f9 9a       	sbi	0x1f, 1	; 31
     e1a:	0f be       	out	0x3f, r0	; 63
		eeprom_write_byte( addr++, lo(PotSample[1]) );
     e1c:	9a 01       	movw	r18, r20
     e1e:	2f 5f       	subi	r18, 0xFF	; 255
     e20:	3f 4f       	sbci	r19, 0xFF	; 255
     e22:	80 91 7f 02 	lds	r24, 0x027F
/** \ingroup avr_eeprom
    Write a byte \a __value to EEPROM address \a __p.
 */
static __inline__ void eeprom_write_byte (uint8_t *__p, uint8_t __value)
{
    do {} while (!eeprom_is_ready ());
     e26:	f9 99       	sbic	0x1f, 1	; 31
     e28:	fe cf       	rjmp	.-4      	; 0xe26 <_Z27save_latest_position_eepromPh+0x32>

#if	defined(EEPM0) && defined(EEPM1)
    EECR = 0;		/* Set programming mode: erase and write.	*/
     e2a:	1f ba       	out	0x1f, r1	; 31
#endif

#if	E2END <= 0xFF
    EEARL = (unsigned)__p;
#else
    EEAR = (unsigned)__p;
     e2c:	52 bd       	out	0x22, r21	; 34
     e2e:	41 bd       	out	0x21, r20	; 33
#endif
    EEDR = __value;
     e30:	80 bd       	out	0x20, r24	; 32
        : [__eecr]  "i" (_SFR_IO_ADDR(EECR)),
          [__sreg]  "i" (_SFR_IO_ADDR(SREG)),
          [__eemwe] "i" (EEMWE),
          [__eewe]  "i" (EEWE)
        : "r0"
    );
     e32:	0f b6       	in	r0, 0x3f	; 63
     e34:	f8 94       	cli
     e36:	fa 9a       	sbi	0x1f, 2	; 31
     e38:	f9 9a       	sbi	0x1f, 1	; 31
     e3a:	0f be       	out	0x3f, r0	; 63
	}
	return addr;
}
     e3c:	c9 01       	movw	r24, r18
     e3e:	08 95       	ret
Report DTCs (overtemperature, over voltage)
****************************************************/
byte* save_latest_position_eeprom(byte* addr)
{
	if (isConfigured(MODE_USE_ENCODER)) {
		eeprom_write_byte( addr++, hi(EncoderCount) );
     e40:	ac 01       	movw	r20, r24
     e42:	4f 5f       	subi	r20, 0xFF	; 255
     e44:	5f 4f       	sbci	r21, 0xFF	; 255
     e46:	20 91 65 02 	lds	r18, 0x0265
/** \ingroup avr_eeprom
    Write a byte \a __value to EEPROM address \a __p.
 */
static __inline__ void eeprom_write_byte (uint8_t *__p, uint8_t __value)
{
    do {} while (!eeprom_is_ready ());
     e4a:	f9 99       	sbic	0x1f, 1	; 31
     e4c:	fe cf       	rjmp	.-4      	; 0xe4a <_Z27save_latest_position_eepromPh+0x56>

#if	defined(EEPM0) && defined(EEPM1)
    EECR = 0;		/* Set programming mode: erase and write.	*/
     e4e:	1f ba       	out	0x1f, r1	; 31
#endif

#if	E2END <= 0xFF
    EEARL = (unsigned)__p;
#else
    EEAR = (unsigned)__p;
     e50:	92 bd       	out	0x22, r25	; 34
     e52:	81 bd       	out	0x21, r24	; 33
#endif
    EEDR = __value;
     e54:	20 bd       	out	0x20, r18	; 32
        : [__eecr]  "i" (_SFR_IO_ADDR(EECR)),
          [__sreg]  "i" (_SFR_IO_ADDR(SREG)),
          [__eemwe] "i" (EEMWE),
          [__eewe]  "i" (EEWE)
        : "r0"
    );
     e56:	0f b6       	in	r0, 0x3f	; 63
     e58:	f8 94       	cli
     e5a:	fa 9a       	sbi	0x1f, 2	; 31
     e5c:	f9 9a       	sbi	0x1f, 1	; 31
     e5e:	0f be       	out	0x3f, r0	; 63
		eeprom_write_byte( addr++, lo(EncoderCount) );
     e60:	9a 01       	movw	r18, r20
     e62:	2f 5f       	subi	r18, 0xFF	; 255
     e64:	3f 4f       	sbci	r19, 0xFF	; 255
     e66:	80 91 64 02 	lds	r24, 0x0264
/** \ingroup avr_eeprom
    Write a byte \a __value to EEPROM address \a __p.
 */
static __inline__ void eeprom_write_byte (uint8_t *__p, uint8_t __value)
{
    do {} while (!eeprom_is_ready ());
     e6a:	f9 99       	sbic	0x1f, 1	; 31
     e6c:	fe cf       	rjmp	.-4      	; 0xe6a <_Z27save_latest_position_eepromPh+0x76>
     e6e:	dd cf       	rjmp	.-70     	; 0xe2a <_Z27save_latest_position_eepromPh+0x36>

00000e70 <_Z27read_latest_position_eepromPh>:
     e70:	20 91 3f 03 	lds	r18, 0x033F
Also want to save:  Current thresholds.
Report DTCs (overtemperature, over voltage)
****************************************************/
byte* read_latest_position_eeprom(byte* addr)
{
	if (isConfigured(MODE_USE_ENCODER)) {
     e74:	20 ff       	sbrs	r18, 0
     e76:	1c c0       	rjmp	.+56     	; 0xeb0 <_Z27read_latest_position_eepromPh+0x40>
		EncoderCount = (eeprom_read_byte( addr++ )<<8);
     e78:	ac 01       	movw	r20, r24
     e7a:	4f 5f       	subi	r20, 0xFF	; 255
     e7c:	5f 4f       	sbci	r21, 0xFF	; 255
/** \ingroup avr_eeprom
    Read one byte from EEPROM address \a __p.
 */
__ATTR_PURE__ static __inline__ uint8_t eeprom_read_byte (const uint8_t *__p)
{
    do {} while (!eeprom_is_ready ());
     e7e:	f9 99       	sbic	0x1f, 1	; 31
     e80:	fe cf       	rjmp	.-4      	; 0xe7e <_Z27read_latest_position_eepromPh+0xe>
#if E2END <= 0xFF
    EEARL = (uint8_t)(uint16_t)__p;
#else
    EEAR = (uint16_t)__p;
     e82:	92 bd       	out	0x22, r25	; 34
     e84:	81 bd       	out	0x21, r24	; 33
        "/* END EEPROM READ CRITICAL SECTION */ \n\t"
        : "=r" (__result)
        : "i" (_SFR_IO_ADDR(EECR)),
          "i" (EERE),
          "i" (_SFR_IO_ADDR(EEDR))
    );
     e86:	f8 9a       	sbi	0x1f, 0	; 31
     e88:	80 b5       	in	r24, 0x20	; 32
     e8a:	10 92 64 02 	sts	0x0264, r1
     e8e:	80 93 65 02 	sts	0x0265, r24
		EncoderCount = (eeprom_read_byte( addr++ ));
     e92:	9a 01       	movw	r18, r20
     e94:	2f 5f       	subi	r18, 0xFF	; 255
     e96:	3f 4f       	sbci	r19, 0xFF	; 255
/** \ingroup avr_eeprom
    Read one byte from EEPROM address \a __p.
 */
__ATTR_PURE__ static __inline__ uint8_t eeprom_read_byte (const uint8_t *__p)
{
    do {} while (!eeprom_is_ready ());
     e98:	f9 99       	sbic	0x1f, 1	; 31
     e9a:	fe cf       	rjmp	.-4      	; 0xe98 <_Z27read_latest_position_eepromPh+0x28>
#if E2END <= 0xFF
    EEARL = (uint8_t)(uint16_t)__p;
#else
    EEAR = (uint16_t)__p;
     e9c:	52 bd       	out	0x22, r21	; 34
     e9e:	41 bd       	out	0x21, r20	; 33
        "/* END EEPROM READ CRITICAL SECTION */ \n\t"
        : "=r" (__result)
        : "i" (_SFR_IO_ADDR(EECR)),
          "i" (EERE),
          "i" (_SFR_IO_ADDR(EEDR))
    );
     ea0:	f8 9a       	sbi	0x1f, 0	; 31
     ea2:	80 b5       	in	r24, 0x20	; 32
     ea4:	80 93 64 02 	sts	0x0264, r24
     ea8:	10 92 65 02 	sts	0x0265, r1
	}else {
		PotSample[1] = (eeprom_read_byte( addr++ )<<8);
		PotSample[1] = (eeprom_read_byte( addr++ ));
	}
	return addr;
}
     eac:	c9 01       	movw	r24, r18
     eae:	08 95       	ret
{
	if (isConfigured(MODE_USE_ENCODER)) {
		EncoderCount = (eeprom_read_byte( addr++ )<<8);
		EncoderCount = (eeprom_read_byte( addr++ ));
	}else {
		PotSample[1] = (eeprom_read_byte( addr++ )<<8);
     eb0:	ac 01       	movw	r20, r24
     eb2:	4f 5f       	subi	r20, 0xFF	; 255
     eb4:	5f 4f       	sbci	r21, 0xFF	; 255
/** \ingroup avr_eeprom
    Read one byte from EEPROM address \a __p.
 */
__ATTR_PURE__ static __inline__ uint8_t eeprom_read_byte (const uint8_t *__p)
{
    do {} while (!eeprom_is_ready ());
     eb6:	f9 99       	sbic	0x1f, 1	; 31
     eb8:	fe cf       	rjmp	.-4      	; 0xeb6 <_Z27read_latest_position_eepromPh+0x46>
#if E2END <= 0xFF
    EEARL = (uint8_t)(uint16_t)__p;
#else
    EEAR = (uint16_t)__p;
     eba:	92 bd       	out	0x22, r25	; 34
     ebc:	81 bd       	out	0x21, r24	; 33
        "/* END EEPROM READ CRITICAL SECTION */ \n\t"
        : "=r" (__result)
        : "i" (_SFR_IO_ADDR(EECR)),
          "i" (EERE),
          "i" (_SFR_IO_ADDR(EEDR))
    );
     ebe:	f8 9a       	sbi	0x1f, 0	; 31
     ec0:	80 b5       	in	r24, 0x20	; 32
     ec2:	10 92 7f 02 	sts	0x027F, r1
     ec6:	80 93 80 02 	sts	0x0280, r24
		PotSample[1] = (eeprom_read_byte( addr++ ));
     eca:	9a 01       	movw	r18, r20
     ecc:	2f 5f       	subi	r18, 0xFF	; 255
     ece:	3f 4f       	sbci	r19, 0xFF	; 255
/** \ingroup avr_eeprom
    Read one byte from EEPROM address \a __p.
 */
__ATTR_PURE__ static __inline__ uint8_t eeprom_read_byte (const uint8_t *__p)
{
    do {} while (!eeprom_is_ready ());
     ed0:	f9 99       	sbic	0x1f, 1	; 31
     ed2:	fe cf       	rjmp	.-4      	; 0xed0 <_Z27read_latest_position_eepromPh+0x60>
#if E2END <= 0xFF
    EEARL = (uint8_t)(uint16_t)__p;
#else
    EEAR = (uint16_t)__p;
     ed4:	52 bd       	out	0x22, r21	; 34
     ed6:	41 bd       	out	0x21, r20	; 33
        "/* END EEPROM READ CRITICAL SECTION */ \n\t"
        : "=r" (__result)
        : "i" (_SFR_IO_ADDR(EECR)),
          "i" (EERE),
          "i" (_SFR_IO_ADDR(EEDR))
    );
     ed8:	f8 9a       	sbi	0x1f, 0	; 31
     eda:	80 b5       	in	r24, 0x20	; 32
     edc:	80 93 7f 02 	sts	0x027F, r24
     ee0:	10 92 80 02 	sts	0x0280, r1
	}
	return addr;
}
     ee4:	c9 01       	movw	r24, r18
     ee6:	08 95       	ret

00000ee8 <_Z13getReportRatev>:
			counter in 5ms timeslice.
		   -1 means no Report desired!
****************************************************************/
byte getReportRate()
{
	switch ( (config_byte_2 & 0xF0) )
     ee8:	80 91 40 03 	lds	r24, 0x0340
     eec:	90 e0       	ldi	r25, 0x00	; 0
     eee:	80 7f       	andi	r24, 0xF0	; 240
     ef0:	90 70       	andi	r25, 0x00	; 0
     ef2:	80 32       	cpi	r24, 0x20	; 32
     ef4:	91 05       	cpc	r25, r1
     ef6:	b1 f0       	breq	.+44     	; 0xf24 <_Z13getReportRatev+0x3c>
     ef8:	81 32       	cpi	r24, 0x21	; 33
     efa:	91 05       	cpc	r25, r1
     efc:	44 f0       	brlt	.+16     	; 0xf0e <_Z13getReportRatev+0x26>
     efe:	80 34       	cpi	r24, 0x40	; 64
     f00:	91 05       	cpc	r25, r1
     f02:	91 f0       	breq	.+36     	; 0xf28 <_Z13getReportRatev+0x40>
     f04:	80 38       	cpi	r24, 0x80	; 128
     f06:	91 05       	cpc	r25, r1
     f08:	59 f0       	breq	.+22     	; 0xf20 <_Z13getReportRatev+0x38>
	case MODE_SEND_UPDATES_NONE :	return 0; 	break;
	case MODE_SEND_UPDATES_10ms :	return 1; 	break;
	case MODE_SEND_UPDATES_20ms :	return 2; 	break;
	case MODE_SEND_UPDATES_50ms :	return 5; 	break;
	case MODE_SEND_UPDATES_100ms:	return 10; 	break;
	default: return -1;  break;
     f0a:	8f ef       	ldi	r24, 0xFF	; 255
     f0c:	08 95       	ret
			counter in 5ms timeslice.
		   -1 means no Report desired!
****************************************************************/
byte getReportRate()
{
	switch ( (config_byte_2 & 0xF0) )
     f0e:	00 97       	sbiw	r24, 0x00	; 0
     f10:	29 f0       	breq	.+10     	; 0xf1c <_Z13getReportRatev+0x34>
     f12:	80 31       	cpi	r24, 0x10	; 16
     f14:	91 05       	cpc	r25, r1
     f16:	c9 f7       	brne	.-14     	; 0xf0a <_Z13getReportRatev+0x22>
	{
	case MODE_SEND_UPDATES_NONE :	return 0; 	break;
	case MODE_SEND_UPDATES_10ms :	return 1; 	break;
     f18:	81 e0       	ldi	r24, 0x01	; 1
	case MODE_SEND_UPDATES_20ms :	return 2; 	break;
	case MODE_SEND_UPDATES_50ms :	return 5; 	break;
	case MODE_SEND_UPDATES_100ms:	return 10; 	break;
	default: return -1;  break;
	}
}
     f1a:	08 95       	ret
****************************************************************/
byte getReportRate()
{
	switch ( (config_byte_2 & 0xF0) )
	{
	case MODE_SEND_UPDATES_NONE :	return 0; 	break;
     f1c:	80 e0       	ldi	r24, 0x00	; 0
     f1e:	08 95       	ret
	case MODE_SEND_UPDATES_10ms :	return 1; 	break;
	case MODE_SEND_UPDATES_20ms :	return 2; 	break;
	case MODE_SEND_UPDATES_50ms :	return 5; 	break;
	case MODE_SEND_UPDATES_100ms:	return 10; 	break;
     f20:	8a e0       	ldi	r24, 0x0A	; 10
     f22:	08 95       	ret
{
	switch ( (config_byte_2 & 0xF0) )
	{
	case MODE_SEND_UPDATES_NONE :	return 0; 	break;
	case MODE_SEND_UPDATES_10ms :	return 1; 	break;
	case MODE_SEND_UPDATES_20ms :	return 2; 	break;
     f24:	82 e0       	ldi	r24, 0x02	; 2
     f26:	08 95       	ret
	case MODE_SEND_UPDATES_50ms :	return 5; 	break;
     f28:	85 e0       	ldi	r24, 0x05	; 5
     f2a:	08 95       	ret

00000f2c <_Z18isReportingEnabledv>:
	}
}

BOOL isReportingEnabled()
{
	if (getReportRate() != MODE_SEND_UPDATES_NONE)
     f2c:	0e 94 74 07 	call	0xee8	; 0xee8 <_Z13getReportRatev>
		return TRUE;
     f30:	91 e0       	ldi	r25, 0x01	; 1
     f32:	88 23       	and	r24, r24
     f34:	09 f4       	brne	.+2      	; 0xf38 <_Z18isReportingEnabledv+0xc>
     f36:	90 e0       	ldi	r25, 0x00	; 0
	else
		return FALSE;
}
     f38:	89 2f       	mov	r24, r25
     f3a:	08 95       	ret

00000f3c <_Z8save_calv>:
Saves to EEPROM 
***********************************************************/
byte* save_cal()
{
	byte* addr;
	addr = save_configuration			(    );		// MyInstance & Confirmed & config bytes
     f3c:	0e 94 15 1c 	call	0x382a	; 0x382a <_Z18save_configurationv>
	addr = save_stops_eeprom			(addr);
     f40:	0e 94 4b 06 	call	0xc96	; 0xc96 <_Z17save_stops_eepromPh>
	addr = save_currentThresholds_eeprom(addr);
     f44:	0e 94 a6 06 	call	0xd4c	; 0xd4c <_Z29save_currentThresholds_eepromPh>
	addr = save_latest_position_eeprom  (addr);
     f48:	0e 94 fa 06 	call	0xdf4	; 0xdf4 <_Z27save_latest_position_eepromPh>
	return addr;
}
     f4c:	08 95       	ret

00000f4e <_Z8read_calv>:
Read from EEPROM, and stores into the RAM
*************************************************************/
byte* read_cal()
{
	byte* addr;
	addr = read_configuration();		// myinstance, confirmed status, config bytes
     f4e:	0e 94 6f 1c 	call	0x38de	; 0x38de <_Z18read_configurationv>
	addr = read_stops_eeprom			(addr);
     f52:	0e 94 7c 06 	call	0xcf8	; 0xcf8 <_Z17read_stops_eepromPh>
	addr = read_currentThresholds_eeprom(addr);
     f56:	0e 94 d4 06 	call	0xda8	; 0xda8 <_Z29read_currentThresholds_eepromPh>
	addr = read_latest_position_eeprom	(addr);
     f5a:	0e 94 38 07 	call	0xe70	; 0xe70 <_Z27read_latest_position_eepromPh>
	return addr;
}
     f5e:	08 95       	ret

00000f60 <_Z16SetBaseFrequencyv>:
#define MODE_FREE_SPIN	 	0x08		// ignore stops.  default (0) is to stop
#define MODE_TILT_RESPONDER 0x10		// 1=> respond to tilt Y axis readings
#define MODE_PID_CONTROL	0x20		// PID or constant speed.
#define MODE_BASE_FREQ_1	0x40		// 00->100Hz;  01--> 300Hz
#define MODE_BASE_FREQ_2	0x80		// 10->1000hz; 11--> 5000Hz
inline  byte getBaseFreq() 	{  return ((config_byte_1 & 0xC0)>>6);  }
     f60:	80 91 3f 03 	lds	r24, 0x033F
     f64:	82 95       	swap	r24
     f66:	86 95       	lsr	r24
     f68:	86 95       	lsr	r24
     f6a:	83 70       	andi	r24, 0x03	; 3
/************************************************************
SetBaseFrequency()	based on config_byte_1
*************************************************************/
void SetBaseFrequency( )
{
	switch (getBaseFreq())
     f6c:	81 30       	cpi	r24, 0x01	; 1
     f6e:	b1 f0       	breq	.+44     	; 0xf9c <_Z16SetBaseFrequencyv+0x3c>
     f70:	81 30       	cpi	r24, 0x01	; 1
     f72:	58 f0       	brcs	.+22     	; 0xf8a <_Z16SetBaseFrequencyv+0x2a>
     f74:	82 30       	cpi	r24, 0x02	; 2
     f76:	d9 f0       	breq	.+54     	; 0xfae <_Z16SetBaseFrequencyv+0x4e>
	{
		case 0:	pwm_init( 100., TRUE, TRUE );	break;
		case 1:	pwm_init( 300., TRUE, TRUE );	break;
		case 2:	pwm_init( 1000., TRUE, TRUE );	break;
		case 3:	pwm_init( 5000., TRUE, TRUE );	break;
		default: pwm_init( 5000., TRUE, TRUE ); break;
     f78:	60 e0       	ldi	r22, 0x00	; 0
     f7a:	70 e4       	ldi	r23, 0x40	; 64
     f7c:	8c e9       	ldi	r24, 0x9C	; 156
     f7e:	95 e4       	ldi	r25, 0x45	; 69
     f80:	41 e0       	ldi	r20, 0x01	; 1
     f82:	21 e0       	ldi	r18, 0x01	; 1
     f84:	0e 94 6d 19 	call	0x32da	; 0x32da <_Z8pwm_initfhh>
     f88:	08 95       	ret
*************************************************************/
void SetBaseFrequency( )
{
	switch (getBaseFreq())
	{
		case 0:	pwm_init( 100., TRUE, TRUE );	break;
     f8a:	60 e0       	ldi	r22, 0x00	; 0
     f8c:	70 e0       	ldi	r23, 0x00	; 0
     f8e:	88 ec       	ldi	r24, 0xC8	; 200
     f90:	92 e4       	ldi	r25, 0x42	; 66
     f92:	41 e0       	ldi	r20, 0x01	; 1
     f94:	21 e0       	ldi	r18, 0x01	; 1
     f96:	0e 94 6d 19 	call	0x32da	; 0x32da <_Z8pwm_initfhh>
     f9a:	08 95       	ret
		case 1:	pwm_init( 300., TRUE, TRUE );	break;
     f9c:	60 e0       	ldi	r22, 0x00	; 0
     f9e:	70 e0       	ldi	r23, 0x00	; 0
     fa0:	86 e9       	ldi	r24, 0x96	; 150
     fa2:	93 e4       	ldi	r25, 0x43	; 67
     fa4:	41 e0       	ldi	r20, 0x01	; 1
     fa6:	21 e0       	ldi	r18, 0x01	; 1
     fa8:	0e 94 6d 19 	call	0x32da	; 0x32da <_Z8pwm_initfhh>
     fac:	08 95       	ret
		case 2:	pwm_init( 1000., TRUE, TRUE );	break;
     fae:	60 e0       	ldi	r22, 0x00	; 0
     fb0:	70 e0       	ldi	r23, 0x00	; 0
     fb2:	8a e7       	ldi	r24, 0x7A	; 122
     fb4:	94 e4       	ldi	r25, 0x44	; 68
     fb6:	41 e0       	ldi	r20, 0x01	; 1
     fb8:	21 e0       	ldi	r18, 0x01	; 1
     fba:	0e 94 6d 19 	call	0x32da	; 0x32da <_Z8pwm_initfhh>
     fbe:	08 95       	ret

00000fc0 <_Z10motor_initv>:
		Both PWMs are HIGH;		(ie Polarities are the same)
		INHibit signal is LOW;
	Base Frequency of the BTS7960 chips can go upto 25khz	*/
void motor_init()
{
	HILOW_DDR  |=  HILOW_DDR_MASK;			// HBridge Enable lines (outputs)
     fc0:	84 b1       	in	r24, 0x04	; 4
     fc2:	80 66       	ori	r24, 0x60	; 96
     fc4:	84 b9       	out	0x04, r24	; 4
	CURRENT_SENSE_DDR &=  ~((1<<CURRENT_SENSE_LEFT) | (1<<CURRENT_SENSE_RIGHT));
     fc6:	87 b1       	in	r24, 0x07	; 7
     fc8:	8f 7c       	andi	r24, 0xCF	; 207
     fca:	87 b9       	out	0x07, r24	; 7

	SetBaseFrequency( );		// config_byte_1
     fcc:	0e 94 b0 07 	call	0xf60	; 0xf60 <_Z16SetBaseFrequencyv>
}

void motor_enable( BOOL mEnable )
{
	if (mEnable)
		MotorState = MOTOR_ENABLED;
     fd0:	88 e0       	ldi	r24, 0x08	; 8
     fd2:	80 93 38 02 	sts	0x0238, r24
     fd6:	80 91 3f 03 	lds	r24, 0x033F
	CURRENT_SENSE_DDR &=  ~((1<<CURRENT_SENSE_LEFT) | (1<<CURRENT_SENSE_RIGHT));

	SetBaseFrequency( );		// config_byte_1
	motor_enable    (TRUE);		// 

	if (isConfigured(MODE_USE_ENCODER))
     fda:	80 fd       	sbrc	r24, 0
     fdc:	06 c0       	rjmp	.+12     	; 0xfea <_Z10motor_initv+0x2a>
		encoder_init();

	if (isConfigured(MODE_TILT_RESPONDER))
     fde:	84 ff       	sbrs	r24, 4
     fe0:	03 c0       	rjmp	.+6      	; 0xfe8 <_Z10motor_initv+0x28>
}

void motor_enable( BOOL mEnable )
{
	if (mEnable)
		MotorState = MOTOR_ENABLED;
     fe2:	88 e0       	ldi	r24, 0x08	; 8
     fe4:	80 93 38 02 	sts	0x0238, r24
     fe8:	08 95       	ret

	SetBaseFrequency( );		// config_byte_1
	motor_enable    (TRUE);		// 

	if (isConfigured(MODE_USE_ENCODER))
		encoder_init();
     fea:	0e 94 14 0d 	call	0x1a28	; 0x1a28 <_Z12encoder_initv>
     fee:	80 91 3f 03 	lds	r24, 0x033F
     ff2:	f5 cf       	rjmp	.-22     	; 0xfde <_Z10motor_initv+0x1e>

00000ff4 <_Z21report_timeslice_10msv>:

static short ReportCounter = 1;		// when zero sends update of the motor angle & currents
void report_timeslice_10ms()
{
	// Time To Report:
	if (isReportingEnabled())
     ff4:	0e 94 96 07 	call	0xf2c	; 0xf2c <_Z18isReportingEnabledv>
     ff8:	88 23       	and	r24, r24
     ffa:	61 f0       	breq	.+24     	; 0x1014 <_Z21report_timeslice_10msv+0x20>
	{
		ReportCounter--;
     ffc:	80 91 05 01 	lds	r24, 0x0105
    1000:	90 91 06 01 	lds	r25, 0x0106
    1004:	01 97       	sbiw	r24, 0x01	; 1
    1006:	90 93 06 01 	sts	0x0106, r25
    100a:	80 93 05 01 	sts	0x0105, r24
		if (ReportCounter<=0)
    100e:	18 16       	cp	r1, r24
    1010:	19 06       	cpc	r1, r25
    1012:	0c f4       	brge	.+2      	; 0x1016 <_Z21report_timeslice_10msv+0x22>
    1014:	08 95       	ret
		{
			ReportCounter = getReportRate();		// Refill
    1016:	0e 94 74 07 	call	0xee8	; 0xee8 <_Z13getReportRatev>
    101a:	80 93 05 01 	sts	0x0105, r24
    101e:	10 92 06 01 	sts	0x0106, r1
inline byte isConfigured2(byte Test)	{  return ((config_byte_2 & Test)>0); };
    1022:	80 91 40 03 	lds	r24, 0x0340
			if (isConfigured2(MODE_SEND_POSITION_SPEED_CURRENT))
    1026:	80 fd       	sbrc	r24, 0
    1028:	1a c0       	rjmp	.+52     	; 0x105e <_Z21report_timeslice_10msv+0x6a>
			{	
				/* Sends:  Position count, Speed, and Current */
				can_prep_motor_values_raw( &msg1 );
				can_send_msg_no_wait( 0, &msg1 );
			}
			if (isConfigured2(MODE_SEND_ANGLE))
    102a:	81 fd       	sbrc	r24, 1
    102c:	0c c0       	rjmp	.+24     	; 0x1046 <_Z21report_timeslice_10msv+0x52>
			{
				/* Sends: Motor Angle (based on calibrated stops) */
				can_prep_motor_angle(    &msg2 );
				can_send_msg_no_wait( 2, &msg2 );	// MOB2 is also unused
			}
			if (isConfigured2(MODE_SEND_STATUS))
    102e:	82 ff       	sbrs	r24, 2
    1030:	f1 cf       	rjmp	.-30     	; 0x1014 <_Z21report_timeslice_10msv+0x20>
			{
				can_prep_motor_status(    &msg1 );
    1032:	87 e8       	ldi	r24, 0x87	; 135
    1034:	92 e0       	ldi	r25, 0x02	; 2
    1036:	0e 94 12 06 	call	0xc24	; 0xc24 <_Z21can_prep_motor_statusP4sCAN>
				can_send_msg_no_wait ( 4, &msg1 );	// MOB4 is also unused
    103a:	84 e0       	ldi	r24, 0x04	; 4
    103c:	67 e8       	ldi	r22, 0x87	; 135
    103e:	72 e0       	ldi	r23, 0x02	; 2
    1040:	0e 94 88 11 	call	0x2310	; 0x2310 <_Z20can_send_msg_no_waithP4sCAN>
    1044:	08 95       	ret
				can_send_msg_no_wait( 0, &msg1 );
			}
			if (isConfigured2(MODE_SEND_ANGLE))
			{
				/* Sends: Motor Angle (based on calibrated stops) */
				can_prep_motor_angle(    &msg2 );
    1046:	86 e9       	ldi	r24, 0x96	; 150
    1048:	92 e0       	ldi	r25, 0x02	; 2
    104a:	0e 94 ee 04 	call	0x9dc	; 0x9dc <_Z20can_prep_motor_angleP4sCAN>
				can_send_msg_no_wait( 2, &msg2 );	// MOB2 is also unused
    104e:	82 e0       	ldi	r24, 0x02	; 2
    1050:	66 e9       	ldi	r22, 0x96	; 150
    1052:	72 e0       	ldi	r23, 0x02	; 2
    1054:	0e 94 88 11 	call	0x2310	; 0x2310 <_Z20can_send_msg_no_waithP4sCAN>
    1058:	80 91 40 03 	lds	r24, 0x0340
    105c:	e8 cf       	rjmp	.-48     	; 0x102e <_Z21report_timeslice_10msv+0x3a>
		{
			ReportCounter = getReportRate();		// Refill
			if (isConfigured2(MODE_SEND_POSITION_SPEED_CURRENT))
			{	
				/* Sends:  Position count, Speed, and Current */
				can_prep_motor_values_raw( &msg1 );
    105e:	87 e8       	ldi	r24, 0x87	; 135
    1060:	92 e0       	ldi	r25, 0x02	; 2
    1062:	0e 94 0e 05 	call	0xa1c	; 0xa1c <_Z25can_prep_motor_values_rawP4sCAN>
				can_send_msg_no_wait( 0, &msg1 );
    1066:	80 e0       	ldi	r24, 0x00	; 0
    1068:	67 e8       	ldi	r22, 0x87	; 135
    106a:	72 e0       	ldi	r23, 0x02	; 2
    106c:	0e 94 88 11 	call	0x2310	; 0x2310 <_Z20can_send_msg_no_waithP4sCAN>
    1070:	80 91 40 03 	lds	r24, 0x0340
    1074:	da cf       	rjmp	.-76     	; 0x102a <_Z21report_timeslice_10msv+0x36>

00001076 <_Z15get_motor_anglev>:
extern byte config_byte_2 ;
extern byte config_byte_3 ;
extern byte config_byte_4 ;
extern byte sys_config_byte;

inline byte isConfigured (byte Test)	{  return ((config_byte_1 & Test)>0); };
    1076:	80 91 3f 03 	lds	r24, 0x033F
}

float get_motor_angle()
{
    float_array Angle;
    if (isConfigured(MODE_USE_ENCODER))
    107a:	80 fd       	sbrc	r24, 0
    107c:	05 c0       	rjmp	.+10     	; 0x1088 <_Z15get_motor_anglev+0x12>
    {
    	Angle.value = get_encoder_angle();
    } else {
    	Angle.value = get_pot_angle();
    107e:	0e 94 67 0a 	call	0x14ce	; 0x14ce <_Z13get_pot_anglev>
    1082:	0e 94 84 20 	call	0x4108	; 0x4108 <__floatsisf>
    }
    return Angle.value;
}
    1086:	08 95       	ret
float get_motor_angle()
{
    float_array Angle;
    if (isConfigured(MODE_USE_ENCODER))
    {
    	Angle.value = get_encoder_angle();
    1088:	0e 94 7c 0d 	call	0x1af8	; 0x1af8 <_Z17get_encoder_anglev>
    108c:	0e 94 84 20 	call	0x4108	; 0x4108 <__floatsisf>
    } else {
    	Angle.value = get_pot_angle();
    }
    return Angle.value;
}
    1090:	08 95       	ret

00001092 <_Z12motor_enableh>:

void motor_enable( BOOL mEnable )
{
	if (mEnable)
    1092:	88 23       	and	r24, r24
    1094:	21 f4       	brne	.+8      	; 0x109e <_Z12motor_enableh+0xc>
		MotorState = MOTOR_ENABLED;
	else 
		MotorState = MOTOR_DISABLED;
    1096:	87 e0       	ldi	r24, 0x07	; 7
    1098:	80 93 38 02 	sts	0x0238, r24
    109c:	08 95       	ret
}

void motor_enable( BOOL mEnable )
{
	if (mEnable)
		MotorState = MOTOR_ENABLED;
    109e:	88 e0       	ldi	r24, 0x08	; 8
    10a0:	80 93 38 02 	sts	0x0238, r24
    10a4:	08 95       	ret

000010a6 <_Z11motor_brakev>:
}

void motor_brake()
{ 
	// The dutys are INHIBIT's!  So 1.0 means completely inhibit current.
	set_dutyA(1.0);
    10a6:	60 e0       	ldi	r22, 0x00	; 0
    10a8:	70 e0       	ldi	r23, 0x00	; 0
    10aa:	80 e8       	ldi	r24, 0x80	; 128
    10ac:	9f e3       	ldi	r25, 0x3F	; 63
    10ae:	0e 94 e5 19 	call	0x33ca	; 0x33ca <_Z9set_dutyAf>
	set_dutyB(1.0);
    10b2:	60 e0       	ldi	r22, 0x00	; 0
    10b4:	70 e0       	ldi	r23, 0x00	; 0
    10b6:	80 e8       	ldi	r24, 0x80	; 128
    10b8:	9f e3       	ldi	r25, 0x3F	; 63
    10ba:	0e 94 12 1a 	call	0x3424	; 0x3424 <_Z9set_dutyBf>

	HILOW_PORT |= (1<<HILOW_LEFT);
    10be:	2d 9a       	sbi	0x05, 5	; 5
	HILOW_PORT |= (1<<HILOW_RIGHT);
    10c0:	2e 9a       	sbi	0x05, 6	; 5

	MotorState = MOTOR_BRAKING;	
    10c2:	89 e0       	ldi	r24, 0x09	; 9
    10c4:	80 93 38 02 	sts	0x0238, r24
}
    10c8:	08 95       	ret

000010ca <_Z10motor_stopv>:
void motor_stop()
{
	motor_brake();
    10ca:	0e 94 53 08 	call	0x10a6	; 0x10a6 <_Z11motor_brakev>
	MotorState = MOTOR_OFF;
    10ce:	10 92 38 02 	sts	0x0238, r1
}
    10d2:	08 95       	ret

000010d4 <_Z11stop_actionh>:
	}
}

void stop_action(byte mStop)
{
	if (mStop)
    10d4:	88 23       	and	r24, r24
    10d6:	21 f4       	brne	.+8      	; 0x10e0 <_Z11stop_actionh+0xc>
}

void motor_enable( BOOL mEnable )
{
	if (mEnable)
		MotorState = MOTOR_ENABLED;
    10d8:	88 e0       	ldi	r24, 0x08	; 8
    10da:	80 93 38 02 	sts	0x0238, r24
    10de:	08 95       	ret
}

void stop_action(byte mStop)
{
	if (mStop)
		motor_stop();
    10e0:	0e 94 65 08 	call	0x10ca	; 0x10ca <_Z10motor_stopv>
    10e4:	08 95       	ret

000010e6 <_Z11motor_coastf>:
Input:	mFraction - specifies amount of braking. 
					 1.0 => most Braking.
					 0.0 => most coasting.
*/
void motor_coast( float mFraction )
{
    10e6:	ef 92       	push	r14
    10e8:	ff 92       	push	r15
    10ea:	0f 93       	push	r16
    10ec:	1f 93       	push	r17
    10ee:	7b 01       	movw	r14, r22
    10f0:	8c 01       	movw	r16, r24
	set_dutyA(mFraction);
    10f2:	0e 94 e5 19 	call	0x33ca	; 0x33ca <_Z9set_dutyAf>
	set_dutyB(mFraction);
    10f6:	c8 01       	movw	r24, r16
    10f8:	b7 01       	movw	r22, r14
    10fa:	0e 94 12 1a 	call	0x3424	; 0x3424 <_Z9set_dutyBf>

	HILOW_PORT &= ~(1<<HILOW_LEFT);
    10fe:	2d 98       	cbi	0x05, 5	; 5
	HILOW_PORT &= ~(1<<HILOW_RIGHT);
    1100:	2e 98       	cbi	0x05, 6	; 5
	MotorState = MOTOR_COASTING;	
    1102:	8b e0       	ldi	r24, 0x0B	; 11
    1104:	80 93 38 02 	sts	0x0238, r24
}
    1108:	1f 91       	pop	r17
    110a:	0f 91       	pop	r16
    110c:	ff 90       	pop	r15
    110e:	ef 90       	pop	r14
    1110:	08 95       	ret

00001112 <_Z19set_motor_directionh>:
Rev C (red boards) wiggle the INH line (ENable).  
So these below are the DIRECTION (HI OR LOW SIDE SELECTOR) pins:
*/
void set_motor_direction( BOOL mForward )
{
	if (mForward)
    1112:	88 23       	and	r24, r24
    1114:	39 f4       	brne	.+14     	; 0x1124 <_Z19set_motor_directionh+0x12>
	{
		HILOW_PORT |=  (1<<HILOW_RIGHT );	
		HILOW_PORT |=  (1<<HILOW_LEFT  );
	}
	else {
		HILOW_PORT &=  (1<<HILOW_LEFT );
    1116:	85 b1       	in	r24, 0x05	; 5
    1118:	80 72       	andi	r24, 0x20	; 32
    111a:	85 b9       	out	0x05, r24	; 5
		HILOW_PORT &=  (1<<HILOW_RIGHT);
    111c:	85 b1       	in	r24, 0x05	; 5
    111e:	80 74       	andi	r24, 0x40	; 64
    1120:	85 b9       	out	0x05, r24	; 5
    1122:	08 95       	ret
*/
void set_motor_direction( BOOL mForward )
{
	if (mForward)
	{
		HILOW_PORT |=  (1<<HILOW_RIGHT );	
    1124:	2e 9a       	sbi	0x05, 6	; 5
		HILOW_PORT |=  (1<<HILOW_LEFT  );
    1126:	2d 9a       	sbi	0x05, 5	; 5
    1128:	08 95       	ret

0000112a <_Z14motor_set_dutyfh>:

INPUT:	mFraction - [0.00 .. +1.00]
		mDirection	
*********************************************/
void motor_set_duty( float mFraction, BOOL mDirection )
{
    112a:	df 93       	push	r29
    112c:	cf 93       	push	r28
    112e:	0f 92       	push	r0
    1130:	cd b7       	in	r28, 0x3d	; 61
    1132:	de b7       	in	r29, 0x3e	; 62
	//if (mFraction > 0.0)
	//	set_motor_direction( FALSE );
	//else
	set_motor_direction( TRUE  );
    1134:	81 e0       	ldi	r24, 0x01	; 1
    1136:	49 83       	std	Y+1, r20	; 0x01
    1138:	0e 94 89 08 	call	0x1112	; 0x1112 <_Z19set_motor_directionh>

	float duty = 0.0; //(mFraction/2.) + 0.50;
	duty = 1.0 - mFraction;
	duty = 0.5;
	if (mDirection)
    113c:	49 81       	ldd	r20, Y+1	; 0x01
    113e:	44 23       	and	r20, r20
    1140:	81 f4       	brne	.+32     	; 0x1162 <_Z14motor_set_dutyfh+0x38>
	}
	else 
	{
		// Right is low; Left is high:
		// DutyB			DutyA
		set_dutyA( 1.00	);		// Hold ON!
    1142:	60 e0       	ldi	r22, 0x00	; 0
    1144:	70 e0       	ldi	r23, 0x00	; 0
    1146:	80 e8       	ldi	r24, 0x80	; 128
    1148:	9f e3       	ldi	r25, 0x3F	; 63
    114a:	0e 94 e5 19 	call	0x33ca	; 0x33ca <_Z9set_dutyAf>
		set_dutyB( duty	);		// wiggle Right side power
    114e:	60 e0       	ldi	r22, 0x00	; 0
    1150:	70 e0       	ldi	r23, 0x00	; 0
    1152:	80 e0       	ldi	r24, 0x00	; 0
    1154:	9f e3       	ldi	r25, 0x3F	; 63
    1156:	0e 94 12 1a 	call	0x3424	; 0x3424 <_Z9set_dutyBf>
	}
}
    115a:	0f 90       	pop	r0
    115c:	cf 91       	pop	r28
    115e:	df 91       	pop	r29
    1160:	08 95       	ret
	duty = 0.5;
	if (mDirection)
	{
		// Right is high; Left is low:
		// DutyB			DutyA		
		set_dutyA( duty );			// wiggle Left side power
    1162:	60 e0       	ldi	r22, 0x00	; 0
    1164:	70 e0       	ldi	r23, 0x00	; 0
    1166:	80 e0       	ldi	r24, 0x00	; 0
    1168:	9f e3       	ldi	r25, 0x3F	; 63
    116a:	0e 94 e5 19 	call	0x33ca	; 0x33ca <_Z9set_dutyAf>
		set_dutyB( 1.000 );				// Hold ON!
    116e:	60 e0       	ldi	r22, 0x00	; 0
    1170:	70 e0       	ldi	r23, 0x00	; 0
    1172:	80 e8       	ldi	r24, 0x80	; 128
    1174:	9f e3       	ldi	r25, 0x3F	; 63
    1176:	0e 94 12 1a 	call	0x3424	; 0x3424 <_Z9set_dutyBf>
		// Right is low; Left is high:
		// DutyB			DutyA
		set_dutyA( 1.00	);		// Hold ON!
		set_dutyB( duty	);		// wiggle Right side power
	}
}
    117a:	0f 90       	pop	r0
    117c:	cf 91       	pop	r28
    117e:	df 91       	pop	r29
    1180:	08 95       	ret

00001182 <_Z20motor_timeslice_10msv>:
	word position;

	// Check for STOP conditions:
	// Note if the lights stop working, or this timeslice is not going at all,
	// 	it could be hung up on can_instance.  ie if there are not any other boards in the network.
	if (MotorState == MOTOR_REQUEST_PENDING)
    1182:	80 91 38 02 	lds	r24, 0x0238
    1186:	8a 30       	cpi	r24, 0x0A	; 10
    1188:	b1 f0       	breq	.+44     	; 0x11b6 <_Z20motor_timeslice_10msv+0x34>
    118a:	20 91 3f 03 	lds	r18, 0x033F
			set_dutyB( Destination.speed2 );		// left side needs power too.  
		}
	}

	// READ LATEST POSITION:
	if (isConfigured(MODE_USE_ENCODER) ) {		
    118e:	20 ff       	sbrs	r18, 0
    1190:	0d c0       	rjmp	.+26     	; 0x11ac <_Z20motor_timeslice_10msv+0x2a>
		position = EncoderCount; 	
    1192:	80 91 64 02 	lds	r24, 0x0264
    1196:	90 91 65 02 	lds	r25, 0x0265
	} else {
		position = get_pot(); 	
		// update speed & accel in new Pot_timeslice()
	}

	if (isConfigured(MODE_FREE_SPIN)==FALSE)
    119a:	23 fd       	sbrc	r18, 3
    119c:	04 c0       	rjmp	.+8      	; 0x11a6 <_Z20motor_timeslice_10msv+0x24>
	{
		byte stop = check_stops( position );
    119e:	0e 94 fd 0b 	call	0x17fa	; 0x17fa <_Z11check_stopst>
		stop_action( stop );		// check stops and stop motor if necessary	
    11a2:	0e 94 6a 08 	call	0x10d4	; 0x10d4 <_Z11stop_actionh>
	}
	
	if (destination_reached()) {		// destination works in free spin mode.
    11a6:	0e 94 62 0c 	call	0x18c4	; 0x18c4 <_Z19destination_reachedv>
		//	save_cal();
		//motor_enable(FALSE); 
		//cli();
		// micro to sleep mode:
	}
}
    11aa:	08 95       	ret

	// READ LATEST POSITION:
	if (isConfigured(MODE_USE_ENCODER) ) {		
		position = EncoderCount; 	
	} else {
		position = get_pot(); 	
    11ac:	0e 94 7e 09 	call	0x12fc	; 0x12fc <_Z7get_potv>
    11b0:	20 91 3f 03 	lds	r18, 0x033F
    11b4:	f2 cf       	rjmp	.-28     	; 0x119a <_Z20motor_timeslice_10msv+0x18>
    11b6:	80 91 3f 03 	lds	r24, 0x033F
	// Check for STOP conditions:
	// Note if the lights stop working, or this timeslice is not going at all,
	// 	it could be hung up on can_instance.  ie if there are not any other boards in the network.
	if (MotorState == MOTOR_REQUEST_PENDING)
	{	
		if (isConfigured(MODE_2_MOTORS)==FALSE)
    11ba:	81 fd       	sbrc	r24, 1
    11bc:	11 c0       	rjmp	.+34     	; 0x11e0 <_Z20motor_timeslice_10msv+0x5e>
		{
			if (Destination.coast == HARD_STOP_MOTOR) {
    11be:	80 91 5b 02 	lds	r24, 0x025B
    11c2:	83 36       	cpi	r24, 0x63	; 99
    11c4:	a9 f1       	breq	.+106    	; 0x1230 <_Z20motor_timeslice_10msv+0xae>
				motor_stop(); 
			} else if (Destination.coast) {
    11c6:	88 23       	and	r24, r24
    11c8:	11 f1       	breq	.+68     	; 0x120e <_Z20motor_timeslice_10msv+0x8c>
				motor_coast( Destination.speed );
    11ca:	60 91 53 02 	lds	r22, 0x0253
    11ce:	70 91 54 02 	lds	r23, 0x0254
    11d2:	80 91 55 02 	lds	r24, 0x0255
    11d6:	90 91 56 02 	lds	r25, 0x0256
    11da:	0e 94 73 08 	call	0x10e6	; 0x10e6 <_Z11motor_coastf>
    11de:	d5 cf       	rjmp	.-86     	; 0x118a <_Z20motor_timeslice_10msv+0x8>
				motor_set_duty( Destination.speed, Destination.direction );
			}
		}
		else 
		{	// 2 unidirectional motors (independant PWM dutys)
			HILOW_PORT &= ~(1<<HILOW_LEFT );		// want both low - pulldowns.
    11e0:	2d 98       	cbi	0x05, 5	; 5
			HILOW_PORT &= ~(1<<HILOW_RIGHT);		// 0=> Low side active
    11e2:	2e 98       	cbi	0x05, 6	; 5
			set_dutyA( Destination.speed  );		
    11e4:	60 91 53 02 	lds	r22, 0x0253
    11e8:	70 91 54 02 	lds	r23, 0x0254
    11ec:	80 91 55 02 	lds	r24, 0x0255
    11f0:	90 91 56 02 	lds	r25, 0x0256
    11f4:	0e 94 e5 19 	call	0x33ca	; 0x33ca <_Z9set_dutyAf>
			set_dutyB( Destination.speed2 );		// left side needs power too.  
    11f8:	60 91 57 02 	lds	r22, 0x0257
    11fc:	70 91 58 02 	lds	r23, 0x0258
    1200:	80 91 59 02 	lds	r24, 0x0259
    1204:	90 91 5a 02 	lds	r25, 0x025A
    1208:	0e 94 12 1a 	call	0x3424	; 0x3424 <_Z9set_dutyBf>
    120c:	be cf       	rjmp	.-132    	; 0x118a <_Z20motor_timeslice_10msv+0x8>
			if (Destination.coast == HARD_STOP_MOTOR) {
				motor_stop(); 
			} else if (Destination.coast) {
				motor_coast( Destination.speed );
			} else {
				set_motor_direction( Destination.direction );
    120e:	80 91 52 02 	lds	r24, 0x0252
    1212:	0e 94 89 08 	call	0x1112	; 0x1112 <_Z19set_motor_directionh>
				motor_set_duty( Destination.speed, Destination.direction );
    1216:	60 91 53 02 	lds	r22, 0x0253
    121a:	70 91 54 02 	lds	r23, 0x0254
    121e:	80 91 55 02 	lds	r24, 0x0255
    1222:	90 91 56 02 	lds	r25, 0x0256
    1226:	40 91 52 02 	lds	r20, 0x0252
    122a:	0e 94 95 08 	call	0x112a	; 0x112a <_Z14motor_set_dutyfh>
    122e:	ad cf       	rjmp	.-166    	; 0x118a <_Z20motor_timeslice_10msv+0x8>
	if (MotorState == MOTOR_REQUEST_PENDING)
	{	
		if (isConfigured(MODE_2_MOTORS)==FALSE)
		{
			if (Destination.coast == HARD_STOP_MOTOR) {
				motor_stop(); 
    1230:	0e 94 65 08 	call	0x10ca	; 0x10ca <_Z10motor_stopv>
    1234:	aa cf       	rjmp	.-172    	; 0x118a <_Z20motor_timeslice_10msv+0x8>

00001236 <_Z8pot_initv>:
/**********************************************
Return	:	The motor position in degrees * 10
***********************************************/
void pot_init()
{
	Destination.continuous = 1;
    1236:	81 e0       	ldi	r24, 0x01	; 1
    1238:	80 93 4d 02 	sts	0x024D, r24

	// SET AS INPUT:	
	CURRENT_SENSE_DDR  &= ~((1<<CURRENT_SENSE_LEFT) | (1<<CURRENT_SENSE_RIGHT));
    123c:	87 b1       	in	r24, 0x07	; 7
    123e:	8f 7c       	andi	r24, 0xCF	; 207
    1240:	87 b9       	out	0x07, r24	; 7
	CURRENT_SENSE_PORT &= ~((1<<CURRENT_SENSE_LEFT) | (1<<CURRENT_SENSE_RIGHT));
    1242:	88 b1       	in	r24, 0x08	; 8
    1244:	8f 7c       	andi	r24, 0xCF	; 207
    1246:	88 b9       	out	0x08, r24	; 8

	// SET AS INPUT:
	POT_DDR  &= ~(1<<POT);
    1248:	55 98       	cbi	0x0a, 5	; 10
	POT_PORT &= ~(1<<POT);
    124a:	5d 98       	cbi	0x0b, 5	; 11

	adc_init();	
    124c:	0e 94 75 0e 	call	0x1cea	; 0x1cea <_Z8adc_initv>
	start_sampling();		// Need to call 1 Time to get it started (ISR will keep going)
    1250:	0e 94 89 0e 	call	0x1d12	; 0x1d12 <_Z14start_samplingv>
RETURN	:	Difference between endpoints. Stored in file
			variable.
******************************************************/
void  compute_range()
{
	Range.angle = (EndPoint2.angle - EndPoint1.angle);
    1254:	80 91 28 02 	lds	r24, 0x0228
    1258:	90 91 29 02 	lds	r25, 0x0229
    125c:	a0 91 2a 02 	lds	r26, 0x022A
    1260:	b0 91 2b 02 	lds	r27, 0x022B
    1264:	20 91 22 02 	lds	r18, 0x0222
    1268:	30 91 23 02 	lds	r19, 0x0223
    126c:	40 91 24 02 	lds	r20, 0x0224
    1270:	50 91 25 02 	lds	r21, 0x0225
    1274:	82 1b       	sub	r24, r18
    1276:	93 0b       	sbc	r25, r19
    1278:	a4 0b       	sbc	r26, r20
    127a:	b5 0b       	sbc	r27, r21
    127c:	80 93 2e 02 	sts	0x022E, r24
    1280:	90 93 2f 02 	sts	0x022F, r25
    1284:	a0 93 30 02 	sts	0x0230, r26
    1288:	b0 93 31 02 	sts	0x0231, r27
	Range.value = (EndPoint2.value - EndPoint1.value);
    128c:	80 91 2c 02 	lds	r24, 0x022C
    1290:	90 91 2d 02 	lds	r25, 0x022D
    1294:	20 91 26 02 	lds	r18, 0x0226
    1298:	30 91 27 02 	lds	r19, 0x0227
    129c:	82 1b       	sub	r24, r18
    129e:	93 0b       	sbc	r25, r19
    12a0:	90 93 33 02 	sts	0x0233, r25
    12a4:	80 93 32 02 	sts	0x0232, r24
	POT_PORT &= ~(1<<POT);

	adc_init();	
	start_sampling();		// Need to call 1 Time to get it started (ISR will keep going)
	compute_range();
}
    12a8:	08 95       	ret

000012aa <_Z13pot_timeslicev>:
***********************************************/
void compute_pot_speed()
{
// Problem is Sample Rate versus Report Rate.
// Sample rate must be so high we only see 1 or 2 at the most difference.
	PotSpeed[0] = PotSpeed[1];
    12aa:	20 91 3b 02 	lds	r18, 0x023B
    12ae:	30 91 3c 02 	lds	r19, 0x023C
    12b2:	30 93 3a 02 	sts	0x023A, r19
    12b6:	20 93 39 02 	sts	0x0239, r18
	PotSpeed[1] = (PotSample[1]-PotSample[0]);
    12ba:	80 91 7f 02 	lds	r24, 0x027F
    12be:	90 91 80 02 	lds	r25, 0x0280
    12c2:	ef e7       	ldi	r30, 0x7F	; 127
    12c4:	f2 e0       	ldi	r31, 0x02	; 2
    12c6:	52 91       	ld	r21, -Z
    12c8:	42 91       	ld	r20, -Z
    12ca:	bc 01       	movw	r22, r24
    12cc:	64 1b       	sub	r22, r20
    12ce:	75 0b       	sbc	r23, r21
    12d0:	ab 01       	movw	r20, r22
    12d2:	70 93 3c 02 	sts	0x023C, r23
    12d6:	60 93 3b 02 	sts	0x023B, r22
/**********************************************
Return	:	The motor position in degrees * 10
***********************************************/
void compute_pot_acceleration()
{
	PotAcceleration[0] = PotAcceleration[1];
    12da:	60 91 3f 02 	lds	r22, 0x023F
    12de:	70 91 40 02 	lds	r23, 0x0240
    12e2:	70 93 3e 02 	sts	0x023E, r23
    12e6:	60 93 3d 02 	sts	0x023D, r22
	PotAcceleration[1] = (PotSpeed[1] - PotSpeed[0]);
    12ea:	42 1b       	sub	r20, r18
    12ec:	53 0b       	sbc	r21, r19
    12ee:	50 93 40 02 	sts	0x0240, r21
    12f2:	40 93 3f 02 	sts	0x023F, r20
***********************************************/
void pot_timeslice()
{
	compute_pot_speed();
	compute_pot_acceleration();
	PotSample[0] = PotSample[1];
    12f6:	91 83       	std	Z+1, r25	; 0x01
    12f8:	80 83       	st	Z, r24
}
    12fa:	08 95       	ret

000012fc <_Z7get_potv>:
Return	:	The motor position in degrees * 10
***********************************************/
word get_pot()
{
	return PotSample[1];
}
    12fc:	80 91 7f 02 	lds	r24, 0x027F
    1300:	90 91 80 02 	lds	r25, 0x0280
    1304:	08 95       	ret

00001306 <_Z27get_distance_to_destinationv>:
/**********************************************
Return	:	The motor position in degrees * 10
***********************************************/
word get_distance_to_destination()
{
	return (Destination.position - PotSample[1]);
    1306:	20 91 50 02 	lds	r18, 0x0250
    130a:	30 91 51 02 	lds	r19, 0x0251
    130e:	80 91 7f 02 	lds	r24, 0x027F
    1312:	90 91 80 02 	lds	r25, 0x0280
    1316:	28 1b       	sub	r18, r24
    1318:	39 0b       	sbc	r19, r25
}
    131a:	c9 01       	movw	r24, r18
    131c:	08 95       	ret

0000131e <_Z28get_direction_to_destinationv>:
/**********************************************
Return	:	The motor position in degrees * 10
***********************************************/
byte get_direction_to_destination()
{
	if (Destination.position > PotSample[1]) {
    131e:	20 91 50 02 	lds	r18, 0x0250
    1322:	30 91 51 02 	lds	r19, 0x0251
    1326:	80 91 7f 02 	lds	r24, 0x027F
    132a:	90 91 80 02 	lds	r25, 0x0280
    132e:	82 17       	cp	r24, r18
    1330:	93 07       	cpc	r25, r19
    1332:	58 f0       	brcs	.+22     	; 0x134a <_Z28get_direction_to_destinationv+0x2c>
		Destination.direction = 1;
		return 1;
	}
	else if (Destination.position < PotSample[1]) {
    1334:	28 17       	cp	r18, r24
    1336:	39 07       	cpc	r19, r25
    1338:	20 f4       	brcc	.+8      	; 0x1342 <_Z28get_direction_to_destinationv+0x24>
		Destination.direction = -1;	
    133a:	8f ef       	ldi	r24, 0xFF	; 255
    133c:	80 93 52 02 	sts	0x0252, r24
		return -1;
    1340:	08 95       	ret
	}
	else {
		Destination.direction = 0;
    1342:	10 92 52 02 	sts	0x0252, r1
		return 0;	// exactly at destination
    1346:	80 e0       	ldi	r24, 0x00	; 0
	}
}
    1348:	08 95       	ret
Return	:	The motor position in degrees * 10
***********************************************/
byte get_direction_to_destination()
{
	if (Destination.position > PotSample[1]) {
		Destination.direction = 1;
    134a:	81 e0       	ldi	r24, 0x01	; 1
    134c:	80 93 52 02 	sts	0x0252, r24
		return 1;
    1350:	08 95       	ret

00001352 <_Z17compute_pot_speedv>:
***********************************************/
void compute_pot_speed()
{
// Problem is Sample Rate versus Report Rate.
// Sample rate must be so high we only see 1 or 2 at the most difference.
	PotSpeed[0] = PotSpeed[1];
    1352:	80 91 3b 02 	lds	r24, 0x023B
    1356:	90 91 3c 02 	lds	r25, 0x023C
    135a:	90 93 3a 02 	sts	0x023A, r25
    135e:	80 93 39 02 	sts	0x0239, r24
	PotSpeed[1] = (PotSample[1]-PotSample[0]);
    1362:	80 91 7f 02 	lds	r24, 0x027F
    1366:	90 91 80 02 	lds	r25, 0x0280
    136a:	20 91 7d 02 	lds	r18, 0x027D
    136e:	30 91 7e 02 	lds	r19, 0x027E
    1372:	82 1b       	sub	r24, r18
    1374:	93 0b       	sbc	r25, r19
    1376:	90 93 3c 02 	sts	0x023C, r25
    137a:	80 93 3b 02 	sts	0x023B, r24
}
    137e:	08 95       	ret

00001380 <_Z24compute_pot_accelerationv>:
/**********************************************
Return	:	The motor position in degrees * 10
***********************************************/
void compute_pot_acceleration()
{
	PotAcceleration[0] = PotAcceleration[1];
    1380:	80 91 3f 02 	lds	r24, 0x023F
    1384:	90 91 40 02 	lds	r25, 0x0240
    1388:	90 93 3e 02 	sts	0x023E, r25
    138c:	80 93 3d 02 	sts	0x023D, r24
	PotAcceleration[1] = (PotSpeed[1] - PotSpeed[0]);
    1390:	80 91 3b 02 	lds	r24, 0x023B
    1394:	90 91 3c 02 	lds	r25, 0x023C
    1398:	20 91 39 02 	lds	r18, 0x0239
    139c:	30 91 3a 02 	lds	r19, 0x023A
    13a0:	82 1b       	sub	r24, r18
    13a2:	93 0b       	sbc	r25, r19
    13a4:	90 93 40 02 	sts	0x0240, r25
    13a8:	80 93 3f 02 	sts	0x023F, r24
}
    13ac:	08 95       	ret

000013ae <_Z11pot_percentv>:
Forward is duty > 0.50
Backward is duty [0.0.. 0.5]
******************************************************/
#define MID_WAY ((float)0x1FF)
float pot_percent()
{
    13ae:	ef 92       	push	r14
    13b0:	ff 92       	push	r15
    13b2:	0f 93       	push	r16
    13b4:	1f 93       	push	r17
	float position = PotSample[1];
	word half = (Range.value>>2) + EndPoint1.value;
    13b6:	60 91 32 02 	lds	r22, 0x0232
    13ba:	70 91 33 02 	lds	r23, 0x0233
    13be:	76 95       	lsr	r23
    13c0:	67 95       	ror	r22
    13c2:	76 95       	lsr	r23
    13c4:	67 95       	ror	r22
    13c6:	80 91 26 02 	lds	r24, 0x0226
    13ca:	90 91 27 02 	lds	r25, 0x0227
    13ce:	68 0f       	add	r22, r24
    13d0:	79 1f       	adc	r23, r25
	
	float delta    = (position - half);
    13d2:	80 e0       	ldi	r24, 0x00	; 0
    13d4:	90 e0       	ldi	r25, 0x00	; 0
    13d6:	0e 94 36 21 	call	0x426c	; 0x426c <__floatunsisf>
    13da:	7b 01       	movw	r14, r22
    13dc:	8c 01       	movw	r16, r24
Backward is duty [0.0.. 0.5]
******************************************************/
#define MID_WAY ((float)0x1FF)
float pot_percent()
{
	float position = PotSample[1];
    13de:	60 91 7f 02 	lds	r22, 0x027F
    13e2:	70 91 80 02 	lds	r23, 0x0280
    13e6:	80 e0       	ldi	r24, 0x00	; 0
    13e8:	90 e0       	ldi	r25, 0x00	; 0
    13ea:	0e 94 36 21 	call	0x426c	; 0x426c <__floatunsisf>
	word half = (Range.value>>2) + EndPoint1.value;
	
	float delta    = (position - half);
    13ee:	a8 01       	movw	r20, r16
    13f0:	97 01       	movw	r18, r14
    13f2:	0e 94 1b 1e 	call	0x3c36	; 0x3c36 <__subsf3>
	float percent  = (delta / (float)half);
    13f6:	a8 01       	movw	r20, r16
    13f8:	97 01       	movw	r18, r14
    13fa:	0e 94 46 1f 	call	0x3e8c	; 0x3e8c <__divsf3>
	return percent;
}
    13fe:	1f 91       	pop	r17
    1400:	0f 91       	pop	r16
    1402:	ff 90       	pop	r15
    1404:	ef 90       	pop	r14
    1406:	08 95       	ret

00001408 <_Z16convert_to_anglet>:
convert_to_angle( word  mPotValue )
RETURN	:	Takes a Pot reading and converts to an angle
	based on the already calibrated stops.
******************************************************/
float convert_to_angle( word  mPotValue )
{
    1408:	af 92       	push	r10
    140a:	bf 92       	push	r11
    140c:	cf 92       	push	r12
    140e:	df 92       	push	r13
    1410:	ef 92       	push	r14
    1412:	ff 92       	push	r15
    1414:	0f 93       	push	r16
    1416:	1f 93       	push	r17
    1418:	cf 93       	push	r28
    141a:	df 93       	push	r29
    141c:	ec 01       	movw	r28, r24
	// Linear Interpolate:  (Value-MinValue) / ValueRange = (angle-MinAngle) / angleRange
	float ratio = (mPotValue-get_min_stop_value()) / Range.value;
	float angle = ( ratio * Range.angle );			// range has the *100 in it
	return angle + get_min_stop_angle();
    141e:	20 91 28 02 	lds	r18, 0x0228
    1422:	30 91 29 02 	lds	r19, 0x0229
    1426:	40 91 2a 02 	lds	r20, 0x022A
    142a:	50 91 2b 02 	lds	r21, 0x022B
    142e:	60 91 22 02 	lds	r22, 0x0222
    1432:	70 91 23 02 	lds	r23, 0x0223
    1436:	80 91 24 02 	lds	r24, 0x0224
    143a:	90 91 25 02 	lds	r25, 0x0225
    143e:	26 17       	cp	r18, r22
    1440:	37 07       	cpc	r19, r23
    1442:	48 07       	cpc	r20, r24
    1444:	59 07       	cpc	r21, r25
    1446:	14 f4       	brge	.+4      	; 0x144c <_Z16convert_to_anglet+0x44>
    1448:	ca 01       	movw	r24, r20
    144a:	b9 01       	movw	r22, r18
    144c:	0e 94 84 20 	call	0x4108	; 0x4108 <__floatsisf>
    1450:	5b 01       	movw	r10, r22
    1452:	6c 01       	movw	r12, r24
******************************************************/
float convert_to_angle( word  mPotValue )
{
	// Linear Interpolate:  (Value-MinValue) / ValueRange = (angle-MinAngle) / angleRange
	float ratio = (mPotValue-get_min_stop_value()) / Range.value;
	float angle = ( ratio * Range.angle );			// range has the *100 in it
    1454:	60 91 2e 02 	lds	r22, 0x022E
    1458:	70 91 2f 02 	lds	r23, 0x022F
    145c:	80 91 30 02 	lds	r24, 0x0230
    1460:	90 91 31 02 	lds	r25, 0x0231
    1464:	0e 94 84 20 	call	0x4108	; 0x4108 <__floatsisf>
    1468:	7b 01       	movw	r14, r22
    146a:	8c 01       	movw	r16, r24
	based on the already calibrated stops.
******************************************************/
float convert_to_angle( word  mPotValue )
{
	// Linear Interpolate:  (Value-MinValue) / ValueRange = (angle-MinAngle) / angleRange
	float ratio = (mPotValue-get_min_stop_value()) / Range.value;
    146c:	20 91 2c 02 	lds	r18, 0x022C
    1470:	30 91 2d 02 	lds	r19, 0x022D
    1474:	80 91 26 02 	lds	r24, 0x0226
    1478:	90 91 27 02 	lds	r25, 0x0227
    147c:	28 17       	cp	r18, r24
    147e:	39 07       	cpc	r19, r25
    1480:	08 f4       	brcc	.+2      	; 0x1484 <_Z16convert_to_anglet+0x7c>
    1482:	c9 01       	movw	r24, r18
    1484:	9e 01       	movw	r18, r28
    1486:	28 1b       	sub	r18, r24
    1488:	39 0b       	sbc	r19, r25
    148a:	c9 01       	movw	r24, r18
    148c:	60 91 32 02 	lds	r22, 0x0232
    1490:	70 91 33 02 	lds	r23, 0x0233
    1494:	0e 94 97 23 	call	0x472e	; 0x472e <__udivmodhi4>
    1498:	80 e0       	ldi	r24, 0x00	; 0
    149a:	90 e0       	ldi	r25, 0x00	; 0
    149c:	0e 94 36 21 	call	0x426c	; 0x426c <__floatunsisf>
    14a0:	9b 01       	movw	r18, r22
    14a2:	ac 01       	movw	r20, r24
	float angle = ( ratio * Range.angle );			// range has the *100 in it
    14a4:	c8 01       	movw	r24, r16
    14a6:	b7 01       	movw	r22, r14
    14a8:	0e 94 4c 1e 	call	0x3c98	; 0x3c98 <__mulsf3>
    14ac:	9b 01       	movw	r18, r22
    14ae:	ac 01       	movw	r20, r24
	return angle + get_min_stop_angle();
    14b0:	c6 01       	movw	r24, r12
    14b2:	b5 01       	movw	r22, r10
    14b4:	0e 94 ee 1d 	call	0x3bdc	; 0x3bdc <__addsf3>
}
    14b8:	df 91       	pop	r29
    14ba:	cf 91       	pop	r28
    14bc:	1f 91       	pop	r17
    14be:	0f 91       	pop	r16
    14c0:	ff 90       	pop	r15
    14c2:	ef 90       	pop	r14
    14c4:	df 90       	pop	r13
    14c6:	cf 90       	pop	r12
    14c8:	bf 90       	pop	r11
    14ca:	af 90       	pop	r10
    14cc:	08 95       	ret

000014ce <_Z13get_pot_anglev>:
/**********************************************
Return	:	The motor position in degrees * 10
***********************************************/
long int  get_pot_angle()
{
	return convert_to_angle(PotSample[1]);
    14ce:	80 91 7f 02 	lds	r24, 0x027F
    14d2:	90 91 80 02 	lds	r25, 0x0280
    14d6:	0e 94 04 0a 	call	0x1408	; 0x1408 <_Z16convert_to_anglet>
    14da:	0e 94 e4 20 	call	0x41c8	; 0x41c8 <__fixsfsi>
}
    14de:	08 95       	ret

000014e0 <_Z21convert_to_fixedpointf>:
	float angle = ( ratio * Range.angle );			// range has the *100 in it
	return angle + get_min_stop_angle();
}
long int convert_to_fixedpoint( float  mRealNumber )
{
	long int fp = (mRealNumber * 100);
    14e0:	20 e0       	ldi	r18, 0x00	; 0
    14e2:	30 e0       	ldi	r19, 0x00	; 0
    14e4:	48 ec       	ldi	r20, 0xC8	; 200
    14e6:	52 e4       	ldi	r21, 0x42	; 66
    14e8:	0e 94 4c 1e 	call	0x3c98	; 0x3c98 <__mulsf3>
    14ec:	0e 94 e4 20 	call	0x41c8	; 0x41c8 <__fixsfsi>
	return fp;
}
    14f0:	08 95       	ret

000014f2 <_Z16convert_to_valuel>:
convert_to_value( float mAngle )
RETURN	:	Takes an Angle and converts to an expected
	POT reading.
******************************************************/
word  convert_to_value( long mAngleHundredthDeg )
{
    14f2:	af 92       	push	r10
    14f4:	bf 92       	push	r11
    14f6:	cf 92       	push	r12
    14f8:	df 92       	push	r13
    14fa:	ef 92       	push	r14
    14fc:	ff 92       	push	r15
    14fe:	0f 93       	push	r16
    1500:	1f 93       	push	r17
    1502:	7b 01       	movw	r14, r22
    1504:	8c 01       	movw	r16, r24
	// Linear Interpolate:  (Value / ValueRange) = (angle / angleRange)
	float ratio 	= (mAngleHundredthDeg - get_min_stop_angle()) / Range.angle;
	float pot_value = (ratio * Range.value) + get_min_stop_value();
    1506:	60 91 32 02 	lds	r22, 0x0232
    150a:	70 91 33 02 	lds	r23, 0x0233
    150e:	80 e0       	ldi	r24, 0x00	; 0
    1510:	90 e0       	ldi	r25, 0x00	; 0
    1512:	0e 94 36 21 	call	0x426c	; 0x426c <__floatunsisf>
    1516:	5b 01       	movw	r10, r22
    1518:	6c 01       	movw	r12, r24
	POT reading.
******************************************************/
word  convert_to_value( long mAngleHundredthDeg )
{
	// Linear Interpolate:  (Value / ValueRange) = (angle / angleRange)
	float ratio 	= (mAngleHundredthDeg - get_min_stop_angle()) / Range.angle;
    151a:	20 91 28 02 	lds	r18, 0x0228
    151e:	30 91 29 02 	lds	r19, 0x0229
    1522:	40 91 2a 02 	lds	r20, 0x022A
    1526:	50 91 2b 02 	lds	r21, 0x022B
    152a:	80 91 22 02 	lds	r24, 0x0222
    152e:	90 91 23 02 	lds	r25, 0x0223
    1532:	a0 91 24 02 	lds	r26, 0x0224
    1536:	b0 91 25 02 	lds	r27, 0x0225
    153a:	28 17       	cp	r18, r24
    153c:	39 07       	cpc	r19, r25
    153e:	4a 07       	cpc	r20, r26
    1540:	5b 07       	cpc	r21, r27
    1542:	14 f4       	brge	.+4      	; 0x1548 <_Z16convert_to_valuel+0x56>
    1544:	da 01       	movw	r26, r20
    1546:	c9 01       	movw	r24, r18
    1548:	a8 01       	movw	r20, r16
    154a:	97 01       	movw	r18, r14
    154c:	28 1b       	sub	r18, r24
    154e:	39 0b       	sbc	r19, r25
    1550:	4a 0b       	sbc	r20, r26
    1552:	5b 0b       	sbc	r21, r27
    1554:	ca 01       	movw	r24, r20
    1556:	b9 01       	movw	r22, r18
    1558:	20 91 2e 02 	lds	r18, 0x022E
    155c:	30 91 2f 02 	lds	r19, 0x022F
    1560:	40 91 30 02 	lds	r20, 0x0230
    1564:	50 91 31 02 	lds	r21, 0x0231
    1568:	0e 94 be 23 	call	0x477c	; 0x477c <__divmodsi4>
    156c:	ca 01       	movw	r24, r20
    156e:	b9 01       	movw	r22, r18
    1570:	0e 94 84 20 	call	0x4108	; 0x4108 <__floatsisf>
    1574:	9b 01       	movw	r18, r22
    1576:	ac 01       	movw	r20, r24
	float pot_value = (ratio * Range.value) + get_min_stop_value();
    1578:	c6 01       	movw	r24, r12
    157a:	b5 01       	movw	r22, r10
    157c:	0e 94 4c 1e 	call	0x3c98	; 0x3c98 <__mulsf3>
    1580:	7b 01       	movw	r14, r22
    1582:	8c 01       	movw	r16, r24
    1584:	80 91 2c 02 	lds	r24, 0x022C
    1588:	90 91 2d 02 	lds	r25, 0x022D
    158c:	60 91 26 02 	lds	r22, 0x0226
    1590:	70 91 27 02 	lds	r23, 0x0227
    1594:	86 17       	cp	r24, r22
    1596:	97 07       	cpc	r25, r23
    1598:	08 f4       	brcc	.+2      	; 0x159c <_Z16convert_to_valuel+0xaa>
    159a:	bc 01       	movw	r22, r24
    159c:	80 e0       	ldi	r24, 0x00	; 0
    159e:	90 e0       	ldi	r25, 0x00	; 0
    15a0:	0e 94 36 21 	call	0x426c	; 0x426c <__floatunsisf>
    15a4:	9b 01       	movw	r18, r22
    15a6:	ac 01       	movw	r20, r24
    15a8:	c8 01       	movw	r24, r16
    15aa:	b7 01       	movw	r22, r14
    15ac:	0e 94 ee 1d 	call	0x3bdc	; 0x3bdc <__addsf3>
	return (word)pot_value;
    15b0:	0e 94 78 1c 	call	0x38f0	; 0x38f0 <__fixunssfsi>
}
    15b4:	cb 01       	movw	r24, r22
    15b6:	1f 91       	pop	r17
    15b8:	0f 91       	pop	r16
    15ba:	ff 90       	pop	r15
    15bc:	ef 90       	pop	r14
    15be:	df 90       	pop	r13
    15c0:	cf 90       	pop	r12
    15c2:	bf 90       	pop	r11
    15c4:	af 90       	pop	r10
    15c6:	08 95       	ret

000015c8 <_Z21compute_default_stopsv>:
RETURN	:	float => Percentage between [0.0 .. 1.0]

******************************************************/
void  compute_default_stops()
{
	EndPoint1.value = 25; 			//(0.1 * MIN_POT_VALUE);		// 10 % limits
    15c8:	89 e1       	ldi	r24, 0x19	; 25
    15ca:	90 e0       	ldi	r25, 0x00	; 0
    15cc:	90 93 27 02 	sts	0x0227, r25
    15d0:	80 93 26 02 	sts	0x0226, r24
	EndPoint2.value = 0x3ff-25; 	//(0.9 * MAX_POT_VALUE);		// 10 % limits	
    15d4:	86 ee       	ldi	r24, 0xE6	; 230
    15d6:	93 e0       	ldi	r25, 0x03	; 3
    15d8:	90 93 2d 02 	sts	0x022D, r25
    15dc:	80 93 2c 02 	sts	0x022C, r24
	
	EndPoint1.angle =   0*100;		// 0 degrees
    15e0:	10 92 22 02 	sts	0x0222, r1
    15e4:	10 92 23 02 	sts	0x0223, r1
    15e8:	10 92 24 02 	sts	0x0224, r1
    15ec:	10 92 25 02 	sts	0x0225, r1
	EndPoint2.angle = 300*100;		// Most Pots turn 300 degrees
    15f0:	80 e3       	ldi	r24, 0x30	; 48
    15f2:	95 e7       	ldi	r25, 0x75	; 117
    15f4:	a0 e0       	ldi	r26, 0x00	; 0
    15f6:	b0 e0       	ldi	r27, 0x00	; 0
    15f8:	80 93 28 02 	sts	0x0228, r24
    15fc:	90 93 29 02 	sts	0x0229, r25
    1600:	a0 93 2a 02 	sts	0x022A, r26
    1604:	b0 93 2b 02 	sts	0x022B, r27
}
    1608:	08 95       	ret

0000160a <_Z13compute_rangev>:
RETURN	:	Difference between endpoints. Stored in file
			variable.
******************************************************/
void  compute_range()
{
	Range.angle = (EndPoint2.angle - EndPoint1.angle);
    160a:	80 91 28 02 	lds	r24, 0x0228
    160e:	90 91 29 02 	lds	r25, 0x0229
    1612:	a0 91 2a 02 	lds	r26, 0x022A
    1616:	b0 91 2b 02 	lds	r27, 0x022B
    161a:	20 91 22 02 	lds	r18, 0x0222
    161e:	30 91 23 02 	lds	r19, 0x0223
    1622:	40 91 24 02 	lds	r20, 0x0224
    1626:	50 91 25 02 	lds	r21, 0x0225
    162a:	82 1b       	sub	r24, r18
    162c:	93 0b       	sbc	r25, r19
    162e:	a4 0b       	sbc	r26, r20
    1630:	b5 0b       	sbc	r27, r21
    1632:	80 93 2e 02 	sts	0x022E, r24
    1636:	90 93 2f 02 	sts	0x022F, r25
    163a:	a0 93 30 02 	sts	0x0230, r26
    163e:	b0 93 31 02 	sts	0x0231, r27
	Range.value = (EndPoint2.value - EndPoint1.value);
    1642:	80 91 2c 02 	lds	r24, 0x022C
    1646:	90 91 2d 02 	lds	r25, 0x022D
    164a:	20 91 26 02 	lds	r18, 0x0226
    164e:	30 91 27 02 	lds	r19, 0x0227
    1652:	82 1b       	sub	r24, r18
    1654:	93 0b       	sbc	r25, r19
    1656:	90 93 33 02 	sts	0x0233, r25
    165a:	80 93 32 02 	sts	0x0232, r24
}
    165e:	08 95       	ret

00001660 <_Z18get_min_stop_valuev>:
/*******************************************************
get_min_stop_value()
RETURN	:	Lesser of the 2 stop endpoints.  Value only.
******************************************************/
word	  get_min_stop_value()
{
    1660:	80 91 2c 02 	lds	r24, 0x022C
    1664:	90 91 2d 02 	lds	r25, 0x022D
    1668:	20 91 26 02 	lds	r18, 0x0226
    166c:	30 91 27 02 	lds	r19, 0x0227
    1670:	82 17       	cp	r24, r18
    1672:	93 07       	cpc	r25, r19
    1674:	08 f4       	brcc	.+2      	; 0x1678 <_Z18get_min_stop_valuev+0x18>
    1676:	9c 01       	movw	r18, r24
	return min( EndPoint2.value, EndPoint1.value);	
}
    1678:	c9 01       	movw	r24, r18
    167a:	08 95       	ret

0000167c <_Z18get_min_stop_anglev>:
/*******************************************************
get_min_stop_value()
RETURN	:	Lesser of the 2 stop endpoints.  Value only.
******************************************************/
long int  get_min_stop_angle()
{
    167c:	80 91 28 02 	lds	r24, 0x0228
    1680:	90 91 29 02 	lds	r25, 0x0229
    1684:	a0 91 2a 02 	lds	r26, 0x022A
    1688:	b0 91 2b 02 	lds	r27, 0x022B
    168c:	20 91 22 02 	lds	r18, 0x0222
    1690:	30 91 23 02 	lds	r19, 0x0223
    1694:	40 91 24 02 	lds	r20, 0x0224
    1698:	50 91 25 02 	lds	r21, 0x0225
    169c:	82 17       	cp	r24, r18
    169e:	93 07       	cpc	r25, r19
    16a0:	a4 07       	cpc	r26, r20
    16a2:	b5 07       	cpc	r27, r21
    16a4:	14 f4       	brge	.+4      	; 0x16aa <_Z18get_min_stop_anglev+0x2e>
    16a6:	9c 01       	movw	r18, r24
    16a8:	ad 01       	movw	r20, r26
	return min( EndPoint2.angle , EndPoint1.angle);
}
    16aa:	b9 01       	movw	r22, r18
    16ac:	ca 01       	movw	r24, r20
    16ae:	08 95       	ret

000016b0 <_Z18get_max_stop_valuev>:
/*******************************************************
get_max_stop_value()
RETURN	:	Greater of the 2 stop endpoints.  Value only.
******************************************************/
word	  get_max_stop_value()
{
    16b0:	80 91 2c 02 	lds	r24, 0x022C
    16b4:	90 91 2d 02 	lds	r25, 0x022D
    16b8:	20 91 26 02 	lds	r18, 0x0226
    16bc:	30 91 27 02 	lds	r19, 0x0227
    16c0:	28 17       	cp	r18, r24
    16c2:	39 07       	cpc	r19, r25
    16c4:	08 f4       	brcc	.+2      	; 0x16c8 <_Z18get_max_stop_valuev+0x18>
    16c6:	9c 01       	movw	r18, r24
	return max( EndPoint2.value, EndPoint1.value );
}
    16c8:	c9 01       	movw	r24, r18
    16ca:	08 95       	ret

000016cc <_Z18get_max_stop_anglev>:
/*******************************************************
get_max_stop_angle()
RETURN	:	Greater of the 2 stop endpoints.  Angle only.
******************************************************/
long int  get_max_stop_angle()
{
    16cc:	80 91 28 02 	lds	r24, 0x0228
    16d0:	90 91 29 02 	lds	r25, 0x0229
    16d4:	a0 91 2a 02 	lds	r26, 0x022A
    16d8:	b0 91 2b 02 	lds	r27, 0x022B
    16dc:	20 91 22 02 	lds	r18, 0x0222
    16e0:	30 91 23 02 	lds	r19, 0x0223
    16e4:	40 91 24 02 	lds	r20, 0x0224
    16e8:	50 91 25 02 	lds	r21, 0x0225
    16ec:	28 17       	cp	r18, r24
    16ee:	39 07       	cpc	r19, r25
    16f0:	4a 07       	cpc	r20, r26
    16f2:	5b 07       	cpc	r21, r27
    16f4:	14 f4       	brge	.+4      	; 0x16fa <_Z18get_max_stop_anglev+0x2e>
    16f6:	9c 01       	movw	r18, r24
    16f8:	ad 01       	movw	r20, r26
	return max( EndPoint2.angle , EndPoint1.angle);
}
    16fa:	b9 01       	movw	r22, r18
    16fc:	ca 01       	movw	r24, r20
    16fe:	08 95       	ret

00001700 <_Z20order_stops_by_valuev>:
get_min_stop_value()
RETURN	:	Lesser of the 2 stop endpoints.  Value only.
******************************************************/
word	  get_min_stop_value()
{
	return min( EndPoint2.value, EndPoint1.value);	
    1700:	e0 91 2c 02 	lds	r30, 0x022C
    1704:	f0 91 2d 02 	lds	r31, 0x022D
    1708:	60 91 26 02 	lds	r22, 0x0226
    170c:	70 91 27 02 	lds	r23, 0x0227
    1710:	e6 17       	cp	r30, r22
    1712:	f7 07       	cpc	r31, r23
    1714:	40 f5       	brcc	.+80     	; 0x1766 <_Z20order_stops_by_valuev+0x66>
{
	word Min = get_min_stop_value();
	if (EndPoint1.value == Min) return;		// okay

	// SWAP EP1 & EP2:
	long int tangle = EndPoint1.angle;
    1716:	80 91 22 02 	lds	r24, 0x0222
    171a:	90 91 23 02 	lds	r25, 0x0223
    171e:	a0 91 24 02 	lds	r26, 0x0224
    1722:	b0 91 25 02 	lds	r27, 0x0225
	word     tvalue = EndPoint1.value;
	
	EndPoint1.angle = EndPoint2.angle;
    1726:	20 91 28 02 	lds	r18, 0x0228
    172a:	30 91 29 02 	lds	r19, 0x0229
    172e:	40 91 2a 02 	lds	r20, 0x022A
    1732:	50 91 2b 02 	lds	r21, 0x022B
    1736:	20 93 22 02 	sts	0x0222, r18
    173a:	30 93 23 02 	sts	0x0223, r19
    173e:	40 93 24 02 	sts	0x0224, r20
    1742:	50 93 25 02 	sts	0x0225, r21
	EndPoint1.value = EndPoint2.value;		
    1746:	f0 93 27 02 	sts	0x0227, r31
    174a:	e0 93 26 02 	sts	0x0226, r30
	EndPoint2.angle = tangle;
    174e:	80 93 28 02 	sts	0x0228, r24
    1752:	90 93 29 02 	sts	0x0229, r25
    1756:	a0 93 2a 02 	sts	0x022A, r26
    175a:	b0 93 2b 02 	sts	0x022B, r27
	EndPoint2.value = tvalue;	
    175e:	70 93 2d 02 	sts	0x022D, r23
    1762:	60 93 2c 02 	sts	0x022C, r22
    1766:	08 95       	ret

00001768 <_Z20order_stops_by_anglev>:
/*******************************************************
get_max_stop_angle()
RETURN	:	Greater of the 2 stop endpoints.  Angle only.
******************************************************/
void  order_stops_by_angle( )
{
    1768:	ef 92       	push	r14
    176a:	ff 92       	push	r15
    176c:	0f 93       	push	r16
    176e:	1f 93       	push	r17
get_min_stop_value()
RETURN	:	Lesser of the 2 stop endpoints.  Value only.
******************************************************/
long int  get_min_stop_angle()
{
	return min( EndPoint2.angle , EndPoint1.angle);
    1770:	20 91 28 02 	lds	r18, 0x0228
    1774:	30 91 29 02 	lds	r19, 0x0229
    1778:	40 91 2a 02 	lds	r20, 0x022A
    177c:	50 91 2b 02 	lds	r21, 0x022B
    1780:	80 91 22 02 	lds	r24, 0x0222
    1784:	90 91 23 02 	lds	r25, 0x0223
    1788:	a0 91 24 02 	lds	r26, 0x0224
    178c:	b0 91 25 02 	lds	r27, 0x0225
get_max_stop_angle()
RETURN	:	Greater of the 2 stop endpoints.  Angle only.
******************************************************/
void  order_stops_by_angle( )
{
	word Min = get_min_stop_angle();
    1790:	7c 01       	movw	r14, r24
    1792:	8d 01       	movw	r16, r26
    1794:	28 17       	cp	r18, r24
    1796:	39 07       	cpc	r19, r25
    1798:	4a 07       	cpc	r20, r26
    179a:	5b 07       	cpc	r21, r27
    179c:	14 f4       	brge	.+4      	; 0x17a2 <_Z20order_stops_by_anglev+0x3a>
    179e:	79 01       	movw	r14, r18
    17a0:	8a 01       	movw	r16, r20
	if (EndPoint1.angle == Min) return;		// okay
    17a2:	00 e0       	ldi	r16, 0x00	; 0
    17a4:	10 e0       	ldi	r17, 0x00	; 0
    17a6:	e8 16       	cp	r14, r24
    17a8:	f9 06       	cpc	r15, r25
    17aa:	0a 07       	cpc	r16, r26
    17ac:	1b 07       	cpc	r17, r27
    17ae:	01 f1       	breq	.+64     	; 0x17f0 <_Z20order_stops_by_anglev+0x88>

	// SWAP EP1 & EP2:
	long int tangle = EndPoint1.angle;
	word     tvalue = EndPoint1.value;
    17b0:	60 91 26 02 	lds	r22, 0x0226
    17b4:	70 91 27 02 	lds	r23, 0x0227
	
	EndPoint1.angle = EndPoint2.angle;
    17b8:	20 93 22 02 	sts	0x0222, r18
    17bc:	30 93 23 02 	sts	0x0223, r19
    17c0:	40 93 24 02 	sts	0x0224, r20
    17c4:	50 93 25 02 	sts	0x0225, r21
	EndPoint1.value = EndPoint2.value;		
    17c8:	20 91 2c 02 	lds	r18, 0x022C
    17cc:	30 91 2d 02 	lds	r19, 0x022D
    17d0:	30 93 27 02 	sts	0x0227, r19
    17d4:	20 93 26 02 	sts	0x0226, r18
	EndPoint2.angle = tangle;
    17d8:	80 93 28 02 	sts	0x0228, r24
    17dc:	90 93 29 02 	sts	0x0229, r25
    17e0:	a0 93 2a 02 	sts	0x022A, r26
    17e4:	b0 93 2b 02 	sts	0x022B, r27
	EndPoint2.value = tvalue;
    17e8:	70 93 2d 02 	sts	0x022D, r23
    17ec:	60 93 2c 02 	sts	0x022C, r22
}
    17f0:	1f 91       	pop	r17
    17f2:	0f 91       	pop	r16
    17f4:	ff 90       	pop	r15
    17f6:	ef 90       	pop	r14
    17f8:	08 95       	ret

000017fa <_Z11check_stopst>:
			1 = Under the Lower stop
			2 = Over the top stop
***********************************************/
#define HYSTERESIS_THRESHOLD 7
byte  check_stops( word  mPotValue )
{
    17fa:	cf 93       	push	r28
    17fc:	df 93       	push	r29
    17fe:	ec 01       	movw	r28, r24
	static byte previous_state = 0;
	led_off(LIMIT_MIN);
    1800:	83 e0       	ldi	r24, 0x03	; 3
    1802:	0e 94 e4 17 	call	0x2fc8	; 0x2fc8 <_Z7led_offh>
	led_off(LIMIT_MAX);
    1806:	84 e0       	ldi	r24, 0x04	; 4
    1808:	0e 94 e4 17 	call	0x2fc8	; 0x2fc8 <_Z7led_offh>

	if (previous_state==1)		// IN STOP 1
    180c:	80 91 5d 02 	lds	r24, 0x025D
    1810:	81 30       	cpi	r24, 0x01	; 1
    1812:	a1 f0       	breq	.+40     	; 0x183c <_Z11check_stopst+0x42>
		else {
			led_on(LIMIT_MIN);
			return previous_state;		
		}
	}
	if (previous_state==2)		// IN STOP 2
    1814:	82 30       	cpi	r24, 0x02	; 2
    1816:	01 f1       	breq	.+64     	; 0x1858 <_Z11check_stopst+0x5e>
			led_on(LIMIT_MAX);		
			return previous_state;		
		}
	}
		
	if (mPotValue < EndPoint1.value)
    1818:	80 91 26 02 	lds	r24, 0x0226
    181c:	90 91 27 02 	lds	r25, 0x0227
    1820:	c8 17       	cp	r28, r24
    1822:	d9 07       	cpc	r29, r25
    1824:	38 f1       	brcs	.+78     	; 0x1874 <_Z11check_stopst+0x7a>
	{
		led_on(LIMIT_MIN);
		previous_state = 1;
		return 1;
	}
	if (mPotValue > EndPoint2.value)
    1826:	80 91 2c 02 	lds	r24, 0x022C
    182a:	90 91 2d 02 	lds	r25, 0x022D
    182e:	8c 17       	cp	r24, r28
    1830:	9d 07       	cpc	r25, r29
    1832:	78 f1       	brcs	.+94     	; 0x1892 <_Z11check_stopst+0x98>
	{
		led_on(LIMIT_MAX);
		previous_state = 2;
		return 2;
	}
	return 0;
    1834:	80 e0       	ldi	r24, 0x00	; 0
}
    1836:	df 91       	pop	r29
    1838:	cf 91       	pop	r28
    183a:	08 95       	ret
	led_off(LIMIT_MIN);
	led_off(LIMIT_MAX);

	if (previous_state==1)		// IN STOP 1
	{
		word hysteresis = EndPoint1.value + HYSTERESIS_THRESHOLD;
    183c:	80 91 26 02 	lds	r24, 0x0226
    1840:	90 91 27 02 	lds	r25, 0x0227
    1844:	07 96       	adiw	r24, 0x07	; 7
		if (mPotValue > hysteresis) {
    1846:	8c 17       	cp	r24, r28
    1848:	9d 07       	cpc	r25, r29
    184a:	e8 f4       	brcc	.+58     	; 0x1886 <_Z11check_stopst+0x8c>
	}
	if (previous_state==2)		// IN STOP 2
	{
		word hysteresis = EndPoint2.value - HYSTERESIS_THRESHOLD;
		if (mPotValue < hysteresis) {
			previous_state = 0;
    184c:	10 92 5d 02 	sts	0x025D, r1
			return 0;
    1850:	80 e0       	ldi	r24, 0x00	; 0
		led_on(LIMIT_MAX);
		previous_state = 2;
		return 2;
	}
	return 0;
}
    1852:	df 91       	pop	r29
    1854:	cf 91       	pop	r28
    1856:	08 95       	ret
			return previous_state;		
		}
	}
	if (previous_state==2)		// IN STOP 2
	{
		word hysteresis = EndPoint2.value - HYSTERESIS_THRESHOLD;
    1858:	80 91 2c 02 	lds	r24, 0x022C
    185c:	90 91 2d 02 	lds	r25, 0x022D
    1860:	07 97       	sbiw	r24, 0x07	; 7
		if (mPotValue < hysteresis) {
    1862:	c8 17       	cp	r28, r24
    1864:	d9 07       	cpc	r29, r25
    1866:	90 f3       	brcs	.-28     	; 0x184c <_Z11check_stopst+0x52>
			previous_state = 0;
			return 0;
		}
		else {
			led_on(LIMIT_MAX);		
    1868:	84 e0       	ldi	r24, 0x04	; 4
    186a:	0e 94 dd 17 	call	0x2fba	; 0x2fba <_Z6led_onh>
			return previous_state;		
    186e:	80 91 5d 02 	lds	r24, 0x025D
    1872:	e1 cf       	rjmp	.-62     	; 0x1836 <_Z11check_stopst+0x3c>
		}
	}
		
	if (mPotValue < EndPoint1.value)
	{
		led_on(LIMIT_MIN);
    1874:	83 e0       	ldi	r24, 0x03	; 3
    1876:	0e 94 dd 17 	call	0x2fba	; 0x2fba <_Z6led_onh>
		previous_state = 1;
    187a:	81 e0       	ldi	r24, 0x01	; 1
    187c:	80 93 5d 02 	sts	0x025D, r24
		led_on(LIMIT_MAX);
		previous_state = 2;
		return 2;
	}
	return 0;
}
    1880:	df 91       	pop	r29
    1882:	cf 91       	pop	r28
    1884:	08 95       	ret
		if (mPotValue > hysteresis) {
			previous_state = 0;
			return 0;
		}
		else {
			led_on(LIMIT_MIN);
    1886:	83 e0       	ldi	r24, 0x03	; 3
    1888:	0e 94 dd 17 	call	0x2fba	; 0x2fba <_Z6led_onh>
			return previous_state;		
    188c:	80 91 5d 02 	lds	r24, 0x025D
    1890:	d2 cf       	rjmp	.-92     	; 0x1836 <_Z11check_stopst+0x3c>
		previous_state = 1;
		return 1;
	}
	if (mPotValue > EndPoint2.value)
	{
		led_on(LIMIT_MAX);
    1892:	84 e0       	ldi	r24, 0x04	; 4
    1894:	0e 94 dd 17 	call	0x2fba	; 0x2fba <_Z6led_onh>
		previous_state = 2;
    1898:	82 e0       	ldi	r24, 0x02	; 2
    189a:	80 93 5d 02 	sts	0x025D, r24
		return 2;
	}
	return 0;
}
    189e:	df 91       	pop	r29
    18a0:	cf 91       	pop	r28
    18a2:	08 95       	ret

000018a4 <_Z11check_stalltt>:
			1 = Over current Left side
			2 = Over current Right side
***********************************************/
byte	check_stall( word  mLeftCurrent, word mRightCurrent )
{
	if (mLeftCurrent > current_2_threshold)
    18a4:	20 91 03 01 	lds	r18, 0x0103
    18a8:	30 91 04 01 	lds	r19, 0x0104
    18ac:	28 17       	cp	r18, r24
    18ae:	39 07       	cpc	r19, r25
    18b0:	38 f0       	brcs	.+14     	; 0x18c0 <_Z11check_stalltt+0x1c>
		return 1;
	if (mRightCurrent > current_2_threshold)
    18b2:	26 17       	cp	r18, r22
    18b4:	37 07       	cpc	r19, r23
    18b6:	10 f0       	brcs	.+4      	; 0x18bc <_Z11check_stalltt+0x18>
		return 2;
	return 0;
    18b8:	80 e0       	ldi	r24, 0x00	; 0
}
    18ba:	08 95       	ret
byte	check_stall( word  mLeftCurrent, word mRightCurrent )
{
	if (mLeftCurrent > current_2_threshold)
		return 1;
	if (mRightCurrent > current_2_threshold)
		return 2;
    18bc:	82 e0       	ldi	r24, 0x02	; 2
    18be:	08 95       	ret
			2 = Over current Right side
***********************************************/
byte	check_stall( word  mLeftCurrent, word mRightCurrent )
{
	if (mLeftCurrent > current_2_threshold)
		return 1;
    18c0:	81 e0       	ldi	r24, 0x01	; 1
    18c2:	08 95       	ret

000018c4 <_Z19destination_reachedv>:
			1 = Exactly reached
			2 = Close over
			3 = Close under
***********************************************/
byte	  destination_reached(  )
{
    18c4:	ef 92       	push	r14
    18c6:	ff 92       	push	r15
    18c8:	0f 93       	push	r16
    18ca:	1f 93       	push	r17
    18cc:	cf 93       	push	r28
    18ce:	df 93       	push	r29
	static byte previous_state=0;	
	if (Destination.continuous)	return 0;
    18d0:	80 91 4d 02 	lds	r24, 0x024D
    18d4:	88 23       	and	r24, r24
    18d6:	f9 f4       	brne	.+62     	; 0x1916 <_Z19destination_reachedv+0x52>

	if (Destination.position == PotSample[1])
    18d8:	60 91 50 02 	lds	r22, 0x0250
    18dc:	70 91 51 02 	lds	r23, 0x0251
    18e0:	c0 91 7f 02 	lds	r28, 0x027F
    18e4:	d0 91 80 02 	lds	r29, 0x0280
    18e8:	6c 17       	cp	r22, r28
    18ea:	7d 07       	cpc	r23, r29
    18ec:	19 f1       	breq	.+70     	; 0x1934 <_Z19destination_reachedv+0x70>
		return 1;

	if (previous_state==2)
    18ee:	80 91 5c 02 	lds	r24, 0x025C
    18f2:	82 30       	cpi	r24, 0x02	; 2
    18f4:	39 f1       	breq	.+78     	; 0x1944 <_Z19destination_reachedv+0x80>
			return 0;
		}
		else return previous_state;		
	}

	if (previous_state==3)
    18f6:	83 30       	cpi	r24, 0x03	; 3
    18f8:	f1 f1       	breq	.+124    	; 0x1976 <_Z19destination_reachedv+0xb2>
		}
		else return previous_state;
	}

	// Check for overage
	if (Destination.starting_position < Destination.position)
    18fa:	80 91 4e 02 	lds	r24, 0x024E
    18fe:	90 91 4f 02 	lds	r25, 0x024F
    1902:	86 17       	cp	r24, r22
    1904:	97 07       	cpc	r25, r23
    1906:	78 f4       	brcc	.+30     	; 0x1926 <_Z19destination_reachedv+0x62>
	{
		// Approaching upward:
		if (PotSample[1] > Destination.position) {
    1908:	6c 17       	cp	r22, r28
    190a:	7d 07       	cpc	r23, r29
    190c:	20 f4       	brcc	.+8      	; 0x1916 <_Z19destination_reachedv+0x52>
			previous_state = 2;
    190e:	82 e0       	ldi	r24, 0x02	; 2
    1910:	80 93 5c 02 	sts	0x025C, r24
			return 2;		// reached upwardly
    1914:	01 c0       	rjmp	.+2      	; 0x1918 <_Z19destination_reachedv+0x54>
		if ( PotSample[1] < Destination.position ) {
			previous_state = 3;
			return 3;		// reached downwardly
		}
	}
	return 0;	// Keep going!
    1916:	80 e0       	ldi	r24, 0x00	; 0
}
    1918:	df 91       	pop	r29
    191a:	cf 91       	pop	r28
    191c:	1f 91       	pop	r17
    191e:	0f 91       	pop	r16
    1920:	ff 90       	pop	r15
    1922:	ef 90       	pop	r14
    1924:	08 95       	ret
			return 2;		// reached upwardly
		} 
	}
	else 
	{	// Approaching downward:
		if ( PotSample[1] < Destination.position ) {
    1926:	c6 17       	cp	r28, r22
    1928:	d7 07       	cpc	r29, r23
    192a:	a8 f7       	brcc	.-22     	; 0x1916 <_Z19destination_reachedv+0x52>
			previous_state = 3;
    192c:	83 e0       	ldi	r24, 0x03	; 3
    192e:	80 93 5c 02 	sts	0x025C, r24
			return 3;		// reached downwardly
    1932:	f2 cf       	rjmp	.-28     	; 0x1918 <_Z19destination_reachedv+0x54>
{
	static byte previous_state=0;	
	if (Destination.continuous)	return 0;

	if (Destination.position == PotSample[1])
		return 1;
    1934:	81 e0       	ldi	r24, 0x01	; 1
			previous_state = 3;
			return 3;		// reached downwardly
		}
	}
	return 0;	// Keep going!
}
    1936:	df 91       	pop	r29
    1938:	cf 91       	pop	r28
    193a:	1f 91       	pop	r17
    193c:	0f 91       	pop	r16
    193e:	ff 90       	pop	r15
    1940:	ef 90       	pop	r14
    1942:	08 95       	ret
	if (Destination.position == PotSample[1])
		return 1;

	if (previous_state==2)
	{
		word hysteresis = Destination.position - (0.1*Destination.position);
    1944:	80 e0       	ldi	r24, 0x00	; 0
    1946:	90 e0       	ldi	r25, 0x00	; 0
    1948:	0e 94 36 21 	call	0x426c	; 0x426c <__floatunsisf>
    194c:	7b 01       	movw	r14, r22
    194e:	8c 01       	movw	r16, r24
    1950:	2d ec       	ldi	r18, 0xCD	; 205
    1952:	3c ec       	ldi	r19, 0xCC	; 204
    1954:	4c ec       	ldi	r20, 0xCC	; 204
    1956:	5d e3       	ldi	r21, 0x3D	; 61
    1958:	0e 94 4c 1e 	call	0x3c98	; 0x3c98 <__mulsf3>
    195c:	9b 01       	movw	r18, r22
    195e:	ac 01       	movw	r20, r24
    1960:	c8 01       	movw	r24, r16
    1962:	b7 01       	movw	r22, r14
    1964:	0e 94 1b 1e 	call	0x3c36	; 0x3c36 <__subsf3>
    1968:	0e 94 78 1c 	call	0x38f0	; 0x38f0 <__fixunssfsi>
		if (PotSample[1] < hysteresis) {
    196c:	c6 17       	cp	r28, r22
    196e:	d7 07       	cpc	r29, r23
    1970:	c8 f0       	brcs	.+50     	; 0x19a4 <_Z19destination_reachedv+0xe0>
    1972:	82 e0       	ldi	r24, 0x02	; 2
    1974:	d1 cf       	rjmp	.-94     	; 0x1918 <_Z19destination_reachedv+0x54>
		else return previous_state;		
	}

	if (previous_state==3)
	{
		word hysteresis = Destination.position + (0.1*Destination.position);
    1976:	80 e0       	ldi	r24, 0x00	; 0
    1978:	90 e0       	ldi	r25, 0x00	; 0
    197a:	0e 94 36 21 	call	0x426c	; 0x426c <__floatunsisf>
    197e:	7b 01       	movw	r14, r22
    1980:	8c 01       	movw	r16, r24
    1982:	2d ec       	ldi	r18, 0xCD	; 205
    1984:	3c ec       	ldi	r19, 0xCC	; 204
    1986:	4c ec       	ldi	r20, 0xCC	; 204
    1988:	5d e3       	ldi	r21, 0x3D	; 61
    198a:	0e 94 4c 1e 	call	0x3c98	; 0x3c98 <__mulsf3>
    198e:	9b 01       	movw	r18, r22
    1990:	ac 01       	movw	r20, r24
    1992:	c8 01       	movw	r24, r16
    1994:	b7 01       	movw	r22, r14
    1996:	0e 94 ee 1d 	call	0x3bdc	; 0x3bdc <__addsf3>
    199a:	0e 94 78 1c 	call	0x38f0	; 0x38f0 <__fixunssfsi>
		if (PotSample[1] > hysteresis) {
    199e:	6c 17       	cp	r22, r28
    19a0:	7d 07       	cpc	r23, r29
    19a2:	50 f4       	brcc	.+20     	; 0x19b8 <_Z19destination_reachedv+0xf4>
			previous_state = 0;
    19a4:	10 92 5c 02 	sts	0x025C, r1
			return 0;
    19a8:	80 e0       	ldi	r24, 0x00	; 0
			previous_state = 3;
			return 3;		// reached downwardly
		}
	}
	return 0;	// Keep going!
}
    19aa:	df 91       	pop	r29
    19ac:	cf 91       	pop	r28
    19ae:	1f 91       	pop	r17
    19b0:	0f 91       	pop	r16
    19b2:	ff 90       	pop	r15
    19b4:	ef 90       	pop	r14
    19b6:	08 95       	ret
	}

	if (previous_state==3)
	{
		word hysteresis = Destination.position + (0.1*Destination.position);
		if (PotSample[1] > hysteresis) {
    19b8:	83 e0       	ldi	r24, 0x03	; 3
    19ba:	ae cf       	rjmp	.-164    	; 0x1918 <_Z19destination_reachedv+0x54>

000019bc <__vector_22>:
byte prev_q2 = 0;			// Holds the previous sample of the Q1 quadrature input.
byte prev_direction = CW;

// This covers PCint pins[7:0]
ISR ( PCINT0_vect )
{
    19bc:	1f 92       	push	r1
    19be:	0f 92       	push	r0
    19c0:	0f b6       	in	r0, 0x3f	; 63
    19c2:	0f 92       	push	r0
    19c4:	11 24       	eor	r1, r1
    19c6:	2f 93       	push	r18
    19c8:	3f 93       	push	r19
    19ca:	8f 93       	push	r24
    19cc:	9f 93       	push	r25
	byte reg = PINB;		// PortB In
    19ce:	83 b1       	in	r24, 0x03	; 3
	byte q1 = (reg & (1<<ENCODER_Q1));
    19d0:	28 2f       	mov	r18, r24
    19d2:	28 70       	andi	r18, 0x08	; 8
	byte q2 = (reg & (1<<ENCODER_Q2));
    19d4:	38 2f       	mov	r19, r24
    19d6:	30 71       	andi	r19, 0x10	; 16
	byte Direction = CW;

	// Decode Direction & Count!
	// Determine direction by the value of Q2 when Q1 transitions high.
	if ((prev_q1==0) && (q1))		// Low to High
    19d8:	80 91 6c 02 	lds	r24, 0x026C
    19dc:	88 23       	and	r24, r24
    19de:	69 f4       	brne	.+26     	; 0x19fa <__vector_22+0x3e>
    19e0:	22 23       	and	r18, r18
    19e2:	59 f0       	breq	.+22     	; 0x19fa <__vector_22+0x3e>
	{
		if (q2) Direction = CW;
    19e4:	33 23       	and	r19, r19
    19e6:	b1 f0       	breq	.+44     	; 0x1a14 <__vector_22+0x58>
		else 	Direction = CCW;
		
		if (Direction == CW)
			EncoderCount++;		// never reset.  Holds _THE_ count from min stop.
    19e8:	80 91 64 02 	lds	r24, 0x0264
    19ec:	90 91 65 02 	lds	r25, 0x0265
    19f0:	01 96       	adiw	r24, 0x01	; 1
    19f2:	90 93 65 02 	sts	0x0265, r25
    19f6:	80 93 64 02 	sts	0x0264, r24
		else 
			EncoderCount--;
	}

	prev_q1 = q1;
    19fa:	20 93 6c 02 	sts	0x026C, r18
	prev_q2 = q2;
    19fe:	30 93 6d 02 	sts	0x026D, r19
	// PCIF flag is automatically cleared by entering this routine!
}
    1a02:	9f 91       	pop	r25
    1a04:	8f 91       	pop	r24
    1a06:	3f 91       	pop	r19
    1a08:	2f 91       	pop	r18
    1a0a:	0f 90       	pop	r0
    1a0c:	0f be       	out	0x3f, r0	; 63
    1a0e:	0f 90       	pop	r0
    1a10:	1f 90       	pop	r1
    1a12:	18 95       	reti
		else 	Direction = CCW;
		
		if (Direction == CW)
			EncoderCount++;		// never reset.  Holds _THE_ count from min stop.
		else 
			EncoderCount--;
    1a14:	80 91 64 02 	lds	r24, 0x0264
    1a18:	90 91 65 02 	lds	r25, 0x0265
    1a1c:	01 97       	sbiw	r24, 0x01	; 1
    1a1e:	90 93 65 02 	sts	0x0265, r25
    1a22:	80 93 64 02 	sts	0x0264, r24
    1a26:	e9 cf       	rjmp	.-46     	; 0x19fa <__vector_22+0x3e>

00001a28 <_Z12encoder_initv>:
}

void encoder_init()
{
	// SET INPUTS:
	ENCODER_DDR &= ~ENCODER_DDR_INPUT_MASK;		// see pin_definitions.h
    1a28:	84 b1       	in	r24, 0x04	; 4
    1a2a:	83 7e       	andi	r24, 0xE3	; 227
    1a2c:	84 b9       	out	0x04, r24	; 4

	// Enable Interrupts on Rising Edges:
	PCMSK0 |= ((1<<ENCODER_Q1) | (1<<ENCODER_Q2));	  // | (1<<ENCODER_INDEX);
    1a2e:	ea e6       	ldi	r30, 0x6A	; 106
    1a30:	f0 e0       	ldi	r31, 0x00	; 0
    1a32:	80 81       	ld	r24, Z
    1a34:	88 61       	ori	r24, 0x18	; 24
    1a36:	80 83       	st	Z, r24
	PCICR  |= 0x01;     //PCIE0;
    1a38:	e8 e6       	ldi	r30, 0x68	; 104
    1a3a:	f0 e0       	ldi	r31, 0x00	; 0
    1a3c:	80 81       	ld	r24, Z
    1a3e:	81 60       	ori	r24, 0x01	; 1
    1a40:	80 83       	st	Z, r24
	
	// Think these are for the non-maskable INT0,INT1,INT2,INT3.
	// Anyway they are totally different pins!
	//EIMSK |= 0x01;		//INT0
	//EICRA |= 0x03;		// Rising edges.
}
    1a42:	08 95       	ret

00001a44 <_Z15encoder_disablev>:

void encoder_disable()
{
	// Disable Interrupts on Rising Edges: 
	PCMSK0 &= ~((1<<ENCODER_Q1) | (1<<ENCODER_Q2));		// zero the bits.	
    1a44:	ea e6       	ldi	r30, 0x6A	; 106
    1a46:	f0 e0       	ldi	r31, 0x00	; 0
    1a48:	80 81       	ld	r24, Z
    1a4a:	87 7e       	andi	r24, 0xE7	; 231
    1a4c:	80 83       	st	Z, r24
	PCICR  &= ~0x01;     //PCIE0;		
    1a4e:	e8 e6       	ldi	r30, 0x68	; 104
    1a50:	f0 e0       	ldi	r31, 0x00	; 0
    1a52:	80 81       	ld	r24, Z
    1a54:	8e 7f       	andi	r24, 0xFE	; 254
    1a56:	80 83       	st	Z, r24
}
    1a58:	08 95       	ret

00001a5a <_Z17encoder_timeslicev>:

/* Call every ~20ms ==> 50hz */
// Counts per Second : 
void encoder_timeslice()
{
    1a5a:	ef 92       	push	r14
    1a5c:	ff 92       	push	r15
    1a5e:	0f 93       	push	r16
    1a60:	1f 93       	push	r17
    1a62:	cf 93       	push	r28
    1a64:	df 93       	push	r29
	EncoderSpeed 		= (EncoderCount - EncoderCountPrev) * 50;		// for 10ms task : *100
    1a66:	c0 91 64 02 	lds	r28, 0x0264
    1a6a:	d0 91 65 02 	lds	r29, 0x0265
    1a6e:	80 91 5e 02 	lds	r24, 0x025E
    1a72:	90 91 5f 02 	lds	r25, 0x025F
    1a76:	9e 01       	movw	r18, r28
    1a78:	28 1b       	sub	r18, r24
    1a7a:	39 0b       	sbc	r19, r25
    1a7c:	82 e3       	ldi	r24, 0x32	; 50
    1a7e:	90 e0       	ldi	r25, 0x00	; 0
    1a80:	28 9f       	mul	r18, r24
    1a82:	b0 01       	movw	r22, r0
    1a84:	29 9f       	mul	r18, r25
    1a86:	70 0d       	add	r23, r0
    1a88:	38 9f       	mul	r19, r24
    1a8a:	70 0d       	add	r23, r0
    1a8c:	11 24       	eor	r1, r1
    1a8e:	70 93 67 02 	sts	0x0267, r23
    1a92:	60 93 66 02 	sts	0x0266, r22
	EncoderAcceleration = (EncoderSpeed - EncoderSpeedPrev) * 50;		// counts per second per second
    1a96:	80 e0       	ldi	r24, 0x00	; 0
    1a98:	90 e0       	ldi	r25, 0x00	; 0
    1a9a:	0e 94 36 21 	call	0x426c	; 0x426c <__floatunsisf>
    1a9e:	7b 01       	movw	r14, r22
    1aa0:	8c 01       	movw	r16, r24
    1aa2:	20 91 60 02 	lds	r18, 0x0260
    1aa6:	30 91 61 02 	lds	r19, 0x0261
    1aaa:	40 91 62 02 	lds	r20, 0x0262
    1aae:	50 91 63 02 	lds	r21, 0x0263
    1ab2:	0e 94 1b 1e 	call	0x3c36	; 0x3c36 <__subsf3>
    1ab6:	20 e0       	ldi	r18, 0x00	; 0
    1ab8:	30 e0       	ldi	r19, 0x00	; 0
    1aba:	48 e4       	ldi	r20, 0x48	; 72
    1abc:	52 e4       	ldi	r21, 0x42	; 66
    1abe:	0e 94 4c 1e 	call	0x3c98	; 0x3c98 <__mulsf3>
    1ac2:	60 93 68 02 	sts	0x0268, r22
    1ac6:	70 93 69 02 	sts	0x0269, r23
    1aca:	80 93 6a 02 	sts	0x026A, r24
    1ace:	90 93 6b 02 	sts	0x026B, r25

	//EncoderSpeed++;	// for debug!	to tell if we're getting here.
	
	EncoderCountPrev 	= EncoderCount;
    1ad2:	d0 93 5f 02 	sts	0x025F, r29
    1ad6:	c0 93 5e 02 	sts	0x025E, r28
	EncoderSpeedPrev 	= EncoderSpeed;
    1ada:	e0 92 60 02 	sts	0x0260, r14
    1ade:	f0 92 61 02 	sts	0x0261, r15
    1ae2:	00 93 62 02 	sts	0x0262, r16
    1ae6:	10 93 63 02 	sts	0x0263, r17
}
    1aea:	df 91       	pop	r29
    1aec:	cf 91       	pop	r28
    1aee:	1f 91       	pop	r17
    1af0:	0f 91       	pop	r16
    1af2:	ff 90       	pop	r15
    1af4:	ef 90       	pop	r14
    1af6:	08 95       	ret

00001af8 <_Z17get_encoder_anglev>:
long int  get_encoder_angle()
{
	// Need to fix!  Verify stops are at least word size.  
	//return convert_to_angle( EncoderCount );
	return 0;
}
    1af8:	60 e0       	ldi	r22, 0x00	; 0
    1afa:	70 e0       	ldi	r23, 0x00	; 0
    1afc:	cb 01       	movw	r24, r22
    1afe:	08 95       	ret

00001b00 <_Z11OS_Dispatchv>:
{	
	if ((OS_Event_TIC_Counter % 5) == 0)	// 5ms tasks
	{
		//FS_Timeslice();
	}
	if ((OS_Event_TIC_Counter % 10) == 0) 	// 10ms tasks
    1b00:	20 91 39 03 	lds	r18, 0x0339
    1b04:	30 91 3a 03 	lds	r19, 0x033A
    1b08:	c9 01       	movw	r24, r18
    1b0a:	6a e0       	ldi	r22, 0x0A	; 10
    1b0c:	70 e0       	ldi	r23, 0x00	; 0
    1b0e:	0e 94 ab 23 	call	0x4756	; 0x4756 <__divmodhi4>
    1b12:	00 97       	sbiw	r24, 0x00	; 0
    1b14:	71 f0       	breq	.+28     	; 0x1b32 <_Z11OS_Dispatchv+0x32>
	{		
		motor_timeslice_10ms();
		report_timeslice_10ms();
		pot_timeslice();					// update speed,accel
	}
	if ((OS_Event_TIC_Counter % 20) == 0)	// 20ms tasks
    1b16:	c9 01       	movw	r24, r18
    1b18:	64 e1       	ldi	r22, 0x14	; 20
    1b1a:	70 e0       	ldi	r23, 0x00	; 0
    1b1c:	0e 94 ab 23 	call	0x4756	; 0x4756 <__divmodhi4>
    1b20:	00 97       	sbiw	r24, 0x00	; 0
    1b22:	19 f4       	brne	.+6      	; 0x1b2a <_Z11OS_Dispatchv+0x2a>
    1b24:	80 91 3f 03 	lds	r24, 0x033F
	{	
		if (isConfigured(MODE_USE_ENCODER))
    1b28:	80 ff       	sbrs	r24, 0
    1b2a:	08 95       	ret
			encoder_timeslice();
    1b2c:	0e 94 2d 0d 	call	0x1a5a	; 0x1a5a <_Z17encoder_timeslicev>
    1b30:	08 95       	ret
	{
		//FS_Timeslice();
	}
	if ((OS_Event_TIC_Counter % 10) == 0) 	// 10ms tasks
	{		
		motor_timeslice_10ms();
    1b32:	0e 94 c1 08 	call	0x1182	; 0x1182 <_Z20motor_timeslice_10msv>
		report_timeslice_10ms();
    1b36:	0e 94 fa 07 	call	0xff4	; 0xff4 <_Z21report_timeslice_10msv>
		pot_timeslice();					// update speed,accel
    1b3a:	0e 94 55 09 	call	0x12aa	; 0x12aa <_Z13pot_timeslicev>
    1b3e:	20 91 39 03 	lds	r18, 0x0339
    1b42:	30 91 3a 03 	lds	r19, 0x033A
    1b46:	e7 cf       	rjmp	.-50     	; 0x1b16 <_Z11OS_Dispatchv+0x16>

00001b48 <__vector_27>:
byte next_channel = 0;
byte sample_counter = 0;
#define NUM_AVGS 10

ISR ( ADC_vect )
{
    1b48:	1f 92       	push	r1
    1b4a:	0f 92       	push	r0
    1b4c:	0f b6       	in	r0, 0x3f	; 63
    1b4e:	0f 92       	push	r0
    1b50:	11 24       	eor	r1, r1
    1b52:	ef 92       	push	r14
    1b54:	ff 92       	push	r15
    1b56:	0f 93       	push	r16
    1b58:	1f 93       	push	r17
    1b5a:	2f 93       	push	r18
    1b5c:	3f 93       	push	r19
    1b5e:	4f 93       	push	r20
    1b60:	5f 93       	push	r21
    1b62:	6f 93       	push	r22
    1b64:	7f 93       	push	r23
    1b66:	8f 93       	push	r24
    1b68:	9f 93       	push	r25
    1b6a:	af 93       	push	r26
    1b6c:	bf 93       	push	r27
    1b6e:	cf 93       	push	r28
    1b70:	df 93       	push	r29
    1b72:	ef 93       	push	r30
    1b74:	ff 93       	push	r31
	if (sample_counter++ > NUM_AVGS) {
    1b76:	80 91 82 02 	lds	r24, 0x0282
    1b7a:	98 2f       	mov	r25, r24
    1b7c:	9f 5f       	subi	r25, 0xFF	; 255
    1b7e:	90 93 82 02 	sts	0x0282, r25
    1b82:	8b 30       	cpi	r24, 0x0B	; 11
    1b84:	10 f0       	brcs	.+4      	; 0x1b8a <__vector_27+0x42>
		sample_counter=0;
    1b86:	10 92 82 02 	sts	0x0282, r1
	}
	word result = ADCL;
    1b8a:	80 91 78 00 	lds	r24, 0x0078
	result      += (ADCH<<8);
    1b8e:	90 91 79 00 	lds	r25, 0x0079
    1b92:	d9 2f       	mov	r29, r25
    1b94:	90 e0       	ldi	r25, 0x00	; 0
    1b96:	c9 2f       	mov	r28, r25
    1b98:	c8 0f       	add	r28, r24
    1b9a:	d1 1d       	adc	r29, r1
	switch(next_channel)				// Round Robin style measurements
    1b9c:	80 91 81 02 	lds	r24, 0x0281
    1ba0:	81 30       	cpi	r24, 0x01	; 1
    1ba2:	09 f4       	brne	.+2      	; 0x1ba6 <__vector_27+0x5e>
    1ba4:	63 c0       	rjmp	.+198    	; 0x1c6c <__vector_27+0x124>
    1ba6:	81 30       	cpi	r24, 0x01	; 1
    1ba8:	08 f4       	brcc	.+2      	; 0x1bac <__vector_27+0x64>
    1baa:	50 c0       	rjmp	.+160    	; 0x1c4c <__vector_27+0x104>
    1bac:	82 30       	cpi	r24, 0x02	; 2
    1bae:	69 f5       	brne	.+90     	; 0x1c0a <__vector_27+0xc2>
			next_channel = 2;
			ADMUX = CURRSENSE_RIGHT_MUX;	// Select Right Current Read
			ADCSRA |= (1<<ADSC);			// Start conversion
			break;
			
	case 2:	RightCurrentSample = result;	
    1bb0:	d0 93 7c 02 	sts	0x027C, r29
    1bb4:	c0 93 7b 02 	sts	0x027B, r28
			RightCurrentSampleAvg = (gamma*RightCurrentSampleAvg) + alpha*((float)RightCurrentSample);
    1bb8:	60 91 75 02 	lds	r22, 0x0275
    1bbc:	70 91 76 02 	lds	r23, 0x0276
    1bc0:	80 91 77 02 	lds	r24, 0x0277
    1bc4:	90 91 78 02 	lds	r25, 0x0278
    1bc8:	2d ec       	ldi	r18, 0xCD	; 205
    1bca:	3c ec       	ldi	r19, 0xCC	; 204
    1bcc:	4c e4       	ldi	r20, 0x4C	; 76
    1bce:	5f e3       	ldi	r21, 0x3F	; 63
    1bd0:	0e 94 4c 1e 	call	0x3c98	; 0x3c98 <__mulsf3>
    1bd4:	7b 01       	movw	r14, r22
    1bd6:	8c 01       	movw	r16, r24
    1bd8:	be 01       	movw	r22, r28
    1bda:	80 e0       	ldi	r24, 0x00	; 0
    1bdc:	90 e0       	ldi	r25, 0x00	; 0
    1bde:	0e 94 36 21 	call	0x426c	; 0x426c <__floatunsisf>
    1be2:	2d ec       	ldi	r18, 0xCD	; 205
    1be4:	3c ec       	ldi	r19, 0xCC	; 204
    1be6:	4c e4       	ldi	r20, 0x4C	; 76
    1be8:	5e e3       	ldi	r21, 0x3E	; 62
    1bea:	0e 94 4c 1e 	call	0x3c98	; 0x3c98 <__mulsf3>
    1bee:	9b 01       	movw	r18, r22
    1bf0:	ac 01       	movw	r20, r24
    1bf2:	c8 01       	movw	r24, r16
    1bf4:	b7 01       	movw	r22, r14
    1bf6:	0e 94 ee 1d 	call	0x3bdc	; 0x3bdc <__addsf3>
    1bfa:	60 93 75 02 	sts	0x0275, r22
    1bfe:	70 93 76 02 	sts	0x0276, r23
    1c02:	80 93 77 02 	sts	0x0277, r24
    1c06:	90 93 78 02 	sts	0x0278, r25
			ADMUX = POT_MUX;		// Select POT	
			ADCSRA |= (1<<ADSC);	// Start conversion
			break;

	default: 			
			next_channel = 0;
    1c0a:	10 92 81 02 	sts	0x0281, r1
			ADMUX = POT_MUX;		// Select POT	
    1c0e:	82 e4       	ldi	r24, 0x42	; 66
    1c10:	80 93 7c 00 	sts	0x007C, r24
			ADCSRA |= (1<<ADSC);	// Start conversion
    1c14:	80 91 7a 00 	lds	r24, 0x007A
    1c18:	80 64       	ori	r24, 0x40	; 64
    1c1a:	80 93 7a 00 	sts	0x007A, r24
			break;
	}
	// Clear IF automatically?	
}
    1c1e:	ff 91       	pop	r31
    1c20:	ef 91       	pop	r30
    1c22:	df 91       	pop	r29
    1c24:	cf 91       	pop	r28
    1c26:	bf 91       	pop	r27
    1c28:	af 91       	pop	r26
    1c2a:	9f 91       	pop	r25
    1c2c:	8f 91       	pop	r24
    1c2e:	7f 91       	pop	r23
    1c30:	6f 91       	pop	r22
    1c32:	5f 91       	pop	r21
    1c34:	4f 91       	pop	r20
    1c36:	3f 91       	pop	r19
    1c38:	2f 91       	pop	r18
    1c3a:	1f 91       	pop	r17
    1c3c:	0f 91       	pop	r16
    1c3e:	ff 90       	pop	r15
    1c40:	ef 90       	pop	r14
    1c42:	0f 90       	pop	r0
    1c44:	0f be       	out	0x3f, r0	; 63
    1c46:	0f 90       	pop	r0
    1c48:	1f 90       	pop	r1
    1c4a:	18 95       	reti
	}
	word result = ADCL;
	result      += (ADCH<<8);
	switch(next_channel)				// Round Robin style measurements
	{
	case 0:	PotSample[1] = result;
    1c4c:	d0 93 80 02 	sts	0x0280, r29
    1c50:	c0 93 7f 02 	sts	0x027F, r28
			next_channel = 1;
    1c54:	81 e0       	ldi	r24, 0x01	; 1
    1c56:	80 93 81 02 	sts	0x0281, r24
			ADMUX = CURRSENSE_LEFT_MUX;		// Select Left Current Read
    1c5a:	88 e4       	ldi	r24, 0x48	; 72
    1c5c:	80 93 7c 00 	sts	0x007C, r24
			ADCSRA |= (1<<ADSC);			// Start conversion
    1c60:	80 91 7a 00 	lds	r24, 0x007A
    1c64:	80 64       	ori	r24, 0x40	; 64
    1c66:	80 93 7a 00 	sts	0x007A, r24
			break;
    1c6a:	d9 cf       	rjmp	.-78     	; 0x1c1e <__vector_27+0xd6>
			
	case 1:	LeftCurrentSample = result;
    1c6c:	d0 93 7a 02 	sts	0x027A, r29
    1c70:	c0 93 79 02 	sts	0x0279, r28
			LeftCurrentSampleAvg = (gamma*LeftCurrentSampleAvg) + alpha*((float)LeftCurrentSample);
    1c74:	60 91 71 02 	lds	r22, 0x0271
    1c78:	70 91 72 02 	lds	r23, 0x0272
    1c7c:	80 91 73 02 	lds	r24, 0x0273
    1c80:	90 91 74 02 	lds	r25, 0x0274
    1c84:	2d ec       	ldi	r18, 0xCD	; 205
    1c86:	3c ec       	ldi	r19, 0xCC	; 204
    1c88:	4c e4       	ldi	r20, 0x4C	; 76
    1c8a:	5f e3       	ldi	r21, 0x3F	; 63
    1c8c:	0e 94 4c 1e 	call	0x3c98	; 0x3c98 <__mulsf3>
    1c90:	7b 01       	movw	r14, r22
    1c92:	8c 01       	movw	r16, r24
    1c94:	be 01       	movw	r22, r28
    1c96:	80 e0       	ldi	r24, 0x00	; 0
    1c98:	90 e0       	ldi	r25, 0x00	; 0
    1c9a:	0e 94 36 21 	call	0x426c	; 0x426c <__floatunsisf>
    1c9e:	2d ec       	ldi	r18, 0xCD	; 205
    1ca0:	3c ec       	ldi	r19, 0xCC	; 204
    1ca2:	4c e4       	ldi	r20, 0x4C	; 76
    1ca4:	5e e3       	ldi	r21, 0x3E	; 62
    1ca6:	0e 94 4c 1e 	call	0x3c98	; 0x3c98 <__mulsf3>
    1caa:	9b 01       	movw	r18, r22
    1cac:	ac 01       	movw	r20, r24
    1cae:	c8 01       	movw	r24, r16
    1cb0:	b7 01       	movw	r22, r14
    1cb2:	0e 94 ee 1d 	call	0x3bdc	; 0x3bdc <__addsf3>
    1cb6:	60 93 71 02 	sts	0x0271, r22
    1cba:	70 93 72 02 	sts	0x0272, r23
    1cbe:	80 93 73 02 	sts	0x0273, r24
    1cc2:	90 93 74 02 	sts	0x0274, r25
			next_channel = 2;
    1cc6:	82 e0       	ldi	r24, 0x02	; 2
    1cc8:	80 93 81 02 	sts	0x0281, r24
			ADMUX = CURRSENSE_RIGHT_MUX;	// Select Right Current Read
    1ccc:	89 e4       	ldi	r24, 0x49	; 73
    1cce:	80 93 7c 00 	sts	0x007C, r24
			ADCSRA |= (1<<ADSC);			// Start conversion
    1cd2:	80 91 7a 00 	lds	r24, 0x007A
    1cd6:	80 64       	ori	r24, 0x40	; 64
    1cd8:	80 93 7a 00 	sts	0x007A, r24
			break;
    1cdc:	a0 cf       	rjmp	.-192    	; 0x1c1e <__vector_27+0xd6>

00001cde <_Z9adc_sleepv>:
***********************************************/
/* To SAVE Power - Shut down the ADC block */
void adc_sleep()
{
	// Clear ADEN bit
	ADCSRA &= ~ADEN;
    1cde:	ea e7       	ldi	r30, 0x7A	; 122
    1ce0:	f0 e0       	ldi	r31, 0x00	; 0
    1ce2:	80 81       	ld	r24, Z
    1ce4:	88 7f       	andi	r24, 0xF8	; 248
    1ce6:	80 83       	st	Z, r24
}
    1ce8:	08 95       	ret

00001cea <_Z8adc_initv>:
/* Set up the ADC.  Needed for the current sense and pot	*/
void adc_init()
{	
	// Enable the ADC  (ADEN in ADCSRA)
	byte reg = (1<<ADEN) | (1<<ADIE) | (1<<ADIF) | 0x03;
	ADCSRA = reg;  //0x83; 
    1cea:	8b e9       	ldi	r24, 0x9B	; 155
    1cec:	80 93 7a 00 	sts	0x007A, r24

	//	Digital Input Disable (reduce power consumption)
	//  We are using ADC2, ADC8, ADC9 :
	DIDR0  |= (1<<ADC2D);
    1cf0:	ee e7       	ldi	r30, 0x7E	; 126
    1cf2:	f0 e0       	ldi	r31, 0x00	; 0
    1cf4:	80 81       	ld	r24, Z
    1cf6:	84 60       	ori	r24, 0x04	; 4
    1cf8:	80 83       	st	Z, r24
	DIDR1  |= ((1<<ADC8D) | (1<<ADC9D));
    1cfa:	ef e7       	ldi	r30, 0x7F	; 127
    1cfc:	f0 e0       	ldi	r31, 0x00	; 0
    1cfe:	80 81       	ld	r24, Z
    1d00:	83 60       	ori	r24, 0x03	; 3
    1d02:	80 83       	st	Z, r24

	// HighSpeed Mode & AREF Enable internal circuitry.
	ADCSRB = (1<<ADHSM) | (1<<AREFEN);
    1d04:	80 ea       	ldi	r24, 0xA0	; 160
    1d06:	80 93 7b 00 	sts	0x007B, r24

	// REFSn bits in ADMUX  (external AREF voltage not connected!)	
	// SELECT THE Channel
	ADMUX = POT_MUX;
    1d0a:	82 e4       	ldi	r24, 0x42	; 66
    1d0c:	80 93 7c 00 	sts	0x007C, r24
}
    1d10:	08 95       	ret

00001d12 <_Z14start_samplingv>:
Return	:	The motor position in degrees * 10
***********************************************/
void start_sampling()
{
	// START ADC CONVERSION:
	ADMUX = POT_MUX;		// Select POT	
    1d12:	82 e4       	ldi	r24, 0x42	; 66
    1d14:	80 93 7c 00 	sts	0x007C, r24
	ADCSRA |= (1<<ADSC);	// Start conversion
    1d18:	ea e7       	ldi	r30, 0x7A	; 122
    1d1a:	f0 e0       	ldi	r31, 0x00	; 0
    1d1c:	80 81       	ld	r24, Z
    1d1e:	80 64       	ori	r24, 0x40	; 64
    1d20:	80 83       	st	Z, r24

	// AUTO TRIGGERING MODE (not using)
	// ADCSRA |= ADATE;
}
    1d22:	08 95       	ret

00001d24 <_Z36calc_load_current_from_sense_currentt>:
float Ioffset = 0.0;

float calc_load_current_from_sense_current( word mIsense )
{
	// ILoad = dK_ilis(Isense - Ioffset)
	return dK * (mIsense - Ioffset);	
    1d24:	bc 01       	movw	r22, r24
    1d26:	80 e0       	ldi	r24, 0x00	; 0
    1d28:	90 e0       	ldi	r25, 0x00	; 0
    1d2a:	0e 94 36 21 	call	0x426c	; 0x426c <__floatunsisf>
    1d2e:	20 91 83 02 	lds	r18, 0x0283
    1d32:	30 91 84 02 	lds	r19, 0x0284
    1d36:	40 91 85 02 	lds	r20, 0x0285
    1d3a:	50 91 86 02 	lds	r21, 0x0286
    1d3e:	0e 94 1b 1e 	call	0x3c36	; 0x3c36 <__subsf3>
    1d42:	20 91 07 01 	lds	r18, 0x0107
    1d46:	30 91 08 01 	lds	r19, 0x0108
    1d4a:	40 91 09 01 	lds	r20, 0x0109
    1d4e:	50 91 0a 01 	lds	r21, 0x010A
    1d52:	0e 94 4c 1e 	call	0x3c98	; 0x3c98 <__mulsf3>
}
    1d56:	08 95       	ret

00001d58 <_Z15convert_to_ampst>:
void convert_to_amps( word mAmps )
{
	
}
    1d58:	08 95       	ret

00001d5a <_Z17read_current_leftv>:
	on to calculate load current.
***********************************************/
word read_current_left()
{	
	// SELECT AND START CONVERSION:
	ADMUX  = CURRSENSE_LEFT_MUX;
    1d5a:	88 e4       	ldi	r24, 0x48	; 72
    1d5c:	80 93 7c 00 	sts	0x007C, r24
	ADCSRA |= (1<<ADSC);				// Start Conversion
    1d60:	80 91 7a 00 	lds	r24, 0x007A
    1d64:	80 64       	ori	r24, 0x40	; 64
    1d66:	80 93 7a 00 	sts	0x007A, r24

	// WAIT FOR RESULT:
	while ( (ADCSRA & (1<<ADSC)) > 0) {};
    1d6a:	80 91 7a 00 	lds	r24, 0x007A
    1d6e:	86 fd       	sbrc	r24, 6
    1d70:	fc cf       	rjmp	.-8      	; 0x1d6a <_Z17read_current_leftv+0x10>
	
	// PICK UP RESULT:
	word result = ADCL;
    1d72:	80 91 78 00 	lds	r24, 0x0078
	result += (ADCH<<8);
    1d76:	90 91 79 00 	lds	r25, 0x0079
    1d7a:	39 2f       	mov	r19, r25
    1d7c:	20 e0       	ldi	r18, 0x00	; 0
    1d7e:	28 0f       	add	r18, r24
    1d80:	31 1d       	adc	r19, r1
	LeftCurrentSample = result;
    1d82:	30 93 7a 02 	sts	0x027A, r19
    1d86:	20 93 79 02 	sts	0x0279, r18
	return result;
}
    1d8a:	c9 01       	movw	r24, r18
    1d8c:	08 95       	ret

00001d8e <_Z18read_current_rightv>:
Return	:	The motor position in degrees * 10
***********************************************/
word read_current_right()
{
	// SELECT AND START CONVERSION:
	ADMUX = CURRSENSE_RIGHT_MUX;
    1d8e:	89 e4       	ldi	r24, 0x49	; 73
    1d90:	80 93 7c 00 	sts	0x007C, r24
	ADCSRA |= (1<<ADSC);				// Start Conversion
    1d94:	80 91 7a 00 	lds	r24, 0x007A
    1d98:	80 64       	ori	r24, 0x40	; 64
    1d9a:	80 93 7a 00 	sts	0x007A, r24

	// WAIT FOR RESULT:
	while ( (ADCSRA & (1<<ADSC)) > 0) {};
    1d9e:	80 91 7a 00 	lds	r24, 0x007A
    1da2:	86 fd       	sbrc	r24, 6
    1da4:	fc cf       	rjmp	.-8      	; 0x1d9e <_Z18read_current_rightv+0x10>
	
	// PICK UP RESULT:
	word result = ADCL;
    1da6:	80 91 78 00 	lds	r24, 0x0078
	result      += (ADCH<<8);
    1daa:	90 91 79 00 	lds	r25, 0x0079
    1dae:	39 2f       	mov	r19, r25
    1db0:	20 e0       	ldi	r18, 0x00	; 0
    1db2:	28 0f       	add	r18, r24
    1db4:	31 1d       	adc	r19, r1
	RightCurrentSample = result;		
    1db6:	30 93 7c 02 	sts	0x027C, r19
    1dba:	20 93 7b 02 	sts	0x027B, r18
	return result;
}
    1dbe:	c9 01       	movw	r24, r18
    1dc0:	08 95       	ret

00001dc2 <_Z15set_rx_callbackPFvP4sCANE>:
DESCRIPTION:  CAN ISR will call the function sent here on a Receive interrupt
			which is not handled by the can_board_msg.c system message handler
******************************************************************************/
void set_rx_callback( void (*mCallback)(struct sCAN*) )
{
	rx_call_back = mCallback;
    1dc2:	90 93 bf 02 	sts	0x02BF, r25
    1dc6:	80 93 be 02 	sts	0x02BE, r24
}
    1dca:	08 95       	ret

00001dcc <_Z15set_tx_callbackPFvvE>:
DESCRIPTION:  CAN ISR will call the function sent here on a Transmit interrupt
			which is not handled by the can_board_msg.c system message handler
*****************************************************************************/
void set_tx_callback( void (*mCallback)() )
{
	tx_call_back = mCallback;
    1dcc:	90 93 c1 02 	sts	0x02C1, r25
    1dd0:	80 93 c0 02 	sts	0x02C0, r24
}
    1dd4:	08 95       	ret

00001dd6 <_Z26can_add_instance_to_filterht>:
* This requires that the instance matches this module's MyInstance
   before the message is accepted.  After doing this, the software check 
   is not required for that MOb.
*****************************************************************************/
void can_add_instance_to_filter( byte mMOb_Number, word mInstance )
{
    1dd6:	cf 93       	push	r28
    1dd8:	df 93       	push	r29
	int8_t savecanpage;
	savecanpage = CANPAGE;         		// Save current MOB
    1dda:	ed ee       	ldi	r30, 0xED	; 237
    1ddc:	f0 e0       	ldi	r31, 0x00	; 0
    1dde:	20 81       	ld	r18, Z
	CANPAGE   = ( mMOb_Number << MOBNB0 );
    1de0:	82 95       	swap	r24
    1de2:	80 7f       	andi	r24, 0xF0	; 240
    1de4:	80 83       	st	Z, r24

	byte idt3 = (CANIDT3 & 0xF8) | ((mInstance & 0xE0)>>5);
    1de6:	c1 ef       	ldi	r28, 0xF1	; 241
    1de8:	d0 e0       	ldi	r29, 0x00	; 0
    1dea:	38 81       	ld	r19, Y
    1dec:	cb 01       	movw	r24, r22
    1dee:	80 7e       	andi	r24, 0xE0	; 224
    1df0:	90 70       	andi	r25, 0x00	; 0
    1df2:	96 95       	lsr	r25
    1df4:	87 95       	ror	r24
    1df6:	92 95       	swap	r25
    1df8:	82 95       	swap	r24
    1dfa:	8f 70       	andi	r24, 0x0F	; 15
    1dfc:	89 27       	eor	r24, r25
    1dfe:	9f 70       	andi	r25, 0x0F	; 15
    1e00:	89 27       	eor	r24, r25
    1e02:	38 7f       	andi	r19, 0xF8	; 248
    1e04:	38 2b       	or	r19, r24
	byte idt4 = ((mInstance<<3)  | (CANIDT4 & 0x07));
    1e06:	a0 ef       	ldi	r26, 0xF0	; 240
    1e08:	b0 e0       	ldi	r27, 0x00	; 0
    1e0a:	8c 91       	ld	r24, X
    1e0c:	66 0f       	add	r22, r22
    1e0e:	66 0f       	add	r22, r22
    1e10:	66 0f       	add	r22, r22
    1e12:	87 70       	andi	r24, 0x07	; 7
    1e14:	68 2b       	or	r22, r24

	CANIDT3 = idt3;
    1e16:	38 83       	st	Y, r19
	CANIDT4 = idt4;	
    1e18:	6c 93       	st	X, r22
	CANIDM3 |= 0x07;
    1e1a:	a5 ef       	ldi	r26, 0xF5	; 245
    1e1c:	b0 e0       	ldi	r27, 0x00	; 0
    1e1e:	8c 91       	ld	r24, X
    1e20:	87 60       	ori	r24, 0x07	; 7
    1e22:	8c 93       	st	X, r24
	CANIDM4 |= 0xF8;	
    1e24:	a4 ef       	ldi	r26, 0xF4	; 244
    1e26:	b0 e0       	ldi	r27, 0x00	; 0
    1e28:	8c 91       	ld	r24, X
    1e2a:	88 6f       	ori	r24, 0xF8	; 248
    1e2c:	8c 93       	st	X, r24
	CANPAGE = savecanpage;
    1e2e:	20 83       	st	Z, r18
}
    1e30:	df 91       	pop	r29
    1e32:	cf 91       	pop	r28
    1e34:	08 95       	ret

00001e36 <_Z31can_remove_instance_from_filterh>:
  and all Instances. Use this for broadcast messages (intended for all receivers)
*****************************************************************************/
void can_remove_instance_from_filter( byte mMOb_Number )
{
	int8_t savecanpage;
	savecanpage = CANPAGE;					// Save current MOB
    1e36:	ed ee       	ldi	r30, 0xED	; 237
    1e38:	f0 e0       	ldi	r31, 0x00	; 0
    1e3a:	90 81       	ld	r25, Z
	CANPAGE  = ( mMOb_Number << MOBNB0 );	
    1e3c:	82 95       	swap	r24
    1e3e:	80 7f       	andi	r24, 0xF0	; 240
    1e40:	80 83       	st	Z, r24
	CANIDM3 &= 0xF8;
    1e42:	a5 ef       	ldi	r26, 0xF5	; 245
    1e44:	b0 e0       	ldi	r27, 0x00	; 0
    1e46:	8c 91       	ld	r24, X
    1e48:	88 7f       	andi	r24, 0xF8	; 248
    1e4a:	8c 93       	st	X, r24
	CANIDM4 &= 0x07;
    1e4c:	a4 ef       	ldi	r26, 0xF4	; 244
    1e4e:	b0 e0       	ldi	r27, 0x00	; 0
    1e50:	8c 91       	ld	r24, X
    1e52:	87 70       	andi	r24, 0x07	; 7
    1e54:	8c 93       	st	X, r24
	CANPAGE = savecanpage;
    1e56:	90 83       	st	Z, r25
}
    1e58:	08 95       	ret

00001e5a <_Z10can_set_idh6idType>:
OUTPUT		: mMsg - The data fields of this structure will get updated
RETURN		: DLC
DESCRIPTION:  Operates on the currently selected CANPAGE
*****************************************************************************/
void can_set_id( byte mMOb_Number, tID id )
{
    1e5a:	25 2f       	mov	r18, r21
    1e5c:	36 2f       	mov	r19, r22
	int8_t savecanpage;
	savecanpage = CANPAGE;         // Save current MOB
    1e5e:	ed ee       	ldi	r30, 0xED	; 237
    1e60:	f0 e0       	ldi	r31, 0x00	; 0
    1e62:	50 81       	ld	r21, Z
	CANPAGE   = ( mMOb_Number << MOBNB0 );
    1e64:	82 95       	swap	r24
    1e66:	80 7f       	andi	r24, 0xF0	; 240
    1e68:	80 83       	st	Z, r24
	
	// Set CAN id
	// Block (5 bits) & Upper 3 of ID
	byte idt1 = ((id.group.block & 0x1F)<<3) | ((id.group.id & 0xE000)>>13);
    1e6a:	86 2f       	mov	r24, r22
    1e6c:	82 95       	swap	r24
    1e6e:	86 95       	lsr	r24
    1e70:	87 70       	andi	r24, 0x07	; 7
    1e72:	44 0f       	add	r20, r20
    1e74:	44 0f       	add	r20, r20
    1e76:	44 0f       	add	r20, r20
    1e78:	48 2b       	or	r20, r24
	byte idt2 = ((id.group.id & 0x1FE0)>>5);
    1e7a:	c9 01       	movw	r24, r18
    1e7c:	80 7e       	andi	r24, 0xE0	; 224
    1e7e:	9f 71       	andi	r25, 0x1F	; 31
    1e80:	96 95       	lsr	r25
    1e82:	87 95       	ror	r24
    1e84:	92 95       	swap	r25
    1e86:	82 95       	swap	r24
    1e88:	8f 70       	andi	r24, 0x0F	; 15
    1e8a:	89 27       	eor	r24, r25
    1e8c:	9f 70       	andi	r25, 0x0F	; 15
    1e8e:	89 27       	eor	r24, r25
	byte idt3 = ((id.group.id & 0x001F)<<3)  | ((id.group.instance & 0xE0)>>5);
    1e90:	22 0f       	add	r18, r18
    1e92:	22 0f       	add	r18, r18
    1e94:	22 0f       	add	r18, r18
    1e96:	37 2f       	mov	r19, r23
    1e98:	32 95       	swap	r19
    1e9a:	36 95       	lsr	r19
    1e9c:	37 70       	andi	r19, 0x07	; 7
    1e9e:	23 2b       	or	r18, r19
	byte idt4 =  (id.group.instance<<3) | 0x00;		// RTR bits
    1ea0:	77 0f       	add	r23, r23
    1ea2:	77 0f       	add	r23, r23
    1ea4:	77 0f       	add	r23, r23
	CANIDT1 = idt1;
    1ea6:	40 93 f3 00 	sts	0x00F3, r20
	CANIDT2 = idt2;
    1eaa:	80 93 f2 00 	sts	0x00F2, r24
	CANIDT3 = idt3;
    1eae:	20 93 f1 00 	sts	0x00F1, r18
	CANIDT4 = idt4;
    1eb2:	70 93 f0 00 	sts	0x00F0, r23
	CANPAGE = savecanpage;
    1eb6:	50 83       	st	Z, r21
}
    1eb8:	08 95       	ret

00001eba <_Z20can_add_id_to_filterhtt>:
		mID_mask	- Mask of which bits in the ID portion of the tID are important
		mID_tag		- Tag (value) of the ID bits which must be matched.
* This is done independent of the instance filtering.  
*****************************************************************************/
void can_add_id_to_filter( byte mMOb_Number, word mID_mask, word mID_tag )
{
    1eba:	ff 92       	push	r15
    1ebc:	0f 93       	push	r16
    1ebe:	1f 93       	push	r17
    1ec0:	cf 93       	push	r28
    1ec2:	df 93       	push	r29
    1ec4:	f8 2e       	mov	r15, r24
    1ec6:	8b 01       	movw	r16, r22
    1ec8:	ca 01       	movw	r24, r20
	tID id   = create_CAN_eid( mID_tag,  0 );
    1eca:	60 e0       	ldi	r22, 0x00	; 0
    1ecc:	0e 94 ff 13 	call	0x27fe	; 0x27fe <_Z14create_CAN_eidth>
    1ed0:	c7 2f       	mov	r28, r23
    1ed2:	d8 2f       	mov	r29, r24
	tID mask = create_CAN_eid( mID_mask, 0 );
    1ed4:	c8 01       	movw	r24, r16
    1ed6:	60 e0       	ldi	r22, 0x00	; 0
    1ed8:	0e 94 ff 13 	call	0x27fe	; 0x27fe <_Z14create_CAN_eidth>
    1edc:	27 2f       	mov	r18, r23
    1ede:	38 2f       	mov	r19, r24

	int8_t savecanpage;
	savecanpage = CANPAGE;         // Save current MOB
    1ee0:	ed ee       	ldi	r30, 0xED	; 237
    1ee2:	f0 e0       	ldi	r31, 0x00	; 0
    1ee4:	00 81       	ld	r16, Z
	CANPAGE   = ( mMOb_Number << MOBNB0 );
    1ee6:	f2 94       	swap	r15
    1ee8:	b0 ef       	ldi	r27, 0xF0	; 240
    1eea:	fb 22       	and	r15, r27
    1eec:	f0 82       	st	Z, r15
	
	// Ignore Block & Instance
	byte idt1 = (CANIDT1 & 0xF8) | ((id.group.id & 0xE000)>>13);
    1eee:	43 ef       	ldi	r20, 0xF3	; 243
    1ef0:	50 e0       	ldi	r21, 0x00	; 0
    1ef2:	da 01       	movw	r26, r20
    1ef4:	6c 91       	ld	r22, X
    1ef6:	8d 2f       	mov	r24, r29
    1ef8:	82 95       	swap	r24
    1efa:	86 95       	lsr	r24
    1efc:	87 70       	andi	r24, 0x07	; 7
    1efe:	68 7f       	andi	r22, 0xF8	; 248
    1f00:	68 2b       	or	r22, r24
	byte idt2 = ((id.group.id & 0x1FE0)>>5);
    1f02:	ce 01       	movw	r24, r28
    1f04:	80 7e       	andi	r24, 0xE0	; 224
    1f06:	9f 71       	andi	r25, 0x1F	; 31
    1f08:	96 95       	lsr	r25
    1f0a:	87 95       	ror	r24
    1f0c:	92 95       	swap	r25
    1f0e:	82 95       	swap	r24
    1f10:	8f 70       	andi	r24, 0x0F	; 15
    1f12:	89 27       	eor	r24, r25
    1f14:	9f 70       	andi	r25, 0x0F	; 15
    1f16:	89 27       	eor	r24, r25
	byte idt3 = ((id.group.id & 0x001F)<<3) | (CANIDT3 & 0x07);
    1f18:	a1 ef       	ldi	r26, 0xF1	; 241
    1f1a:	b0 e0       	ldi	r27, 0x00	; 0
    1f1c:	7c 91       	ld	r23, X
    1f1e:	fc 2e       	mov	r15, r28
    1f20:	ff 0c       	add	r15, r15
    1f22:	ff 0c       	add	r15, r15
    1f24:	ff 0c       	add	r15, r15
    1f26:	77 70       	andi	r23, 0x07	; 7
    1f28:	f7 2a       	or	r15, r23
	CANIDT1 = idt1;
    1f2a:	ea 01       	movw	r28, r20
    1f2c:	68 83       	st	Y, r22
	CANIDT2 = idt2;
    1f2e:	80 93 f2 00 	sts	0x00F2, r24
	CANIDT3 = idt3;
    1f32:	fc 92       	st	X, r15

	// Ignore Block & Instance
	byte idm1 = (CANIDM1 & 0xF8) | ((mask.group.id & 0xE000)>>13);
    1f34:	c7 ef       	ldi	r28, 0xF7	; 247
    1f36:	d0 e0       	ldi	r29, 0x00	; 0
    1f38:	48 81       	ld	r20, Y
    1f3a:	83 2f       	mov	r24, r19
    1f3c:	82 95       	swap	r24
    1f3e:	86 95       	lsr	r24
    1f40:	87 70       	andi	r24, 0x07	; 7
    1f42:	48 7f       	andi	r20, 0xF8	; 248
    1f44:	48 2b       	or	r20, r24
	byte idm2 = ((mask.group.id & 0x1FE0)>>5);
    1f46:	c9 01       	movw	r24, r18
    1f48:	80 7e       	andi	r24, 0xE0	; 224
    1f4a:	9f 71       	andi	r25, 0x1F	; 31
    1f4c:	96 95       	lsr	r25
    1f4e:	87 95       	ror	r24
    1f50:	92 95       	swap	r25
    1f52:	82 95       	swap	r24
    1f54:	8f 70       	andi	r24, 0x0F	; 15
    1f56:	89 27       	eor	r24, r25
    1f58:	9f 70       	andi	r25, 0x0F	; 15
    1f5a:	89 27       	eor	r24, r25
	byte idm3 = ((mask.group.id & 0x001F)<<3) | (CANIDM3 & 0x07);
    1f5c:	a5 ef       	ldi	r26, 0xF5	; 245
    1f5e:	b0 e0       	ldi	r27, 0x00	; 0
    1f60:	5c 91       	ld	r21, X
    1f62:	22 0f       	add	r18, r18
    1f64:	22 0f       	add	r18, r18
    1f66:	22 0f       	add	r18, r18
    1f68:	57 70       	andi	r21, 0x07	; 7
    1f6a:	25 2b       	or	r18, r21
	CANIDM1 = idm1;
    1f6c:	48 83       	st	Y, r20
	CANIDM2 = idm2;
    1f6e:	80 93 f6 00 	sts	0x00F6, r24
	CANIDM3 = idm3;
    1f72:	2c 93       	st	X, r18
	CANPAGE = savecanpage;
    1f74:	00 83       	st	Z, r16
}
    1f76:	df 91       	pop	r29
    1f78:	cf 91       	pop	r28
    1f7a:	1f 91       	pop	r17
    1f7c:	0f 91       	pop	r16
    1f7e:	ff 90       	pop	r15
    1f80:	08 95       	ret

00001f82 <_Z25can_remove_id_from_filterh>:
  and all Instances. Use this for broadcast messages (intended for all receivers)
*****************************************************************************/
void can_remove_id_from_filter( byte mMOb_Number )
{
	int8_t savecanpage;
	savecanpage = CANPAGE;         // Save current MOB	
    1f82:	ed ee       	ldi	r30, 0xED	; 237
    1f84:	f0 e0       	ldi	r31, 0x00	; 0
    1f86:	90 81       	ld	r25, Z
	CANPAGE   = ( mMOb_Number << MOBNB0 );
    1f88:	82 95       	swap	r24
    1f8a:	80 7f       	andi	r24, 0xF0	; 240
    1f8c:	80 83       	st	Z, r24
	byte idm1 = 0xF8;
	byte idm2 = 0;
	byte idm3 = 0x07;
	CANIDM1 &= idm1;
    1f8e:	a7 ef       	ldi	r26, 0xF7	; 247
    1f90:	b0 e0       	ldi	r27, 0x00	; 0
    1f92:	8c 91       	ld	r24, X
    1f94:	88 7f       	andi	r24, 0xF8	; 248
    1f96:	8c 93       	st	X, r24
	CANIDM2 &= idm2;
    1f98:	a6 ef       	ldi	r26, 0xF6	; 246
    1f9a:	b0 e0       	ldi	r27, 0x00	; 0
    1f9c:	8c 91       	ld	r24, X
    1f9e:	1c 92       	st	X, r1
	CANIDM3 &= idm3;
    1fa0:	a5 ef       	ldi	r26, 0xF5	; 245
    1fa2:	b0 e0       	ldi	r27, 0x00	; 0
    1fa4:	8c 91       	ld	r24, X
    1fa6:	87 70       	andi	r24, 0x07	; 7
    1fa8:	8c 93       	st	X, r24
	CANPAGE = savecanpage;
    1faa:	90 83       	st	Z, r25
}
    1fac:	08 95       	ret

00001fae <_Z12can_set_maskhss>:
Description:    This function sets up a MOB for reception
*****************************************************************************/
void can_set_mask(byte mMOb_Number, short mMaskLow, short mMaskHigh )
{
	int8_t savecanpage;
	savecanpage = CANPAGE;         // Save current MOB
    1fae:	ed ee       	ldi	r30, 0xED	; 237
    1fb0:	f0 e0       	ldi	r31, 0x00	; 0
    1fb2:	90 81       	ld	r25, Z
	CANPAGE   = ( mMOb_Number << MOBNB0 );
    1fb4:	82 95       	swap	r24
    1fb6:	80 7f       	andi	r24, 0xF0	; 240
    1fb8:	80 83       	st	Z, r24
	
	CANIDM1 = ((mMaskLow & 0x00FF)>>0);    	
    1fba:	60 93 f7 00 	sts	0x00F7, r22
	CANIDM2 = ((mMaskLow & 0xFF00)>>8);    	
    1fbe:	70 93 f6 00 	sts	0x00F6, r23
	CANIDM3 = ((mMaskHigh & 0x00FF)>>0);    	
    1fc2:	40 93 f5 00 	sts	0x00F5, r20
	CANIDM4 = ((mMaskHigh & 0xFF00)>>8);
    1fc6:	50 93 f4 00 	sts	0x00F4, r21
	
	CANPAGE = savecanpage;
    1fca:	90 83       	st	Z, r25
}
    1fcc:	08 95       	ret

00001fce <_Z11can_set_taghss>:
DESCRIPTION:  Operates on the currently selected CANPAGE
*****************************************************************************/
void can_set_tag(byte mMOb_Number, short mTagLow, short mTagHigh )
{
	int8_t savecanpage;
	savecanpage = CANPAGE;         // Save current MOB
    1fce:	ed ee       	ldi	r30, 0xED	; 237
    1fd0:	f0 e0       	ldi	r31, 0x00	; 0
    1fd2:	90 81       	ld	r25, Z
	CANPAGE   = ( mMOb_Number << MOBNB0 );
    1fd4:	82 95       	swap	r24
    1fd6:	80 7f       	andi	r24, 0xF0	; 240
    1fd8:	80 83       	st	Z, r24
	
	CANIDM1 = ((mTagLow & 0x00FF)>>0);    	// 
    1fda:	60 93 f7 00 	sts	0x00F7, r22
	CANIDM2 = ((mTagLow & 0xFF00)>>8);    	// 
    1fde:	70 93 f6 00 	sts	0x00F6, r23
	CANIDM3 = ((mTagHigh & 0x00FF)>>0);    	// 
    1fe2:	40 93 f5 00 	sts	0x00F5, r20
	CANIDM4 = ((mTagHigh & 0xFF00)>>8);    	// 	
    1fe6:	50 93 f4 00 	sts	0x00F4, r21
	CANPAGE = savecanpage;
    1fea:	90 83       	st	Z, r25
}
    1fec:	08 95       	ret

00001fee <_Z21can_setup_receive_mobhssh>:
	mDLC		: Data Length Check (0..8)
Returns:        none
Description:    This function sets up a MOB for reception
*****************************************************************************/
void can_setup_receive_mob( byte mMobNumber, short mMaskLow, short mMaskHigh, byte mDLC )
{
    1fee:	1f 93       	push	r17
    1ff0:	cf 93       	push	r28
    1ff2:	df 93       	push	r29
	int8_t savecanpage;
	savecanpage = CANPAGE;         			// Save current MOB
    1ff4:	ed ee       	ldi	r30, 0xED	; 237
    1ff6:	f0 e0       	ldi	r31, 0x00	; 0
    1ff8:	10 81       	ld	r17, Z

	CANPAGE= ( mMobNumber << MOBNB0 );    	// Select MOB n
    1ffa:	38 2f       	mov	r19, r24
    1ffc:	32 95       	swap	r19
    1ffe:	30 7f       	andi	r19, 0xF0	; 240
    2000:	30 83       	st	Z, r19
	// SETUP MOBn for RECEPTION : 
	CANIE2 |= ( 1 << mMobNumber );     		// Enable interrupts on mob1 for reception and transmission		
    2002:	ce ed       	ldi	r28, 0xDE	; 222
    2004:	d0 e0       	ldi	r29, 0x00	; 0
    2006:	98 81       	ld	r25, Y
    2008:	a1 e0       	ldi	r26, 0x01	; 1
    200a:	b0 e0       	ldi	r27, 0x00	; 0
    200c:	02 c0       	rjmp	.+4      	; 0x2012 <_Z21can_setup_receive_mobhssh+0x24>
    200e:	aa 0f       	add	r26, r26
    2010:	bb 1f       	adc	r27, r27
    2012:	8a 95       	dec	r24
    2014:	e2 f7       	brpl	.-8      	; 0x200e <_Z21can_setup_receive_mobhssh+0x20>
    2016:	9a 2b       	or	r25, r26
    2018:	98 83       	st	Y, r25
Description:    This function sets up a MOB for reception
*****************************************************************************/
void can_set_mask(byte mMOb_Number, short mMaskLow, short mMaskHigh )
{
	int8_t savecanpage;
	savecanpage = CANPAGE;         // Save current MOB
    201a:	80 81       	ld	r24, Z
	CANPAGE   = ( mMOb_Number << MOBNB0 );
    201c:	30 83       	st	Z, r19
	
	CANIDM1 = ((mMaskLow & 0x00FF)>>0);    	
    201e:	60 93 f7 00 	sts	0x00F7, r22
	CANIDM2 = ((mMaskLow & 0xFF00)>>8);    	
    2022:	70 93 f6 00 	sts	0x00F6, r23
	CANIDM3 = ((mMaskHigh & 0x00FF)>>0);    	
    2026:	40 93 f5 00 	sts	0x00F5, r20
	CANIDM4 = ((mMaskHigh & 0xFF00)>>8);
    202a:	50 93 f4 00 	sts	0x00F4, r21
	
	CANPAGE = savecanpage;
    202e:	80 83       	st	Z, r24

	CANPAGE= ( mMobNumber << MOBNB0 );    	// Select MOB n
	// SETUP MOBn for RECEPTION : 
	CANIE2 |= ( 1 << mMobNumber );     		// Enable interrupts on mob1 for reception and transmission		
	can_set_mask( mMobNumber, mMaskLow, mMaskHigh );	
	CANCDMOB = ( 1 << CONMOB1) | ( 1 << IDE ) | ( mDLC << DLC0);  // Enable Reception 29 bit IDE DLC8
    2030:	20 69       	ori	r18, 0x90	; 144
    2032:	20 93 ef 00 	sts	0x00EF, r18
	CANGCON |= ( 1 << ENASTB );         // Enable mode. CAN channel enters in enable mode once 11 recessive bits have been read
    2036:	a8 ed       	ldi	r26, 0xD8	; 216
    2038:	b0 e0       	ldi	r27, 0x00	; 0
    203a:	8c 91       	ld	r24, X
    203c:	82 60       	ori	r24, 0x02	; 2
    203e:	8c 93       	st	X, r24
	
	CANPAGE = savecanpage;   
    2040:	10 83       	st	Z, r17
}
    2042:	df 91       	pop	r29
    2044:	cf 91       	pop	r28
    2046:	1f 91       	pop	r17
    2048:	08 95       	ret

0000204a <_Z13can_init_mobsv>:
OUTPUT		: mMsg - The data fields of this structure will get updated
RETURN		: DLC
DESCRIPTION:  Operates on the currently selected CANPAGE
*****************************************************************************/
void can_init_mobs()
{
    204a:	ef 92       	push	r14
    204c:	ff 92       	push	r15
    204e:	0f 93       	push	r16
    2050:	1f 93       	push	r17
    2052:	cf 93       	push	r28
    2054:	df 93       	push	r29
   // SETUP MOB0 for Module Specific Transmit (MyInstance tagged)
   
   // SETUP MOB1 for Module Specific Reception (MyInstance filtered)
   can_setup_receive_mob	 ( 1, 0x0000, 0x0000, 8 );
    2056:	81 e0       	ldi	r24, 0x01	; 1
    2058:	60 e0       	ldi	r22, 0x00	; 0
    205a:	70 e0       	ldi	r23, 0x00	; 0
    205c:	40 e0       	ldi	r20, 0x00	; 0
    205e:	50 e0       	ldi	r21, 0x00	; 0
    2060:	28 e0       	ldi	r18, 0x08	; 8
    2062:	0e 94 f7 0f 	call	0x1fee	; 0x1fee <_Z21can_setup_receive_mobhssh>
   can_add_instance_to_filter( 1, MyInstance 		);
    2066:	60 91 c2 02 	lds	r22, 0x02C2
    206a:	81 e0       	ldi	r24, 0x01	; 1
    206c:	70 e0       	ldi	r23, 0x00	; 0
    206e:	0e 94 eb 0e 	call	0x1dd6	; 0x1dd6 <_Z26can_add_instance_to_filterht>

   // SETUP MOB2 Unused
   

   // SETUP MOB3 for ID_INSTANCE_CLAIM (no Instance - checks done in software):
   can_setup_receive_mob		  ( 3, 0x0000, 0x0000, 8 );
    2072:	83 e0       	ldi	r24, 0x03	; 3
    2074:	60 e0       	ldi	r22, 0x00	; 0
    2076:	70 e0       	ldi	r23, 0x00	; 0
    2078:	40 e0       	ldi	r20, 0x00	; 0
    207a:	50 e0       	ldi	r21, 0x00	; 0
    207c:	28 e0       	ldi	r18, 0x08	; 8
    207e:	0e 94 f7 0f 	call	0x1fee	; 0x1fee <_Z21can_setup_receive_mobhssh>
  and all Instances. Use this for broadcast messages (intended for all receivers)
*****************************************************************************/
void can_remove_instance_from_filter( byte mMOb_Number )
{
	int8_t savecanpage;
	savecanpage = CANPAGE;					// Save current MOB
    2082:	cd ee       	ldi	r28, 0xED	; 237
    2084:	d0 e0       	ldi	r29, 0x00	; 0
    2086:	98 81       	ld	r25, Y
	CANPAGE  = ( mMOb_Number << MOBNB0 );	
    2088:	80 e3       	ldi	r24, 0x30	; 48
    208a:	88 83       	st	Y, r24
	CANIDM3 &= 0xF8;
    208c:	05 ef       	ldi	r16, 0xF5	; 245
    208e:	10 e0       	ldi	r17, 0x00	; 0
    2090:	f8 01       	movw	r30, r16
    2092:	80 81       	ld	r24, Z
    2094:	88 7f       	andi	r24, 0xF8	; 248
    2096:	80 83       	st	Z, r24
	CANIDM4 &= 0x07;
    2098:	84 ef       	ldi	r24, 0xF4	; 244
    209a:	e8 2e       	mov	r14, r24
    209c:	f1 2c       	mov	r15, r1
    209e:	f7 01       	movw	r30, r14
    20a0:	80 81       	ld	r24, Z
    20a2:	87 70       	andi	r24, 0x07	; 7
    20a4:	80 83       	st	Z, r24
	CANPAGE = savecanpage;
    20a6:	98 83       	st	Y, r25
   

   // SETUP MOB3 for ID_INSTANCE_CLAIM (no Instance - checks done in software):
   can_setup_receive_mob		  ( 3, 0x0000, 0x0000, 8 );
   can_remove_instance_from_filter( 3 					 );
   can_add_id_to_filter			  ( 3, ID_INSTANCE_CLAIM, ID_INSTANCE_CLAIM );
    20a8:	83 e0       	ldi	r24, 0x03	; 3
    20aa:	63 e2       	ldi	r22, 0x23	; 35
    20ac:	7c ef       	ldi	r23, 0xFC	; 252
    20ae:	43 e2       	ldi	r20, 0x23	; 35
    20b0:	5c ef       	ldi	r21, 0xFC	; 252
    20b2:	0e 94 5d 0f 	call	0x1eba	; 0x1eba <_Z20can_add_id_to_filterhtt>
/* can_setup_receive_mob		  ( 4, 0x0000, 0x0000, 8 );
   can_remove_instance_from_filter( 4 					 );
   can_add_id_to_filter			  ( 4, ID_INSTANCE_QUERY, ID_INSTANCE_QUERY ); */

   // SETUP MOB5 for BROADCAST RECEIVE (no Instance):
   can_setup_receive_mob		  ( 5, 0x0000, 0x0000, 8 );
    20b6:	85 e0       	ldi	r24, 0x05	; 5
    20b8:	60 e0       	ldi	r22, 0x00	; 0
    20ba:	70 e0       	ldi	r23, 0x00	; 0
    20bc:	40 e0       	ldi	r20, 0x00	; 0
    20be:	50 e0       	ldi	r21, 0x00	; 0
    20c0:	28 e0       	ldi	r18, 0x08	; 8
    20c2:	0e 94 f7 0f 	call	0x1fee	; 0x1fee <_Z21can_setup_receive_mobhssh>
  and all Instances. Use this for broadcast messages (intended for all receivers)
*****************************************************************************/
void can_remove_instance_from_filter( byte mMOb_Number )
{
	int8_t savecanpage;
	savecanpage = CANPAGE;					// Save current MOB
    20c6:	98 81       	ld	r25, Y
	CANPAGE  = ( mMOb_Number << MOBNB0 );	
    20c8:	80 e5       	ldi	r24, 0x50	; 80
    20ca:	88 83       	st	Y, r24
	CANIDM3 &= 0xF8;
    20cc:	f8 01       	movw	r30, r16
    20ce:	80 81       	ld	r24, Z
    20d0:	88 7f       	andi	r24, 0xF8	; 248
    20d2:	80 83       	st	Z, r24
	CANIDM4 &= 0x07;
    20d4:	f7 01       	movw	r30, r14
    20d6:	80 81       	ld	r24, Z
    20d8:	87 70       	andi	r24, 0x07	; 7
    20da:	80 83       	st	Z, r24
	CANPAGE = savecanpage;
    20dc:	98 83       	st	Y, r25
   can_add_id_to_filter			  ( 4, ID_INSTANCE_QUERY, ID_INSTANCE_QUERY ); */

   // SETUP MOB5 for BROADCAST RECEIVE (no Instance):
   can_setup_receive_mob		  ( 5, 0x0000, 0x0000, 8 );
   can_remove_instance_from_filter( 5 					 );
   can_add_id_to_filter			  ( 5, ID_SYSTEM_REQUEST_MASK, ID_SYSTEM_REQUEST_MASK );
    20de:	85 e0       	ldi	r24, 0x05	; 5
    20e0:	60 e0       	ldi	r22, 0x00	; 0
    20e2:	7c ef       	ldi	r23, 0xFC	; 252
    20e4:	40 e0       	ldi	r20, 0x00	; 0
    20e6:	5c ef       	ldi	r21, 0xFC	; 252
    20e8:	0e 94 5d 0f 	call	0x1eba	; 0x1eba <_Z20can_add_id_to_filterhtt>
}
    20ec:	df 91       	pop	r29
    20ee:	cf 91       	pop	r28
    20f0:	1f 91       	pop	r17
    20f2:	0f 91       	pop	r16
    20f4:	ff 90       	pop	r15
    20f6:	ef 90       	pop	r14
    20f8:	08 95       	ret

000020fa <_Z15can_disable_mobh>:
			ID_INSTANCE_RESERVE_REQUEST 
******************************************************************************/

void can_disable_mob( byte mob )
{
	  byte restore = CANPAGE;
    20fa:	ed ee       	ldi	r30, 0xED	; 237
    20fc:	f0 e0       	ldi	r31, 0x00	; 0
    20fe:	90 81       	ld	r25, Z
      CANPAGE  = ( mob << 4 );    // Selects Message Object 0-5
    2100:	82 95       	swap	r24
    2102:	80 7f       	andi	r24, 0xF0	; 240
    2104:	80 83       	st	Z, r24
      CANCDMOB = 0x00;           // Disable mob
    2106:	10 92 ef 00 	sts	0x00EF, r1
      CANSTMOB = 0x00;           // Clear mob status register
    210a:	10 92 ee 00 	sts	0x00EE, r1
      CANPAGE  = restore;
    210e:	90 83       	st	Z, r25
}
    2110:	08 95       	ret

00002112 <_Z15can_retrieve_idP4sCAN>:
OUTPUT		: mMsg - The data fields of this structure will get updated
RETURN		: DLC
DESCRIPTION:  Operates on the currently selected CANPAGE
*****************************************************************************/
void can_retrieve_id( struct sCAN* mMsg )
{
    2112:	fc 01       	movw	r30, r24
	// Retrieve CAN id
	word idt1 = CANIDT1;
    2114:	40 91 f3 00 	lds	r20, 0x00F3
    2118:	50 e0       	ldi	r21, 0x00	; 0
	word idt2 = CANIDT2;
    211a:	20 91 f2 00 	lds	r18, 0x00F2
	word idt3 = CANIDT3;
    211e:	80 91 f1 00 	lds	r24, 0x00F1
    2122:	90 e0       	ldi	r25, 0x00	; 0
	word idt4 = CANIDT4;
    2124:	a0 91 f0 00 	lds	r26, 0x00F0
	mMsg->id.group.block = (idt1 >> 3);		// BLOCK = UPPER NIBBLE+1 (5 BITS)
    2128:	ba 01       	movw	r22, r20
    212a:	76 95       	lsr	r23
    212c:	67 95       	ror	r22
    212e:	76 95       	lsr	r23
    2130:	67 95       	ror	r22
    2132:	76 95       	lsr	r23
    2134:	67 95       	ror	r22
    2136:	60 83       	st	Z, r22
*****************************************************************************/
void can_retrieve_id( struct sCAN* mMsg )
{
	// Retrieve CAN id
	word idt1 = CANIDT1;
	word idt2 = CANIDT2;
    2138:	30 e0       	ldi	r19, 0x00	; 0
	word idt3 = CANIDT3;
	word idt4 = CANIDT4;
	mMsg->id.group.block = (idt1 >> 3);		// BLOCK = UPPER NIBBLE+1 (5 BITS)

	word tmpW1 = ((idt1 & 0x07)<<(5+8));	// Lowest 3 make the highest 3 of id
	word tmpW2 = (idt2<<5);					// all 8 bits shifted up snug.
    213a:	22 0f       	add	r18, r18
    213c:	33 1f       	adc	r19, r19
    213e:	22 95       	swap	r18
    2140:	32 95       	swap	r19
    2142:	30 7f       	andi	r19, 0xF0	; 240
    2144:	32 27       	eor	r19, r18
    2146:	20 7f       	andi	r18, 0xF0	; 240
    2148:	32 27       	eor	r19, r18
	word idt2 = CANIDT2;
	word idt3 = CANIDT3;
	word idt4 = CANIDT4;
	mMsg->id.group.block = (idt1 >> 3);		// BLOCK = UPPER NIBBLE+1 (5 BITS)

	word tmpW1 = ((idt1 & 0x07)<<(5+8));	// Lowest 3 make the highest 3 of id
    214a:	54 2f       	mov	r21, r20
    214c:	44 27       	eor	r20, r20
    214e:	52 95       	swap	r21
    2150:	55 0f       	add	r21, r21
    2152:	50 7e       	andi	r21, 0xE0	; 224
	word tmpW2 = (idt2<<5);					// all 8 bits shifted up snug.
	word tmpW3 = (idt3 & 0xF8)>>3;		// 5 more form the least significant bits.
	mMsg->id.group.id = tmpW1 | tmpW2 | tmpW3;
    2154:	24 2b       	or	r18, r20
    2156:	35 2b       	or	r19, r21
	word idt4 = CANIDT4;
	mMsg->id.group.block = (idt1 >> 3);		// BLOCK = UPPER NIBBLE+1 (5 BITS)

	word tmpW1 = ((idt1 & 0x07)<<(5+8));	// Lowest 3 make the highest 3 of id
	word tmpW2 = (idt2<<5);					// all 8 bits shifted up snug.
	word tmpW3 = (idt3 & 0xF8)>>3;		// 5 more form the least significant bits.
    2158:	ac 01       	movw	r20, r24
    215a:	56 95       	lsr	r21
    215c:	47 95       	ror	r20
    215e:	56 95       	lsr	r21
    2160:	47 95       	ror	r20
    2162:	56 95       	lsr	r21
    2164:	47 95       	ror	r20
	mMsg->id.group.id = tmpW1 | tmpW2 | tmpW3;
    2166:	24 2b       	or	r18, r20
    2168:	35 2b       	or	r19, r21
    216a:	32 83       	std	Z+2, r19	; 0x02
    216c:	21 83       	std	Z+1, r18	; 0x01

	tmpW1 = ((idt3 & 0x07)<<5);
    216e:	82 95       	swap	r24
    2170:	88 0f       	add	r24, r24
    2172:	80 7e       	andi	r24, 0xE0	; 224
	mMsg->id.group.instance = ( tmpW1 | (idt4>>3));		// INSTANCE
    2174:	a6 95       	lsr	r26
    2176:	a6 95       	lsr	r26
    2178:	a6 95       	lsr	r26
    217a:	a8 2b       	or	r26, r24
    217c:	a3 83       	std	Z+3, r26	; 0x03
}
    217e:	08 95       	ret

00002180 <_Z17can_retrieve_dataP4sCAN>:
OUTPUT		: mMsg - The data fields of this structure will get updated
RETURN		: DLC
DESCRIPTION:  Operates on the currently selected CANPAGE
*****************************************************************************/
byte can_retrieve_data( struct sCAN* mMsg )
{
    2180:	cf 93       	push	r28
    2182:	df 93       	push	r29
    2184:	ec 01       	movw	r28, r24
	// Retrieve CAN id
	can_retrieve_id( mMsg );
    2186:	0e 94 89 10 	call	0x2112	; 0x2112 <_Z15can_retrieve_idP4sCAN>

	// Read DLC out of reg
	mMsg->header.DLC = ( CANCDMOB & 0x0F );   // DLC, number of bytes to be received
    218a:	80 91 ef 00 	lds	r24, 0x00EF
    218e:	8f 70       	andi	r24, 0x0F	; 15
    2190:	28 2f       	mov	r18, r24
    2192:	22 0f       	add	r18, r18
    2194:	9c 81       	ldd	r25, Y+4	; 0x04
    2196:	91 7e       	andi	r25, 0xE1	; 225
    2198:	92 2b       	or	r25, r18
    219a:	9c 83       	std	Y+4, r25	; 0x04
	for (int i=0; i<mMsg->header.DLC; i++)
    219c:	48 2f       	mov	r20, r24
    219e:	50 e0       	ldi	r21, 0x00	; 0
    21a0:	41 15       	cp	r20, r1
    21a2:	51 05       	cpc	r21, r1
    21a4:	59 f0       	breq	.+22     	; 0x21bc <_Z17can_retrieve_dataP4sCAN+0x3c>
INPUT 		: mMsg - a sCAN structure must have memory already allocated.
OUTPUT		: mMsg - The data fields of this structure will get updated
RETURN		: DLC
DESCRIPTION:  Operates on the currently selected CANPAGE
*****************************************************************************/
byte can_retrieve_data( struct sCAN* mMsg )
    21a6:	25 96       	adiw	r28, 0x05	; 5
	// Retrieve CAN id
	can_retrieve_id( mMsg );

	// Read DLC out of reg
	mMsg->header.DLC = ( CANCDMOB & 0x0F );   // DLC, number of bytes to be received
	for (int i=0; i<mMsg->header.DLC; i++)
    21a8:	20 e0       	ldi	r18, 0x00	; 0
    21aa:	30 e0       	ldi	r19, 0x00	; 0
	{
		mMsg->data[i] = CANMSG;
    21ac:	90 91 fa 00 	lds	r25, 0x00FA
    21b0:	99 93       	st	Y+, r25
	// Retrieve CAN id
	can_retrieve_id( mMsg );

	// Read DLC out of reg
	mMsg->header.DLC = ( CANCDMOB & 0x0F );   // DLC, number of bytes to be received
	for (int i=0; i<mMsg->header.DLC; i++)
    21b2:	2f 5f       	subi	r18, 0xFF	; 255
    21b4:	3f 4f       	sbci	r19, 0xFF	; 255
    21b6:	24 17       	cp	r18, r20
    21b8:	35 07       	cpc	r19, r21
    21ba:	c4 f3       	brlt	.-16     	; 0x21ac <_Z17can_retrieve_dataP4sCAN+0x2c>
	{
		mMsg->data[i] = CANMSG;
	}
	return mMsg->header.DLC;
}
    21bc:	df 91       	pop	r29
    21be:	cf 91       	pop	r28
    21c0:	08 95       	ret

000021c2 <__vector_18>:
extern void protected_led_on(byte mindex);
extern void protected_led_off(byte mindex);

//***** Reception ISR **********************************
ISR ( CAN_INT_vect )
{
    21c2:	1f 92       	push	r1
    21c4:	0f 92       	push	r0
    21c6:	0f b6       	in	r0, 0x3f	; 63
    21c8:	0f 92       	push	r0
    21ca:	11 24       	eor	r1, r1
    21cc:	2f 93       	push	r18
    21ce:	3f 93       	push	r19
    21d0:	4f 93       	push	r20
    21d2:	5f 93       	push	r21
    21d4:	6f 93       	push	r22
    21d6:	7f 93       	push	r23
    21d8:	8f 93       	push	r24
    21da:	9f 93       	push	r25
    21dc:	af 93       	push	r26
    21de:	bf 93       	push	r27
    21e0:	cf 93       	push	r28
    21e2:	ef 93       	push	r30
    21e4:	ff 93       	push	r31
   int8_t savecanpage;
   savecanpage = CANPAGE;         // Save current MOB
    21e6:	c0 91 ed 00 	lds	r28, 0x00ED
   int8_t mob = (CANHPMOB & 0xF0) >> 4;
    21ea:	40 91 ec 00 	lds	r20, 0x00EC
    21ee:	42 95       	swap	r20
    21f0:	4f 70       	andi	r20, 0x0F	; 15
   if (mob == 0x0F)  { CANGIT |= 0; return; }	   
    21f2:	4f 30       	cpi	r20, 0x0F	; 15
    21f4:	09 f4       	brne	.+2      	; 0x21f8 <__vector_18+0x36>
    21f6:	87 c0       	rjmp	.+270    	; 0x2306 <__vector_18+0x144>
   CANPAGE = CANHPMOB & 0xF0;     // Selects MOB with highest priority interrupt
    21f8:	80 91 ec 00 	lds	r24, 0x00EC
    21fc:	80 7f       	andi	r24, 0xF0	; 240
    21fe:	80 93 ed 00 	sts	0x00ED, r24

   if ( ANY_ERROR_FLAG ) {  
    2202:	80 91 ee 00 	lds	r24, 0x00EE
    2206:	90 e0       	ldi	r25, 0x00	; 0
    2208:	8f 71       	andi	r24, 0x1F	; 31
    220a:	90 70       	andi	r25, 0x00	; 0
    220c:	00 97       	sbiw	r24, 0x00	; 0
    220e:	09 f4       	brne	.+2      	; 0x2212 <__vector_18+0x50>
    2210:	40 c0       	rjmp	.+128    	; 0x2292 <__vector_18+0xd0>
		 byte st = CANSTMOB;
    2212:	80 91 ee 00 	lds	r24, 0x00EE
		 if (st & BERR)	{ CANSTMOB &= ~(1<<BERR);  /* Bit Error (transmission only) */	};
    2216:	90 e0       	ldi	r25, 0x00	; 0
    2218:	82 ff       	sbrs	r24, 2
    221a:	05 c0       	rjmp	.+10     	; 0x2226 <__vector_18+0x64>
    221c:	20 91 ee 00 	lds	r18, 0x00EE
    2220:	2f 7e       	andi	r18, 0xEF	; 239
    2222:	20 93 ee 00 	sts	0x00EE, r18
		 if (st & SERR)	{ CANSTMOB &= ~(1<<SERR);  /* Stuff Error */		 			};
    2226:	9c 01       	movw	r18, r24
    2228:	23 70       	andi	r18, 0x03	; 3
    222a:	30 70       	andi	r19, 0x00	; 0
    222c:	21 15       	cp	r18, r1
    222e:	31 05       	cpc	r19, r1
    2230:	29 f0       	breq	.+10     	; 0x223c <__vector_18+0x7a>
    2232:	20 91 ee 00 	lds	r18, 0x00EE
    2236:	27 7f       	andi	r18, 0xF7	; 247
    2238:	20 93 ee 00 	sts	0x00EE, r18
		 if (st & CERR)	{ CANSTMOB &= ~(1<<CERR);  /* CRC Error - pos bad CAN connection(s), bad transmitter, faulty hardware receiver. */ };
    223c:	81 ff       	sbrs	r24, 1
    223e:	05 c0       	rjmp	.+10     	; 0x224a <__vector_18+0x88>
    2240:	20 91 ee 00 	lds	r18, 0x00EE
    2244:	2b 7f       	andi	r18, 0xFB	; 251
    2246:	20 93 ee 00 	sts	0x00EE, r18
		 if (st & FERR)	{ CANSTMOB &= ~(1<<FERR);  /* Form Error */		 				};
    224a:	80 ff       	sbrs	r24, 0
    224c:	05 c0       	rjmp	.+10     	; 0x2258 <__vector_18+0x96>
    224e:	80 91 ee 00 	lds	r24, 0x00EE
    2252:	8d 7f       	andi	r24, 0xFD	; 253
    2254:	80 93 ee 00 	sts	0x00EE, r24
		 if (st & AERR)	{ CANSTMOB &= ~(1<<AERR);  /* Acknowledge Error */		 		};

		//protected_led_on( 3 );
		if ((mob==5) || (mob==1)|| (mob==3))		// receives
    2258:	45 30       	cpi	r20, 0x05	; 5
    225a:	09 f4       	brne	.+2      	; 0x225e <__vector_18+0x9c>
    225c:	4b c0       	rjmp	.+150    	; 0x22f4 <__vector_18+0x132>
    225e:	41 30       	cpi	r20, 0x01	; 1
    2260:	09 f4       	brne	.+2      	; 0x2264 <__vector_18+0xa2>
    2262:	48 c0       	rjmp	.+144    	; 0x22f4 <__vector_18+0x132>
    2264:	43 30       	cpi	r20, 0x03	; 3
    2266:	09 f4       	brne	.+2      	; 0x226a <__vector_18+0xa8>
    2268:	45 c0       	rjmp	.+138    	; 0x22f4 <__vector_18+0x132>
   		// We wont get these (as is observed)
   		// 		even though ENTX is enabled.  IE2 for MOB0 needs to be enabled
   		CANCDMOB = 0x00;	   	  // Disable Transmission
   		CANSTMOB = 0x00; //~(1<<TXOK);   // Clear TXOK flag
   }		
   CANPAGE = savecanpage;      // Restore original MOB
    226a:	c0 93 ed 00 	sts	0x00ED, r28
}
    226e:	ff 91       	pop	r31
    2270:	ef 91       	pop	r30
    2272:	cf 91       	pop	r28
    2274:	bf 91       	pop	r27
    2276:	af 91       	pop	r26
    2278:	9f 91       	pop	r25
    227a:	8f 91       	pop	r24
    227c:	7f 91       	pop	r23
    227e:	6f 91       	pop	r22
    2280:	5f 91       	pop	r21
    2282:	4f 91       	pop	r20
    2284:	3f 91       	pop	r19
    2286:	2f 91       	pop	r18
    2288:	0f 90       	pop	r0
    228a:	0f be       	out	0x3f, r0	; 63
    228c:	0f 90       	pop	r0
    228e:	1f 90       	pop	r1
    2290:	18 95       	reti
		{
			CANCDMOB = (( 1 << CONMOB1 ) | ( 1 << IDE ) | ( 8 << DLC0));
			CANSTMOB &= ~(1<<RXOK);      // Reset reason on selected channel
		}
   }
   else if ( RXOK_FLAG ) {   		
    2292:	80 91 ee 00 	lds	r24, 0x00EE
    2296:	85 fd       	sbrc	r24, 5
    2298:	13 c0       	rjmp	.+38     	; 0x22c0 <__vector_18+0xfe>
      	CANCDMOB = (( 1 << CONMOB1 ) | ( 1 << IDE ) | ( 8 << DLC0));
      	// Note - the DLC field of the CANCDMO register is updated by the received MOb. 
      	// If the value differs from expected DLC, an error is set
	  	CANSTMOB &= ~(1<<RXOK);      // Reset reason on selected channel
   }
   else if (TXOK_FLAG)
    229a:	80 91 ee 00 	lds	r24, 0x00EE
    229e:	86 ff       	sbrs	r24, 6
    22a0:	e4 cf       	rjmp	.-56     	; 0x226a <__vector_18+0xa8>
   {  
       	if (tx_call_back != NULL)
    22a2:	e0 91 c0 02 	lds	r30, 0x02C0
    22a6:	f0 91 c1 02 	lds	r31, 0x02C1
    22aa:	30 97       	sbiw	r30, 0x00	; 0
    22ac:	09 f0       	breq	.+2      	; 0x22b0 <__vector_18+0xee>
       		tx_call_back( );			// possibly send next message.
    22ae:	09 95       	icall

		TransmittedSuccesfully = TRUE;
    22b0:	81 e0       	ldi	r24, 0x01	; 1
    22b2:	80 93 b5 02 	sts	0x02B5, r24
   		// We wont get these (as is observed)
   		// 		even though ENTX is enabled.  IE2 for MOB0 needs to be enabled
   		CANCDMOB = 0x00;	   	  // Disable Transmission
    22b6:	10 92 ef 00 	sts	0x00EF, r1
   		CANSTMOB = 0x00; //~(1<<TXOK);   // Clear TXOK flag
    22ba:	10 92 ee 00 	sts	0x00EE, r1
    22be:	d5 cf       	rjmp	.-86     	; 0x226a <__vector_18+0xa8>
			CANCDMOB = (( 1 << CONMOB1 ) | ( 1 << IDE ) | ( 8 << DLC0));
			CANSTMOB &= ~(1<<RXOK);      // Reset reason on selected channel
		}
   }
   else if ( RXOK_FLAG ) {   		
       	NewMessageReceivedFlag = TRUE;
    22c0:	81 e0       	ldi	r24, 0x01	; 1
    22c2:	80 93 b4 02 	sts	0x02B4, r24
       	can_retrieve_data( &LastReceivedMsg );
    22c6:	85 ea       	ldi	r24, 0xA5	; 165
    22c8:	92 e0       	ldi	r25, 0x02	; 2
    22ca:	0e 94 c0 10 	call	0x2180	; 0x2180 <_Z17can_retrieve_dataP4sCAN>
		BOOL handled = can_board_msg_responder( &LastReceivedMsg );
    22ce:	85 ea       	ldi	r24, 0xA5	; 165
    22d0:	92 e0       	ldi	r25, 0x02	; 2
    22d2:	0e 94 70 15 	call	0x2ae0	; 0x2ae0 <_Z23can_board_msg_responderP4sCAN>
		if (!handled) {
    22d6:	88 23       	and	r24, r24
    22d8:	69 f4       	brne	.+26     	; 0x22f4 <__vector_18+0x132>
	       	QueueMessage( &LastReceivedMsg );
    22da:	85 ea       	ldi	r24, 0xA5	; 165
    22dc:	92 e0       	ldi	r25, 0x02	; 2
    22de:	0e 94 41 17 	call	0x2e82	; 0x2e82 <_Z12QueueMessageP4sCAN>
	       	if (rx_call_back != NULL)
    22e2:	e0 91 be 02 	lds	r30, 0x02BE
    22e6:	f0 91 bf 02 	lds	r31, 0x02BF
    22ea:	30 97       	sbiw	r30, 0x00	; 0
    22ec:	19 f0       	breq	.+6      	; 0x22f4 <__vector_18+0x132>
    	   		rx_call_back( &LastReceivedMsg );
    22ee:	85 ea       	ldi	r24, 0xA5	; 165
    22f0:	92 e0       	ldi	r25, 0x02	; 2
    22f2:	09 95       	icall
		}

		// (Re)Enable Reception 29 bit IDE DLC8:
      	CANCDMOB = (( 1 << CONMOB1 ) | ( 1 << IDE ) | ( 8 << DLC0));
    22f4:	88 e9       	ldi	r24, 0x98	; 152
    22f6:	80 93 ef 00 	sts	0x00EF, r24
      	// Note - the DLC field of the CANCDMO register is updated by the received MOb. 
      	// If the value differs from expected DLC, an error is set
	  	CANSTMOB &= ~(1<<RXOK);      // Reset reason on selected channel
    22fa:	80 91 ee 00 	lds	r24, 0x00EE
    22fe:	8f 7d       	andi	r24, 0xDF	; 223
    2300:	80 93 ee 00 	sts	0x00EE, r24
    2304:	b2 cf       	rjmp	.-156    	; 0x226a <__vector_18+0xa8>
ISR ( CAN_INT_vect )
{
   int8_t savecanpage;
   savecanpage = CANPAGE;         // Save current MOB
   int8_t mob = (CANHPMOB & 0xF0) >> 4;
   if (mob == 0x0F)  { CANGIT |= 0; return; }	   
    2306:	80 91 da 00 	lds	r24, 0x00DA
    230a:	80 93 da 00 	sts	0x00DA, r24
    230e:	af cf       	rjmp	.-162    	; 0x226e <__vector_18+0xac>

00002310 <_Z20can_send_msg_no_waithP4sCAN>:
   {   	/* if ANY_ERROR break */   };
#endif
}

void can_send_msg_no_wait( byte mMOb_Number, struct sCAN* mMsg )
{  
    2310:	cf 93       	push	r28
    2312:	df 93       	push	r29
    2314:	eb 01       	movw	r28, r22
   byte page = 0;
   page		|= (mMOb_Number << 4);
    2316:	98 2f       	mov	r25, r24
    2318:	92 95       	swap	r25
    231a:	90 7f       	andi	r25, 0xF0	; 240
   cli();
    231c:	f8 94       	cli
   CANPAGE = page;
    231e:	90 93 ed 00 	sts	0x00ED, r25

   // while ((CANEN2 & (_BV(mMOb_Number))) >0) {};  // Wait for MOb 0 to be free
   CANSTMOB = 0x00;     	// Clear mob status register
    2322:	10 92 ee 00 	sts	0x00EE, r1
   can_set_id( mMOb_Number, mMsg->id );
    2326:	48 81       	ld	r20, Y
    2328:	59 81       	ldd	r21, Y+1	; 0x01
    232a:	6a 81       	ldd	r22, Y+2	; 0x02
    232c:	7b 81       	ldd	r23, Y+3	; 0x03
    232e:	0e 94 2d 0f 	call	0x1e5a	; 0x1e5a <_Z10can_set_idh6idType>

   for (int i=0; i<mMsg->header.DLC; i++)
    2332:	8c 81       	ldd	r24, Y+4	; 0x04
    2334:	86 95       	lsr	r24
    2336:	8f 70       	andi	r24, 0x0F	; 15
    2338:	79 f0       	breq	.+30     	; 0x2358 <_Z20can_send_msg_no_waithP4sCAN+0x48>
   while ( (CANSTMOB & (1<<TXOK))==0 )	// wait for TXOK flag set
   {   	/* if ANY_ERROR break */   };
#endif
}

void can_send_msg_no_wait( byte mMOb_Number, struct sCAN* mMsg )
    233a:	fe 01       	movw	r30, r28
    233c:	35 96       	adiw	r30, 0x05	; 5

   // while ((CANEN2 & (_BV(mMOb_Number))) >0) {};  // Wait for MOb 0 to be free
   CANSTMOB = 0x00;     	// Clear mob status register
   can_set_id( mMOb_Number, mMsg->id );

   for (int i=0; i<mMsg->header.DLC; i++)
    233e:	80 e0       	ldi	r24, 0x00	; 0
    2340:	90 e0       	ldi	r25, 0x00	; 0
   {
      CANMSG = mMsg->data[i];
    2342:	21 91       	ld	r18, Z+
    2344:	20 93 fa 00 	sts	0x00FA, r18

   // while ((CANEN2 & (_BV(mMOb_Number))) >0) {};  // Wait for MOb 0 to be free
   CANSTMOB = 0x00;     	// Clear mob status register
   can_set_id( mMOb_Number, mMsg->id );

   for (int i=0; i<mMsg->header.DLC; i++)
    2348:	01 96       	adiw	r24, 0x01	; 1
    234a:	2c 81       	ldd	r18, Y+4	; 0x04
    234c:	26 95       	lsr	r18
    234e:	2f 70       	andi	r18, 0x0F	; 15
    2350:	30 e0       	ldi	r19, 0x00	; 0
    2352:	82 17       	cp	r24, r18
    2354:	93 07       	cpc	r25, r19
    2356:	ac f3       	brlt	.-22     	; 0x2342 <_Z20can_send_msg_no_waithP4sCAN+0x32>
   {
      CANMSG = mMsg->data[i];
   }
   Can_clear_rtr();
    2358:	80 91 f0 00 	lds	r24, 0x00F0
    235c:	8b 7f       	andi	r24, 0xFB	; 251
    235e:	80 93 f0 00 	sts	0x00F0, r24
   CANCDMOB = TRANSMIT | ( 1 << IDE ) | ( mMsg->header.DLC );    // Enable transmission, data length=1 (CAN Standard rev 2.0B(29 bit identifiers))
    2362:	8c 81       	ldd	r24, Y+4	; 0x04
    2364:	86 95       	lsr	r24
    2366:	8f 70       	andi	r24, 0x0F	; 15
    2368:	80 65       	ori	r24, 0x50	; 80
    236a:	80 93 ef 00 	sts	0x00EF, r24
   sei();
    236e:	78 94       	sei
}
    2370:	df 91       	pop	r29
    2372:	cf 91       	pop	r28
    2374:	08 95       	ret

00002376 <_Z12can_send_msghP4sCAN>:
	can_send_msg()
    Stuff the parameters into the CAN registers 
************************************************************/
void can_send_msg( byte mMOb_Number, struct sCAN* mMsg )
{  
	can_send_msg_no_wait( mMOb_Number, mMsg );
    2376:	0e 94 88 11 	call	0x2310	; 0x2310 <_Z20can_send_msg_no_waithP4sCAN>
/* TX INTERRUPTS DO NOT WORK.  GETS STUCK IN ABOVE LOOP.  THOUGH THE TXOK GOES HIGH.
//	while ( (CANSTMOB & (1<<TXOK))==0 )		// wait for TXOK flag set
//	{   	 if ANY_ERROR break    }; */
#else
   //CANCDMOB = TRANSMIT | ( 1 << IDE ) | ( mMsg->header.DLC );    // Enable transmission, data length=1 (CAN Standard rev 2.0B(29 bit identifiers))
   while ( (CANSTMOB & (1<<TXOK))==0 )	// wait for TXOK flag set
    237a:	80 91 ee 00 	lds	r24, 0x00EE
    237e:	86 ff       	sbrs	r24, 6
    2380:	fc cf       	rjmp	.-8      	; 0x237a <_Z12can_send_msghP4sCAN+0x4>
   {   	/* if ANY_ERROR break */   };
#endif
}
    2382:	08 95       	ret

00002384 <_Z17can_get_timestampv>:
  Gets timestamp out of the CAN timer registers 
************************************************************/
word can_get_timestamp()
{
  word retval = 0;
  retval = CANSTML;
    2384:	20 91 f8 00 	lds	r18, 0x00F8
    2388:	30 e0       	ldi	r19, 0x00	; 0
  retval |= (CANSTMH<<8);
    238a:	40 91 f9 00 	lds	r20, 0x00F9
    238e:	94 2f       	mov	r25, r20
    2390:	80 e0       	ldi	r24, 0x00	; 0
    2392:	28 2b       	or	r18, r24
    2394:	39 2b       	or	r19, r25
  return retval;
}
    2396:	c9 01       	movw	r24, r18
    2398:	08 95       	ret

0000239a <_Z11can_get_msgP4sCAN>:
can_get_msg()
  Operates on the currently selected CANPAGE MOB.
  Adds a timestamp in addition to can_retrieve_data();	
************************************************************/
void can_get_msg( struct sCAN* mMsg )
{
    239a:	cf 93       	push	r28
    239c:	df 93       	push	r29
    239e:	ec 01       	movw	r28, r24
  mMsg->header.DLC = can_retrieve_data( mMsg );
    23a0:	0e 94 c0 10 	call	0x2180	; 0x2180 <_Z17can_retrieve_dataP4sCAN>
    23a4:	8f 70       	andi	r24, 0x0F	; 15
    23a6:	88 0f       	add	r24, r24
    23a8:	9c 81       	ldd	r25, Y+4	; 0x04
    23aa:	91 7e       	andi	r25, 0xE1	; 225
    23ac:	98 2b       	or	r25, r24
    23ae:	9c 83       	std	Y+4, r25	; 0x04
  Gets timestamp out of the CAN timer registers 
************************************************************/
word can_get_timestamp()
{
  word retval = 0;
  retval = CANSTML;
    23b0:	80 91 f8 00 	lds	r24, 0x00F8
    23b4:	90 e0       	ldi	r25, 0x00	; 0
  retval |= (CANSTMH<<8);
    23b6:	40 91 f9 00 	lds	r20, 0x00F9
    23ba:	34 2f       	mov	r19, r20
    23bc:	20 e0       	ldi	r18, 0x00	; 0
    23be:	82 2b       	or	r24, r18
    23c0:	93 2b       	or	r25, r19
  Adds a timestamp in addition to can_retrieve_data();	
************************************************************/
void can_get_msg( struct sCAN* mMsg )
{
  mMsg->header.DLC = can_retrieve_data( mMsg );
  mMsg->time_stamp = can_get_timestamp();
    23c2:	9e 87       	std	Y+14, r25	; 0x0e
    23c4:	8d 87       	std	Y+13, r24	; 0x0d
}
    23c6:	df 91       	pop	r29
    23c8:	cf 91       	pop	r28
    23ca:	08 95       	ret

000023cc <_Z8set_baudh>:
Returns:        none
Description:    This function: sets baudrate, enables Mob0 for Reception
*****************************************************************************/
void set_baud(byte mSpeed)
{
	switch (mSpeed)
    23cc:	83 30       	cpi	r24, 0x03	; 3
    23ce:	61 f0       	breq	.+24     	; 0x23e8 <_Z8set_baudh+0x1c>
    23d0:	84 30       	cpi	r24, 0x04	; 4
    23d2:	30 f0       	brcs	.+12     	; 0x23e0 <_Z8set_baudh+0x14>
    23d4:	85 30       	cpi	r24, 0x05	; 5
    23d6:	d1 f0       	breq	.+52     	; 0x240c <_Z8set_baudh+0x40>
    23d8:	85 30       	cpi	r24, 0x05	; 5
    23da:	80 f4       	brcc	.+32     	; 0x23fc <_Z8set_baudh+0x30>
	if (mHighTQ) {
	   CANBT1 = BT1_200Kbps;
	   CANBT2 = BT2_200Kbps;
	   CANBT3 = BT3_200Kbps;
	} else {   
	   CANBT1 = BT1_200Kbps_A;
    23dc:	82 e1       	ldi	r24, 0x12	; 18
    23de:	05 c0       	rjmp	.+10     	; 0x23ea <_Z8set_baudh+0x1e>
Returns:        none
Description:    This function: sets baudrate, enables Mob0 for Reception
*****************************************************************************/
void set_baud(byte mSpeed)
{
	switch (mSpeed)
    23e0:	81 30       	cpi	r24, 0x01	; 1
    23e2:	91 f0       	breq	.+36     	; 0x2408 <_Z8set_baudh+0x3c>
    23e4:	82 30       	cpi	r24, 0x02	; 2
    23e6:	71 f0       	breq	.+28     	; 0x2404 <_Z8set_baudh+0x38>
	if (mHighTQ) {
	   CANBT1 = BT1_250Kbps;
	   CANBT2 = BT2_250Kbps;
	   CANBT3 = BT3_250Kbps;
	} else {   
	   CANBT1 = BT1_250Kbps_A;
    23e8:	8e e0       	ldi	r24, 0x0E	; 14
    23ea:	80 93 e2 00 	sts	0x00E2, r24
	   CANBT2 = BT2_250Kbps_A;
    23ee:	84 e0       	ldi	r24, 0x04	; 4
    23f0:	80 93 e3 00 	sts	0x00E3, r24
	   CANBT3 = BT3_250Kbps_A;
    23f4:	83 e1       	ldi	r24, 0x13	; 19
    23f6:	80 93 e4 00 	sts	0x00E4, r24
    23fa:	08 95       	ret
Returns:        none
Description:    This function: sets baudrate, enables Mob0 for Reception
*****************************************************************************/
void set_baud(byte mSpeed)
{
	switch (mSpeed)
    23fc:	86 30       	cpi	r24, 0x06	; 6
    23fe:	a1 f7       	brne	.-24     	; 0x23e8 <_Z8set_baudh+0x1c>
	if (mHighTQ) {
	   CANBT1 = BT1_100Kbps;
	   CANBT2 = BT2_100Kbps;
	   CANBT3 = BT3_100Kbps;
	} else {
	   CANBT1 = BT1_100Kbps_A;
    2400:	86 e2       	ldi	r24, 0x26	; 38
    2402:	f3 cf       	rjmp	.-26     	; 0x23ea <_Z8set_baudh+0x1e>
	if (mHighTQ) {
	   CANBT1 = BT1_500Kbps;
	   CANBT2 = BT2_500Kbps;
	   CANBT3 = BT3_500Kbps;
	} else {   
	   CANBT1 = BT1_500Kbps_A;
    2404:	86 e0       	ldi	r24, 0x06	; 6
    2406:	f1 cf       	rjmp	.-30     	; 0x23ea <_Z8set_baudh+0x1e>
	if (mHighTQ) {
	   CANBT1 = BT1_1Mbps;
	   CANBT2 = BT2_1Mbps;
	   CANBT3 = BT3_1Mbps;	
	} else {
	   CANBT1 = BT1_1Mbps_A;
    2408:	82 e0       	ldi	r24, 0x02	; 2
    240a:	ef cf       	rjmp	.-34     	; 0x23ea <_Z8set_baudh+0x1e>
	if (mHighTQ) {
	   CANBT1 = BT1_125Kbps;
	   CANBT2 = BT2_125Kbps;
	   CANBT3 = BT3_125Kbps;
	} else {
	   CANBT1 = BT1_125Kbps_A;
    240c:	8e e1       	ldi	r24, 0x1E	; 30
    240e:	ed cf       	rjmp	.-38     	; 0x23ea <_Z8set_baudh+0x1e>

00002410 <_Z8can_inith>:
4	MyInstance Requests			(random instance)
5	Broadcast Receive			( 				)
*****************************************************************************/
void can_init( byte mSpeed )
{
   CANGCON = ( 1 << SWRES );	// Software reset
    2410:	91 e0       	ldi	r25, 0x01	; 1
    2412:	90 93 d8 00 	sts	0x00D8, r25
   CANTCON = 0x00;        		// CAN timing prescaler set to 0
    2416:	10 92 e5 00 	sts	0x00E5, r1

   // DISABLE ALL MOBs
   for ( int8_t mob=0; mob<6; mob++ ) { 
    241a:	90 e0       	ldi	r25, 0x00	; 0
      CANPAGE = ( mob << 4 );    // Selects Message Object 0-5
    241c:	29 2f       	mov	r18, r25
    241e:	22 95       	swap	r18
    2420:	20 7f       	andi	r18, 0xF0	; 240
    2422:	20 93 ed 00 	sts	0x00ED, r18
      CANCDMOB = 0x00;           // Disable mob
    2426:	10 92 ef 00 	sts	0x00EF, r1
      CANSTMOB = 0x00;           // Clear mob status register
    242a:	10 92 ee 00 	sts	0x00EE, r1
{
   CANGCON = ( 1 << SWRES );	// Software reset
   CANTCON = 0x00;        		// CAN timing prescaler set to 0

   // DISABLE ALL MOBs
   for ( int8_t mob=0; mob<6; mob++ ) { 
    242e:	9f 5f       	subi	r25, 0xFF	; 255
    2430:	96 30       	cpi	r25, 0x06	; 6
    2432:	a1 f7       	brne	.-24     	; 0x241c <_Z8can_inith+0xc>
      CANPAGE = ( mob << 4 );    // Selects Message Object 0-5
      CANCDMOB = 0x00;           // Disable mob
      CANSTMOB = 0x00;           // Clear mob status register
   }
   CANGIE = ( 1 << ENIT ) | ( 1 << ENRX );   // Enable interrupts on receive
    2434:	90 ea       	ldi	r25, 0xA0	; 160
    2436:	90 93 db 00 	sts	0x00DB, r25

#ifdef USE_TX_INTERRUPTS
   CANGIE |= ( 1<<ENTX );
#endif

   set_baud(mSpeed);
    243a:	0e 94 e6 11 	call	0x23cc	; 0x23cc <_Z8set_baudh>
   can_init_mobs();
    243e:	0e 94 25 10 	call	0x204a	; 0x204a <_Z13can_init_mobsv>
   while (1) {
     if ((CANGSTA & (1<<ENFG)))  break;  // 1 - CAN controller enable
    2442:	80 91 d9 00 	lds	r24, 0x00D9
    2446:	82 ff       	sbrs	r24, 2
    2448:	fc cf       	rjmp	.-8      	; 0x2442 <_Z8can_inith+0x32>
   }
   //sei();
}
    244a:	08 95       	ret

0000244c <_Z15can_set_baud_1Mh>:
/*********************************************************************/
/** These adjust the BAUD RATE and SAMPLING settings		        **/
/*********************************************************************/
void can_set_baud_1M( BOOL mHighTQ )
{
	if (mHighTQ) {
    244c:	88 23       	and	r24, r24
    244e:	51 f4       	brne	.+20     	; 0x2464 <_Z15can_set_baud_1Mh+0x18>
	   CANBT1 = BT1_1Mbps;
	   CANBT2 = BT2_1Mbps;
	   CANBT3 = BT3_1Mbps;	
	} else {
	   CANBT1 = BT1_1Mbps_A;
    2450:	82 e0       	ldi	r24, 0x02	; 2
    2452:	80 93 e2 00 	sts	0x00E2, r24
	   CANBT2 = BT2_1Mbps_A;
    2456:	84 e0       	ldi	r24, 0x04	; 4
    2458:	80 93 e3 00 	sts	0x00E3, r24
	   CANBT3 = BT3_1Mbps_A;
    245c:	83 e1       	ldi	r24, 0x13	; 19
    245e:	80 93 e4 00 	sts	0x00E4, r24
    2462:	08 95       	ret
/** These adjust the BAUD RATE and SAMPLING settings		        **/
/*********************************************************************/
void can_set_baud_1M( BOOL mHighTQ )
{
	if (mHighTQ) {
	   CANBT1 = BT1_1Mbps;
    2464:	10 92 e2 00 	sts	0x00E2, r1
	   CANBT2 = BT2_1Mbps;
    2468:	8c e0       	ldi	r24, 0x0C	; 12
    246a:	80 93 e3 00 	sts	0x00E3, r24
	   CANBT3 = BT3_1Mbps;	
    246e:	86 e3       	ldi	r24, 0x36	; 54
    2470:	80 93 e4 00 	sts	0x00E4, r24
    2474:	08 95       	ret

00002476 <_Z17can_set_baud_500Kh>:
	   CANBT3 = BT3_1Mbps_A;
	}
}
void can_set_baud_500K( BOOL mHighTQ )
{
	if (mHighTQ) {
    2476:	88 23       	and	r24, r24
    2478:	51 f4       	brne	.+20     	; 0x248e <_Z17can_set_baud_500Kh+0x18>
	   CANBT1 = BT1_500Kbps;
	   CANBT2 = BT2_500Kbps;
	   CANBT3 = BT3_500Kbps;
	} else {   
	   CANBT1 = BT1_500Kbps_A;
    247a:	86 e0       	ldi	r24, 0x06	; 6
    247c:	80 93 e2 00 	sts	0x00E2, r24
	   CANBT2 = BT2_500Kbps_A;
    2480:	84 e0       	ldi	r24, 0x04	; 4
    2482:	80 93 e3 00 	sts	0x00E3, r24
	   CANBT3 = BT3_500Kbps_A;
    2486:	83 e1       	ldi	r24, 0x13	; 19
    2488:	80 93 e4 00 	sts	0x00E4, r24
    248c:	08 95       	ret
	}
}
void can_set_baud_500K( BOOL mHighTQ )
{
	if (mHighTQ) {
	   CANBT1 = BT1_500Kbps;
    248e:	82 e0       	ldi	r24, 0x02	; 2
    2490:	80 93 e2 00 	sts	0x00E2, r24
	   CANBT2 = BT2_500Kbps;
    2494:	8c e0       	ldi	r24, 0x0C	; 12
    2496:	80 93 e3 00 	sts	0x00E3, r24
	   CANBT3 = BT3_500Kbps;
    249a:	87 e3       	ldi	r24, 0x37	; 55
    249c:	80 93 e4 00 	sts	0x00E4, r24
    24a0:	08 95       	ret

000024a2 <_Z17can_set_baud_250Kh>:
	   CANBT3 = BT3_500Kbps_A;
	}
}
void can_set_baud_250K( BOOL mHighTQ )
{
	if (mHighTQ) {
    24a2:	88 23       	and	r24, r24
    24a4:	51 f4       	brne	.+20     	; 0x24ba <_Z17can_set_baud_250Kh+0x18>
	   CANBT1 = BT1_250Kbps;
	   CANBT2 = BT2_250Kbps;
	   CANBT3 = BT3_250Kbps;
	} else {   
	   CANBT1 = BT1_250Kbps_A;
    24a6:	8e e0       	ldi	r24, 0x0E	; 14
    24a8:	80 93 e2 00 	sts	0x00E2, r24
	   CANBT2 = BT2_250Kbps_A;
    24ac:	84 e0       	ldi	r24, 0x04	; 4
    24ae:	80 93 e3 00 	sts	0x00E3, r24
	   CANBT3 = BT3_250Kbps_A;
    24b2:	83 e1       	ldi	r24, 0x13	; 19
    24b4:	80 93 e4 00 	sts	0x00E4, r24
    24b8:	08 95       	ret
	}
}
void can_set_baud_250K( BOOL mHighTQ )
{
	if (mHighTQ) {
	   CANBT1 = BT1_250Kbps;
    24ba:	86 e0       	ldi	r24, 0x06	; 6
    24bc:	80 93 e2 00 	sts	0x00E2, r24
	   CANBT2 = BT2_250Kbps;
    24c0:	8c e0       	ldi	r24, 0x0C	; 12
    24c2:	80 93 e3 00 	sts	0x00E3, r24
	   CANBT3 = BT3_250Kbps;
    24c6:	87 e3       	ldi	r24, 0x37	; 55
    24c8:	80 93 e4 00 	sts	0x00E4, r24
    24cc:	08 95       	ret

000024ce <_Z17can_set_baud_200Kh>:
	   CANBT3 = BT3_250Kbps_A;
	}
}
void can_set_baud_200K( BOOL mHighTQ )
{
	if (mHighTQ) {
    24ce:	88 23       	and	r24, r24
    24d0:	51 f4       	brne	.+20     	; 0x24e6 <_Z17can_set_baud_200Kh+0x18>
	   CANBT1 = BT1_200Kbps;
	   CANBT2 = BT2_200Kbps;
	   CANBT3 = BT3_200Kbps;
	} else {   
	   CANBT1 = BT1_200Kbps_A;
    24d2:	82 e1       	ldi	r24, 0x12	; 18
    24d4:	80 93 e2 00 	sts	0x00E2, r24
	   CANBT2 = BT2_200Kbps_A;
    24d8:	84 e0       	ldi	r24, 0x04	; 4
    24da:	80 93 e3 00 	sts	0x00E3, r24
	   CANBT3 = BT3_200Kbps_A;
    24de:	83 e1       	ldi	r24, 0x13	; 19
    24e0:	80 93 e4 00 	sts	0x00E4, r24
    24e4:	08 95       	ret
	}
}
void can_set_baud_200K( BOOL mHighTQ )
{
	if (mHighTQ) {
	   CANBT1 = BT1_200Kbps;
    24e6:	88 e0       	ldi	r24, 0x08	; 8
    24e8:	80 93 e2 00 	sts	0x00E2, r24
	   CANBT2 = BT2_200Kbps;
    24ec:	8c e0       	ldi	r24, 0x0C	; 12
    24ee:	80 93 e3 00 	sts	0x00E3, r24
	   CANBT3 = BT3_200Kbps;
    24f2:	87 e3       	ldi	r24, 0x37	; 55
    24f4:	80 93 e4 00 	sts	0x00E4, r24
    24f8:	08 95       	ret

000024fa <_Z17can_set_baud_125Kh>:
	   CANBT3 = BT3_200Kbps_A;
	}
}
void can_set_baud_125K( BOOL mHighTQ )
{
	if (mHighTQ) {
    24fa:	88 23       	and	r24, r24
    24fc:	51 f4       	brne	.+20     	; 0x2512 <_Z17can_set_baud_125Kh+0x18>
	   CANBT1 = BT1_125Kbps;
	   CANBT2 = BT2_125Kbps;
	   CANBT3 = BT3_125Kbps;
	} else {
	   CANBT1 = BT1_125Kbps_A;
    24fe:	8e e1       	ldi	r24, 0x1E	; 30
    2500:	80 93 e2 00 	sts	0x00E2, r24
	   CANBT2 = BT2_125Kbps_A;
    2504:	84 e0       	ldi	r24, 0x04	; 4
    2506:	80 93 e3 00 	sts	0x00E3, r24
	   CANBT3 = BT3_125Kbps_A;
    250a:	83 e1       	ldi	r24, 0x13	; 19
    250c:	80 93 e4 00 	sts	0x00E4, r24
    2510:	08 95       	ret
	}
}
void can_set_baud_125K( BOOL mHighTQ )
{
	if (mHighTQ) {
	   CANBT1 = BT1_125Kbps;
    2512:	8e e0       	ldi	r24, 0x0E	; 14
    2514:	80 93 e2 00 	sts	0x00E2, r24
	   CANBT2 = BT2_125Kbps;
    2518:	8c e0       	ldi	r24, 0x0C	; 12
    251a:	80 93 e3 00 	sts	0x00E3, r24
	   CANBT3 = BT3_125Kbps;
    251e:	87 e3       	ldi	r24, 0x37	; 55
    2520:	80 93 e4 00 	sts	0x00E4, r24
    2524:	08 95       	ret

00002526 <_Z17can_set_baud_100Kh>:
	   CANBT3 = BT3_125Kbps_A;
	}
}
void can_set_baud_100K( BOOL mHighTQ )
{
	if (mHighTQ) {
    2526:	88 23       	and	r24, r24
    2528:	51 f4       	brne	.+20     	; 0x253e <_Z17can_set_baud_100Kh+0x18>
	   CANBT1 = BT1_100Kbps;
	   CANBT2 = BT2_100Kbps;
	   CANBT3 = BT3_100Kbps;
	} else {
	   CANBT1 = BT1_100Kbps_A;
    252a:	86 e2       	ldi	r24, 0x26	; 38
    252c:	80 93 e2 00 	sts	0x00E2, r24
	   CANBT2 = BT2_100Kbps_A;
    2530:	84 e0       	ldi	r24, 0x04	; 4
    2532:	80 93 e3 00 	sts	0x00E3, r24
	   CANBT3 = BT3_100Kbps_A;
    2536:	83 e1       	ldi	r24, 0x13	; 19
    2538:	80 93 e4 00 	sts	0x00E4, r24
    253c:	08 95       	ret
	}
}
void can_set_baud_100K( BOOL mHighTQ )
{
	if (mHighTQ) {
	   CANBT1 = BT1_100Kbps;
    253e:	82 e1       	ldi	r24, 0x12	; 18
    2540:	80 93 e2 00 	sts	0x00E2, r24
	   CANBT2 = BT2_100Kbps;
    2544:	8c e0       	ldi	r24, 0x0C	; 12
    2546:	80 93 e3 00 	sts	0x00E3, r24
	   CANBT3 = BT3_100Kbps;
    254a:	87 e3       	ldi	r24, 0x37	; 55
    254c:	80 93 e4 00 	sts	0x00E4, r24
    2550:	08 95       	ret

00002552 <_Z22random_number_adc_initv>:
 ********************************************************/
void random_number_adc_init()
{
	// Analog to Digital Control & Status Register A:
	byte reg = (1<<ADEN) | (1<<ADIF) | 0x03;   // prescaler = 0b011
	ADCSRA = reg;
    2552:	83 e9       	ldi	r24, 0x93	; 147
    2554:	80 93 7a 00 	sts	0x007A, r24
	//	Digital Input Disable (reduce power consumption)
	//  We are using ADC2, ADC8, ADC9 : 
	DIDR0  |=  (1<<ADC3D);
    2558:	ee e7       	ldi	r30, 0x7E	; 126
    255a:	f0 e0       	ldi	r31, 0x00	; 0
    255c:	80 81       	ld	r24, Z
    255e:	88 60       	ori	r24, 0x08	; 8
    2560:	80 83       	st	Z, r24
	// HighSpeed Mode & AREF Enable internal circuitry.
	ADCSRB = (1<<ADHSM);
    2562:	80 e8       	ldi	r24, 0x80	; 128
    2564:	80 93 7b 00 	sts	0x007B, r24
}
    2568:	08 95       	ret

0000256a <_Z18pick_random_numberv>:

word pick_random_number()
{
	DDRD &= ~(0x40);
    256a:	56 98       	cbi	0x0a, 6	; 10
	// and therefore the lowest bits of ADC should certainly be random.	
	word random_result = 0;		
	word tmp    = 0;			

	// SELECT AND START CONVERSION : 
	for (int i=0; i<16; i++)			// Get a 16 bit random number.
    256c:	40 e0       	ldi	r20, 0x00	; 0
    256e:	50 e0       	ldi	r21, 0x00	; 0
	DDRD &= ~(0x40);
	// Make ADC3-PORTD_6-LED4 an input temporarily.
	// Sample PD6 (ADC3 - LED3).  Ie. Since this is used during power up, 
	// the LED pin can be turned into an input, the LED off will give high impedance 
	// and therefore the lowest bits of ADC should certainly be random.	
	word random_result = 0;		
    2570:	20 e0       	ldi	r18, 0x00	; 0
    2572:	30 e0       	ldi	r19, 0x00	; 0
	word tmp    = 0;			

	// SELECT AND START CONVERSION : 
	for (int i=0; i<16; i++)			// Get a 16 bit random number.
	{
		ADMUX  =  RANDOM_NUMBER_ADC_MUX;		
    2574:	e3 e4       	ldi	r30, 0x43	; 67
    2576:	e0 93 7c 00 	sts	0x007C, r30
		ADCSRA |= (1<<ADSC);					
    257a:	80 91 7a 00 	lds	r24, 0x007A
    257e:	80 64       	ori	r24, 0x40	; 64
    2580:	80 93 7a 00 	sts	0x007A, r24
		while ( (ADCSRA & (1<<ADSC)) > 0) {};	// Wait for conversion to finish.
    2584:	80 91 7a 00 	lds	r24, 0x007A
    2588:	86 fd       	sbrc	r24, 6
    258a:	fc cf       	rjmp	.-8      	; 0x2584 <_Z18pick_random_numberv+0x1a>
		// PICK UP RESULT: (use lowest 2 bits)	
		tmp  = (ADCL & 0x01) << (i % 16);		
    258c:	80 91 78 00 	lds	r24, 0x0078
    2590:	90 e0       	ldi	r25, 0x00	; 0
    2592:	81 70       	andi	r24, 0x01	; 1
    2594:	90 70       	andi	r25, 0x00	; 0
    2596:	ba 01       	movw	r22, r20
    2598:	6f 70       	andi	r22, 0x0F	; 15
    259a:	70 70       	andi	r23, 0x00	; 0
    259c:	02 c0       	rjmp	.+4      	; 0x25a2 <_Z18pick_random_numberv+0x38>
    259e:	88 0f       	add	r24, r24
    25a0:	99 1f       	adc	r25, r25
    25a2:	6a 95       	dec	r22
    25a4:	e2 f7       	brpl	.-8      	; 0x259e <_Z18pick_random_numberv+0x34>
		random_result |= (tmp);					
    25a6:	28 2b       	or	r18, r24
    25a8:	39 2b       	or	r19, r25
		tmp = ADCH;								
    25aa:	80 91 79 00 	lds	r24, 0x0079
	// and therefore the lowest bits of ADC should certainly be random.	
	word random_result = 0;		
	word tmp    = 0;			

	// SELECT AND START CONVERSION : 
	for (int i=0; i<16; i++)			// Get a 16 bit random number.
    25ae:	4f 5f       	subi	r20, 0xFF	; 255
    25b0:	5f 4f       	sbci	r21, 0xFF	; 255
    25b2:	40 31       	cpi	r20, 0x10	; 16
    25b4:	51 05       	cpc	r21, r1
    25b6:	f9 f6       	brne	.-66     	; 0x2576 <_Z18pick_random_numberv+0xc>
		// PICK UP RESULT: (use lowest 2 bits)	
		tmp  = (ADCL & 0x01) << (i % 16);		
		random_result |= (tmp);					
		tmp = ADCH;								
	}
	DDRD |= 0x40;					// Set ADC3-PORTD_6-LED4 back to being an output
    25b8:	56 9a       	sbi	0x0a, 6	; 10
	return random_result;
}
    25ba:	c9 01       	movw	r24, r18
    25bc:	08 95       	ret

000025be <_Z24setup_instance_claim_mobv>:
*/
void setup_instance_claim_mob()
{
	// To obtain an instance, we need a receive mob:
	// SETUP MOB3 for ID_INSTANCE_CLAIM (no Instance filter - checks done in software)
	can_setup_receive_mob		   ( INSTANCE_TX_MOB, 0x0000, 0x0000, 8 );
    25be:	83 e0       	ldi	r24, 0x03	; 3
    25c0:	60 e0       	ldi	r22, 0x00	; 0
    25c2:	70 e0       	ldi	r23, 0x00	; 0
    25c4:	40 e0       	ldi	r20, 0x00	; 0
    25c6:	50 e0       	ldi	r21, 0x00	; 0
    25c8:	28 e0       	ldi	r18, 0x08	; 8
    25ca:	0e 94 f7 0f 	call	0x1fee	; 0x1fee <_Z21can_setup_receive_mobhssh>
	can_remove_instance_from_filter( INSTANCE_TX_MOB 					);
    25ce:	83 e0       	ldi	r24, 0x03	; 3
    25d0:	0e 94 1b 0f 	call	0x1e36	; 0x1e36 <_Z31can_remove_instance_from_filterh>
	can_add_id_to_filter		   ( INSTANCE_TX_MOB, ID_INSTANCE_CLAIM, ID_INSTANCE_CLAIM );
    25d4:	83 e0       	ldi	r24, 0x03	; 3
    25d6:	63 e2       	ldi	r22, 0x23	; 35
    25d8:	7c ef       	ldi	r23, 0xFC	; 252
    25da:	43 e2       	ldi	r20, 0x23	; 35
    25dc:	5c ef       	ldi	r21, 0xFC	; 252
    25de:	0e 94 5d 0f 	call	0x1eba	; 0x1eba <_Z20can_add_id_to_filterhtt>
}
    25e2:	08 95       	ret

000025e4 <_Z17can_instance_initv>:
 ********************************************************/
void random_number_adc_init()
{
	// Analog to Digital Control & Status Register A:
	byte reg = (1<<ADEN) | (1<<ADIF) | 0x03;   // prescaler = 0b011
	ADCSRA = reg;
    25e4:	83 e9       	ldi	r24, 0x93	; 147
    25e6:	80 93 7a 00 	sts	0x007A, r24
	//	Digital Input Disable (reduce power consumption)
	//  We are using ADC2, ADC8, ADC9 : 
	DIDR0  |=  (1<<ADC3D);
    25ea:	80 91 7e 00 	lds	r24, 0x007E
    25ee:	88 60       	ori	r24, 0x08	; 8
    25f0:	80 93 7e 00 	sts	0x007E, r24
	// HighSpeed Mode & AREF Enable internal circuitry.
	ADCSRB = (1<<ADHSM);
    25f4:	80 e8       	ldi	r24, 0x80	; 128
    25f6:	80 93 7b 00 	sts	0x007B, r24
byte init_path = 0;		// Indicates the state of the Confirmed status at boot-up.

void can_instance_init()
{
	random_number_adc_init		 ( );
	word tmp = pick_random_number( );		// random time delay
    25fa:	0e 94 b5 12 	call	0x256a	; 0x256a <_Z18pick_random_numberv>
	rand_instance = rand_delay = ( tmp & 0xFF);	
    25fe:	90 e0       	ldi	r25, 0x00	; 0
    2600:	90 93 c6 02 	sts	0x02C6, r25
    2604:	80 93 c5 02 	sts	0x02C5, r24
    2608:	80 93 c7 02 	sts	0x02C7, r24

	// put adc back into mode for Potentiometer
	adc_init();
    260c:	0e 94 75 0e 	call	0x1cea	; 0x1cea <_Z8adc_initv>

	if (Confirmed==NOT_CLAIMED)
    2610:	80 91 c3 02 	lds	r24, 0x02C3
    2614:	88 23       	and	r24, r24
    2616:	51 f0       	breq	.+20     	; 0x262c <_Z17can_instance_initv+0x48>
		setup_instance_claim_mob();
		MyInstance= 0;				// start at 0!
	} else {
		// PICK a DELAY TIME
		init_path  = 2;
		Confirmed = REPORT;
    2618:	82 e0       	ldi	r24, 0x02	; 2
    261a:	80 93 c3 02 	sts	0x02C3, r24
    261e:	82 e8       	ldi	r24, 0x82	; 130
		/* We cannot send a CAN message in this function because it is called from 
		  inside the can_board_msg handler (part of isr() no transmits allowed! b/c they'll
		  generating an infinite loop of interrupts as soon as the transmit is done!)
		  */
	}
	init_path |= DIRTY;
    2620:	80 93 ca 02 	sts	0x02CA, r24
	init_complete = TRUE;
    2624:	81 e0       	ldi	r24, 0x01	; 1
    2626:	80 93 c4 02 	sts	0x02C4, r24
}
    262a:	08 95       	ret
	adc_init();

	if (Confirmed==NOT_CLAIMED)
	{
		// START AT 0; PICK a DELAY TIME : 
		init_path = 1;
    262c:	81 e0       	ldi	r24, 0x01	; 1
    262e:	80 93 ca 02 	sts	0x02CA, r24
		setup_instance_claim_mob();
    2632:	0e 94 df 12 	call	0x25be	; 0x25be <_Z24setup_instance_claim_mobv>
		MyInstance= 0;				// start at 0!
    2636:	10 92 c2 02 	sts	0x02C2, r1
    263a:	80 91 ca 02 	lds	r24, 0x02CA
    263e:	80 68       	ori	r24, 0x80	; 128
		/* We cannot send a CAN message in this function because it is called from 
		  inside the can_board_msg handler (part of isr() no transmits allowed! b/c they'll
		  generating an infinite loop of interrupts as soon as the transmit is done!)
		  */
	}
	init_path |= DIRTY;
    2640:	80 93 ca 02 	sts	0x02CA, r24
	init_complete = TRUE;
    2644:	81 e0       	ldi	r24, 0x01	; 1
    2646:	80 93 c4 02 	sts	0x02C4, r24
}
    264a:	08 95       	ret

0000264c <_Z25can_prep_instance_requestP4sCANh>:
The first data member of the msg contains the id we wish to reserve.

***************************************************************/
//extern byte ResetReason;
void can_prep_instance_request( sCAN* mMsg, byte mRandomInstance )
{
    264c:	cf 93       	push	r28
    264e:	df 93       	push	r29
    2650:	ec 01       	movw	r28, r24
	// instance used to avoid conflicts on the ID_INSTANCE_RESERVE_REQUEST
    mMsg->id 	  	 = create_CAN_eid( ID_INSTANCE_CLAIM, mRandomInstance );
    2652:	83 e2       	ldi	r24, 0x23	; 35
    2654:	9c ef       	ldi	r25, 0xFC	; 252
    2656:	0e 94 ff 13 	call	0x27fe	; 0x27fe <_Z14create_CAN_eidth>
    265a:	68 83       	st	Y, r22
    265c:	79 83       	std	Y+1, r23	; 0x01
    265e:	8a 83       	std	Y+2, r24	; 0x02
    2660:	9b 83       	std	Y+3, r25	; 0x03
	mMsg->data[0] 	 = MyInstance;		// Requested value
    2662:	80 91 c2 02 	lds	r24, 0x02C2
    2666:	8d 83       	std	Y+5, r24	; 0x05
	mMsg->data[1] 	 = Confirmed;
    2668:	80 91 c3 02 	lds	r24, 0x02C3
    266c:	8e 83       	std	Y+6, r24	; 0x06
	mMsg->data[2] 	 = rand_instance;
    266e:	80 91 c7 02 	lds	r24, 0x02C7
    2672:	8f 83       	std	Y+7, r24	; 0x07
	mMsg->data[3] 	 = init_path;
    2674:	80 91 ca 02 	lds	r24, 0x02CA
    2678:	88 87       	std	Y+8, r24	; 0x08
	mMsg->data[4] 	 = ts_state;
    267a:	80 91 cb 02 	lds	r24, 0x02CB
    267e:	89 87       	std	Y+9, r24	; 0x09
	mMsg->data[5] 	 = sys_config_byte; 
    2680:	80 91 43 03 	lds	r24, 0x0343
    2684:	8a 87       	std	Y+10, r24	; 0x0a
	//mMsg->data[6] 	 = ResetReason;	
    mMsg->header.DLC = 7;
    2686:	8c 81       	ldd	r24, Y+4	; 0x04
    2688:	80 7e       	andi	r24, 0xE0	; 224
    mMsg->header.rtr = 0;
    268a:	8e 60       	ori	r24, 0x0E	; 14
    268c:	8c 83       	std	Y+4, r24	; 0x04
}
    268e:	df 91       	pop	r29
    2690:	cf 91       	pop	r28
    2692:	08 95       	ret

00002694 <_Z22can_instance_timeslicev>:
/* Called from OS_timers.c		
		"SystemDispatch()" every 10ms.		
*/
void can_instance_timeslice()
{
	ts_state = 1;
    2694:	81 e0       	ldi	r24, 0x01	; 1
    2696:	80 93 cb 02 	sts	0x02CB, r24
	if (Confirmed==CLAIMED)	  return;		// nothing to do
    269a:	40 91 c3 02 	lds	r20, 0x02C3
    269e:	41 30       	cpi	r20, 0x01	; 1
    26a0:	59 f1       	breq	.+86     	; 0x26f8 <_Z22can_instance_timeslicev+0x64>
	if (init_complete==FALSE) return;		//
    26a2:	80 91 c4 02 	lds	r24, 0x02C4
    26a6:	88 23       	and	r24, r24
    26a8:	39 f1       	breq	.+78     	; 0x26f8 <_Z22can_instance_timeslicev+0x64>
	ts_state   = 2;
    26aa:	82 e0       	ldi	r24, 0x02	; 2
    26ac:	80 93 cb 02 	sts	0x02CB, r24
	if (rand_delay-- > 0)	  return;		// wait until our appointed time to claim
    26b0:	80 91 c5 02 	lds	r24, 0x02C5
    26b4:	90 91 c6 02 	lds	r25, 0x02C6
    26b8:	9c 01       	movw	r18, r24
    26ba:	21 50       	subi	r18, 0x01	; 1
    26bc:	30 40       	sbci	r19, 0x00	; 0
    26be:	30 93 c6 02 	sts	0x02C6, r19
    26c2:	20 93 c5 02 	sts	0x02C5, r18
    26c6:	00 97       	sbiw	r24, 0x00	; 0
    26c8:	b9 f4       	brne	.+46     	; 0x26f8 <_Z22can_instance_timeslicev+0x64>
	rand_delay = 1;							// so that it comes back in here next timeslice
    26ca:	81 e0       	ldi	r24, 0x01	; 1
    26cc:	90 e0       	ldi	r25, 0x00	; 0
    26ce:	90 93 c6 02 	sts	0x02C6, r25
    26d2:	80 93 c5 02 	sts	0x02C5, r24

	if (Confirmed==NOT_CLAIMED)
    26d6:	44 23       	and	r20, r20
    26d8:	91 f0       	breq	.+36     	; 0x26fe <_Z22can_instance_timeslicev+0x6a>
		Confirmed = CLAIM_PENDING;
		can_prep_instance_request( &msg2, rand_instance );
		can_send_msg_no_wait	 ( 0, &msg2	);	// no wait here!
		timeout_10ms_mult = 300;				// 3 seconds
	}
	if (Confirmed==REPORT)
    26da:	42 30       	cpi	r20, 0x02	; 2
    26dc:	09 f4       	brne	.+2      	; 0x26e0 <_Z22can_instance_timeslicev+0x4c>
    26de:	5a c0       	rjmp	.+180    	; 0x2794 <_Z22can_instance_timeslicev+0x100>
		ts_state = 7;
		Confirmed = CLAIMED;
		can_prep_instance_request( &msg2, MyInstance );
		can_send_msg_no_wait	 ( 0, &msg2	);	// no wait here!
	}
	if (Confirmed==CLAIM_PENDING)
    26e0:	40 32       	cpi	r20, 0x20	; 32
    26e2:	39 f1       	breq	.+78     	; 0x2732 <_Z22can_instance_timeslicev+0x9e>
			Confirmed = NOT_USING_INSTANCES;
		}
		CANPAGE = restore;
		sei();		
	}
	if (Confirmed == DIRTY)			// (Claimed, but not saved to EEPROM) Dirty bit set? 
    26e4:	40 38       	cpi	r20, 0x80	; 128
    26e6:	09 f4       	brne	.+2      	; 0x26ea <_Z22can_instance_timeslicev+0x56>
    26e8:	47 c0       	rjmp	.+142    	; 0x2778 <_Z22can_instance_timeslicev+0xe4>

		// SEND 1 MORE FOR DEBUG PURPOSES:
		//can_prep_instance_request( &msg2, MyInstance );
		//can_send_msg_no_wait( 0, &msg2    );
	}
	else if (Confirmed == CLEAR_REQUEST)	
    26ea:	40 34       	cpi	r20, 0x40	; 64
    26ec:	31 f0       	breq	.+12     	; 0x26fa <_Z22can_instance_timeslicev+0x66>
    26ee:	80 91 cb 02 	lds	r24, 0x02CB
    26f2:	80 68       	ori	r24, 0x80	; 128
		//cli(); save_configuration(); sei();
		// SEND 1 MORE FOR DEBUG PURPOSES:
		//can_prep_instance_request( &msg2, MyInstance );
		//can_send_msg_no_wait( 0, &msg2    );
	}
	ts_state |= 0x80;
    26f4:	80 93 cb 02 	sts	0x02CB, r24
    26f8:	08 95       	ret

		// SEND 1 MORE FOR DEBUG PURPOSES:
		//can_prep_instance_request( &msg2, MyInstance );
		//can_send_msg_no_wait( 0, &msg2    );
	}
	else if (Confirmed == CLEAR_REQUEST)	
    26fa:	86 e8       	ldi	r24, 0x86	; 134
    26fc:	fb cf       	rjmp	.-10     	; 0x26f4 <_Z22can_instance_timeslicev+0x60>
	if (rand_delay-- > 0)	  return;		// wait until our appointed time to claim
	rand_delay = 1;							// so that it comes back in here next timeslice

	if (Confirmed==NOT_CLAIMED)
	{
		ts_state = 3;
    26fe:	83 e0       	ldi	r24, 0x03	; 3
    2700:	80 93 cb 02 	sts	0x02CB, r24
		Confirmed = CLAIM_PENDING;
    2704:	80 e2       	ldi	r24, 0x20	; 32
    2706:	80 93 c3 02 	sts	0x02C3, r24
		can_prep_instance_request( &msg2, rand_instance );
    270a:	86 e9       	ldi	r24, 0x96	; 150
    270c:	92 e0       	ldi	r25, 0x02	; 2
    270e:	60 91 c7 02 	lds	r22, 0x02C7
    2712:	0e 94 26 13 	call	0x264c	; 0x264c <_Z25can_prep_instance_requestP4sCANh>
		can_send_msg_no_wait	 ( 0, &msg2	);	// no wait here!
    2716:	80 e0       	ldi	r24, 0x00	; 0
    2718:	66 e9       	ldi	r22, 0x96	; 150
    271a:	72 e0       	ldi	r23, 0x02	; 2
    271c:	0e 94 88 11 	call	0x2310	; 0x2310 <_Z20can_send_msg_no_waithP4sCAN>
		timeout_10ms_mult = 300;				// 3 seconds
    2720:	8c e2       	ldi	r24, 0x2C	; 44
    2722:	91 e0       	ldi	r25, 0x01	; 1
    2724:	90 93 c9 02 	sts	0x02C9, r25
    2728:	80 93 c8 02 	sts	0x02C8, r24
    272c:	40 91 c3 02 	lds	r20, 0x02C3
    2730:	d4 cf       	rjmp	.-88     	; 0x26da <_Z22can_instance_timeslicev+0x46>
		can_prep_instance_request( &msg2, MyInstance );
		can_send_msg_no_wait	 ( 0, &msg2	);	// no wait here!
	}
	if (Confirmed==CLAIM_PENDING)
	{
		ts_state = 4;	
    2732:	84 e0       	ldi	r24, 0x04	; 4
    2734:	80 93 cb 02 	sts	0x02CB, r24
		// Wait for either TXOK or RX ID_INSTANCE_CLAIM (aborts the TX)
		// OR a TIMEOUT 
		cli();
    2738:	f8 94       	cli
		byte restore = CANPAGE;
    273a:	20 91 ed 00 	lds	r18, 0x00ED
		CANPAGE 	 = 0x00;
    273e:	10 92 ed 00 	sts	0x00ED, r1

		if (TXOK_FLAG)
    2742:	80 91 ee 00 	lds	r24, 0x00EE
    2746:	86 ff       	sbrs	r24, 6
    2748:	03 c0       	rjmp	.+6      	; 0x2750 <_Z22can_instance_timeslicev+0xbc>
			// We finished sending, so we claimed it.
			Confirmed = DIRTY;		// save on next timeslice
    274a:	80 e8       	ldi	r24, 0x80	; 128
    274c:	80 93 c3 02 	sts	0x02C3, r24
			//   if an incoming ID_INSTANCE_CLAIM comes in with same ID, it will
			//   abort transmission & update Confirmed.
			// It was aborted and MyInstance was bumped.
			// do nothing just wait for next timeslice.
			// Confirmed=NOT_CLAIMED;
		timeout_10ms_mult--;
    2750:	80 91 c8 02 	lds	r24, 0x02C8
    2754:	90 91 c9 02 	lds	r25, 0x02C9
    2758:	01 97       	sbiw	r24, 0x01	; 1
    275a:	90 93 c9 02 	sts	0x02C9, r25
    275e:	80 93 c8 02 	sts	0x02C8, r24
		if (timeout_10ms_mult == 0)
    2762:	00 97       	sbiw	r24, 0x00	; 0
    2764:	19 f4       	brne	.+6      	; 0x276c <_Z22can_instance_timeslicev+0xd8>
		{
			Confirmed = NOT_USING_INSTANCES;
    2766:	84 e0       	ldi	r24, 0x04	; 4
    2768:	80 93 c3 02 	sts	0x02C3, r24
		}
		CANPAGE = restore;
    276c:	20 93 ed 00 	sts	0x00ED, r18
		sei();		
    2770:	78 94       	sei
    2772:	40 91 c3 02 	lds	r20, 0x02C3
    2776:	b6 cf       	rjmp	.-148    	; 0x26e4 <_Z22can_instance_timeslicev+0x50>
	}
	if (Confirmed == DIRTY)			// (Claimed, but not saved to EEPROM) Dirty bit set? 
	{
		ts_state  = 5;
    2778:	85 e0       	ldi	r24, 0x05	; 5
    277a:	80 93 cb 02 	sts	0x02CB, r24
		Confirmed = CLAIMED;		// don't save next time, just skip the claiming
    277e:	81 e0       	ldi	r24, 0x01	; 1
    2780:	80 93 c3 02 	sts	0x02C3, r24
		
		cli();  save_configuration();  sei();
    2784:	f8 94       	cli
    2786:	0e 94 15 1c 	call	0x382a	; 0x382a <_Z18save_configurationv>
    278a:	78 94       	sei
    278c:	80 91 cb 02 	lds	r24, 0x02CB
    2790:	80 68       	ori	r24, 0x80	; 128
    2792:	b0 cf       	rjmp	.-160    	; 0x26f4 <_Z22can_instance_timeslicev+0x60>
		can_send_msg_no_wait	 ( 0, &msg2	);	// no wait here!
		timeout_10ms_mult = 300;				// 3 seconds
	}
	if (Confirmed==REPORT)
	{
		ts_state = 7;
    2794:	87 e0       	ldi	r24, 0x07	; 7
    2796:	80 93 cb 02 	sts	0x02CB, r24
		Confirmed = CLAIMED;
    279a:	81 e0       	ldi	r24, 0x01	; 1
    279c:	80 93 c3 02 	sts	0x02C3, r24
		can_prep_instance_request( &msg2, MyInstance );
    27a0:	86 e9       	ldi	r24, 0x96	; 150
    27a2:	92 e0       	ldi	r25, 0x02	; 2
    27a4:	60 91 c2 02 	lds	r22, 0x02C2
    27a8:	0e 94 26 13 	call	0x264c	; 0x264c <_Z25can_prep_instance_requestP4sCANh>
		can_send_msg_no_wait	 ( 0, &msg2	);	// no wait here!
    27ac:	80 e0       	ldi	r24, 0x00	; 0
    27ae:	66 e9       	ldi	r22, 0x96	; 150
    27b0:	72 e0       	ldi	r23, 0x02	; 2
    27b2:	0e 94 88 11 	call	0x2310	; 0x2310 <_Z20can_send_msg_no_waithP4sCAN>
    27b6:	40 91 c3 02 	lds	r20, 0x02C3
    27ba:	92 cf       	rjmp	.-220    	; 0x26e0 <_Z22can_instance_timeslicev+0x4c>

000027bc <_Z23can_prep_instance_queryP4sCAN>:

/* We believe we have an instance claimed.
	Make sure it's unique on the network 
	No-reply  */
void can_prep_instance_query( sCAN* mMsg )
{
    27bc:	cf 93       	push	r28
    27be:	df 93       	push	r29
    27c0:	ec 01       	movw	r28, r24
	// instance used to avoid conflicts on the ID_INSTANCE_RESERVE_REQUEST 
    mMsg->id 	  = create_CAN_eid( ID_INSTANCE_QUERY, MyInstance );
    27c2:	84 e2       	ldi	r24, 0x24	; 36
    27c4:	9c ef       	ldi	r25, 0xFC	; 252
    27c6:	60 91 c2 02 	lds	r22, 0x02C2
    27ca:	0e 94 ff 13 	call	0x27fe	; 0x27fe <_Z14create_CAN_eidth>
    27ce:	68 83       	st	Y, r22
    27d0:	79 83       	std	Y+1, r23	; 0x01
    27d2:	8a 83       	std	Y+2, r24	; 0x02
    27d4:	9b 83       	std	Y+3, r25	; 0x03
	mMsg->data[0] = MyInstance;		// Requested value
    27d6:	80 91 c2 02 	lds	r24, 0x02C2
    27da:	8d 83       	std	Y+5, r24	; 0x05
    mMsg->header.DLC    = 1;
    27dc:	8c 81       	ldd	r24, Y+4	; 0x04
    27de:	80 7e       	andi	r24, 0xE0	; 224
    mMsg->header.rtr    = 0;
    27e0:	82 60       	ori	r24, 0x02	; 2
    27e2:	8c 83       	std	Y+4, r24	; 0x04
}
    27e4:	df 91       	pop	r29
    27e6:	cf 91       	pop	r28
    27e8:	08 95       	ret

000027ea <_Z28can_process_instance_requestP4sCAN>:
 	
 Extract instance from the Message.
 ***********************************************************/
void can_process_instance_request( sCAN* mMsg )
{
	byte instance = mMsg->data[0];
    27ea:	fc 01       	movw	r30, r24
    27ec:	85 81       	ldd	r24, Z+5	; 0x05
	if (MyInstance > instance)	return;  // ignore since someone else is behind the game.
    27ee:	90 91 c2 02 	lds	r25, 0x02C2
    27f2:	89 17       	cp	r24, r25
    27f4:	18 f0       	brcs	.+6      	; 0x27fc <_Z28can_process_instance_requestP4sCAN+0x12>

	MyInstance = instance+1;
    27f6:	8f 5f       	subi	r24, 0xFF	; 255
    27f8:	80 93 c2 02 	sts	0x02C2, r24
    27fc:	08 95       	ret

000027fe <_Z14create_CAN_eidth>:
	Instance_ID
OUTPUT:
	return - a complete CAN 2.0B id (4 bytes)
**************************************************/
tID		create_CAN_eid( word mIdentifier, byte mInstance )
{
    27fe:	26 2f       	mov	r18, r22
	tID id;
	id.group.block 	   = (0x00);
	id.group.id 	   = (mIdentifier);
	id.group.instance  = (mInstance);
	return id;
}
    2800:	60 e0       	ldi	r22, 0x00	; 0
    2802:	78 2f       	mov	r23, r24
    2804:	89 2f       	mov	r24, r25
    2806:	92 2f       	mov	r25, r18
    2808:	08 95       	ret

0000280a <_Z14create_CAN_eidhth>:

tID		create_CAN_eid( byte mBlock, word mIdentifier, byte mInstance	)
{
    280a:	38 2f       	mov	r19, r24
    280c:	26 2f       	mov	r18, r22
    280e:	87 2f       	mov	r24, r23
    2810:	94 2f       	mov	r25, r20
	tID id;
	id.group.block		= (mBlock);
	id.group.id			= (mIdentifier);
	id.group.instance	= (mInstance);
	return id;
}
    2812:	63 2f       	mov	r22, r19
    2814:	72 2f       	mov	r23, r18
    2816:	08 95       	ret

00002818 <_Z9get_block6idType>:
bool  id_match   	( tID m1, tID m2 );
bool  instance_match( tID m1, tID m2 ); */

//===================== ACCESSOR FUNCTIONS: ==============================
byte   get_block(  tID mID  )				
{
    2818:	86 2f       	mov	r24, r22
	return (mID.group.block);
//	return (mID & 0xFF000000) >> 24;
}
    281a:	08 95       	ret

0000281c <_Z12get_instance6idType>:
byte   get_instance(  tID mID  )				
{
    281c:	87 2f       	mov	r24, r23
	return (mID.group.id);
//	return (mID & 0x000000FF);
}
    281e:	08 95       	ret

00002820 <_Z6get_id6idType>:
word   get_id(  tID mID  )	
{
	return (mID.group.instance);
//	return (mID & 0x00FFFF00) >> 8;
}
    2820:	89 2f       	mov	r24, r25
    2822:	90 e0       	ldi	r25, 0x00	; 0
    2824:	08 95       	ret

00002826 <_Z5match6idTypeS_>:

//=================== MATCHING FUNCTIONS: =======================
bool   match( tID m1, tID m2 )
{
	return (m1.full_id == m2.full_id);
    2826:	e1 e0       	ldi	r30, 0x01	; 1
    2828:	62 17       	cp	r22, r18
    282a:	73 07       	cpc	r23, r19
    282c:	84 07       	cpc	r24, r20
    282e:	95 07       	cpc	r25, r21
    2830:	09 f0       	breq	.+2      	; 0x2834 <_Z5match6idTypeS_+0xe>
    2832:	e0 e0       	ldi	r30, 0x00	; 0
}
    2834:	8e 2f       	mov	r24, r30
    2836:	08 95       	ret

00002838 <_Z11block_match6idTypeS_>:

bool   block_match( tID m1, tID m2 )
{
	return (m1.group.block == m2.group.block);
    2838:	81 e0       	ldi	r24, 0x01	; 1
    283a:	62 13       	cpse	r22, r18
    283c:	80 e0       	ldi	r24, 0x00	; 0
//	return (get_block(m1) == get_block(m2));
}
    283e:	08 95       	ret

00002840 <_Z8id_match6idTypeS_>:
bool   id_match( tID m1, tID m2 )
{
    2840:	93 2f       	mov	r25, r19
	return (m1.group.id == m2.group.id);
    2842:	27 2f       	mov	r18, r23
    2844:	38 2f       	mov	r19, r24
    2846:	69 2f       	mov	r22, r25
    2848:	74 2f       	mov	r23, r20
    284a:	81 e0       	ldi	r24, 0x01	; 1
    284c:	26 17       	cp	r18, r22
    284e:	37 07       	cpc	r19, r23
    2850:	09 f0       	breq	.+2      	; 0x2854 <_Z8id_match6idTypeS_+0x14>
    2852:	80 e0       	ldi	r24, 0x00	; 0
}
    2854:	08 95       	ret

00002856 <_Z14instance_match6idTypeh>:
bool   instance_match( tID m1, byte m2 )
{
	return (m1.group.instance == m2);
    2856:	81 e0       	ldi	r24, 0x01	; 1
    2858:	49 13       	cpse	r20, r25
    285a:	80 e0       	ldi	r24, 0x00	; 0
//	return (get_instance(m1) == get_instance(m2));
}
    285c:	08 95       	ret

0000285e <_Z22set_configure_callbackPFvhE>:
//////////////////////////////////////////////////////////////////////////////
void (*config_call_back)(byte mByteChanged) = NULL;		// Call back function
void set_configure_callback( void (*mCallback)(byte mByteChanged) )
{
	// ByteChanged [1..4] is the config byte which changed.
	config_call_back = mCallback;
    285e:	90 93 d2 02 	sts	0x02D2, r25
    2862:	80 93 d1 02 	sts	0x02D1, r24
}
    2866:	08 95       	ret

00002868 <_Z27can_prep_board_presence_msgP4sCAN>:
 arrangement" scheme will be worked out later.

The Model should be #defined in the "pin_definitions.h"
****************************************************************************/
void can_prep_board_presence_msg( sCAN* mMsg )
{
    2868:	cf 93       	push	r28
    286a:	df 93       	push	r29
    286c:	ec 01       	movw	r28, r24
	mMsg->id  = create_CAN_eid( ID_BOARD_PRESENCE_BROADCAST, MyInstance );
    286e:	81 e1       	ldi	r24, 0x11	; 17
    2870:	9c ef       	ldi	r25, 0xFC	; 252
    2872:	60 91 c2 02 	lds	r22, 0x02C2
    2876:	0e 94 ff 13 	call	0x27fe	; 0x27fe <_Z14create_CAN_eidth>
    287a:	68 83       	st	Y, r22
    287c:	79 83       	std	Y+1, r23	; 0x01
    287e:	8a 83       	std	Y+2, r24	; 0x02
    2880:	9b 83       	std	Y+3, r25	; 0x03
    mMsg->data[0] = BOARD_MODEL;
    2882:	84 e0       	ldi	r24, 0x04	; 4
    2884:	8d 83       	std	Y+5, r24	; 0x05
    mMsg->data[1] = MyInstance;
    2886:	80 91 c2 02 	lds	r24, 0x02C2
    288a:	8e 83       	std	Y+6, r24	; 0x06
    mMsg->data[2] = BoardStatus;
    288c:	80 91 cc 02 	lds	r24, 0x02CC
    2890:	8f 83       	std	Y+7, r24	; 0x07
    mMsg->data[3] = MappedBlock;
    2892:	80 91 cd 02 	lds	r24, 0x02CD
    2896:	88 87       	std	Y+8, r24	; 0x08
    mMsg->header.DLC	= 4;
    2898:	8c 81       	ldd	r24, Y+4	; 0x04
    289a:	80 7e       	andi	r24, 0xE0	; 224
    mMsg->header.rtr    = 0;
    289c:	88 60       	ori	r24, 0x08	; 8
    289e:	8c 83       	std	Y+4, r24	; 0x04
}
    28a0:	df 91       	pop	r29
    28a2:	cf 91       	pop	r28
    28a4:	08 95       	ret

000028a6 <_Z27can_prep_board_revision_msgP4sCAN>:

void can_prep_board_revision_msg( sCAN* mMsg )
{
    28a6:	cf 93       	push	r28
    28a8:	df 93       	push	r29
    28aa:	ec 01       	movw	r28, r24
	mMsg->id  = create_CAN_eid( ID_BOARD_REVISION, MyInstance );
    28ac:	82 e1       	ldi	r24, 0x12	; 18
    28ae:	9c ef       	ldi	r25, 0xFC	; 252
    28b0:	60 91 c2 02 	lds	r22, 0x02C2
    28b4:	0e 94 ff 13 	call	0x27fe	; 0x27fe <_Z14create_CAN_eidth>
    28b8:	68 83       	st	Y, r22
    28ba:	79 83       	std	Y+1, r23	; 0x01
    28bc:	8a 83       	std	Y+2, r24	; 0x02
    28be:	9b 83       	std	Y+3, r25	; 0x03
	mMsg->data[0] = BOARD_MODEL;
    28c0:	84 e0       	ldi	r24, 0x04	; 4
    28c2:	8d 83       	std	Y+5, r24	; 0x05
    mMsg->data[1] = HARDWARE_REVISION;
    28c4:	81 e4       	ldi	r24, 0x41	; 65
    28c6:	8e 83       	std	Y+6, r24	; 0x06
    mMsg->data[2] = SOFTWARE_MAJOR;
    28c8:	81 e0       	ldi	r24, 0x01	; 1
    28ca:	8f 83       	std	Y+7, r24	; 0x07
    mMsg->data[3] = SOFTWARE_MINOR;
    28cc:	9f e0       	ldi	r25, 0x0F	; 15
    28ce:	98 87       	std	Y+8, r25	; 0x08
    mMsg->data[4] = lo(MANUFACTURER);
    28d0:	89 87       	std	Y+9, r24	; 0x09
    mMsg->data[5] = hi(MANUFACTURER);
    28d2:	1a 86       	std	Y+10, r1	; 0x0a
    mMsg->header.DLC 	= 6;
    28d4:	8c 81       	ldd	r24, Y+4	; 0x04
    28d6:	80 7e       	andi	r24, 0xE0	; 224
    mMsg->header.rtr    = 0;
    28d8:	8c 60       	ori	r24, 0x0C	; 12
    28da:	8c 83       	std	Y+4, r24	; 0x04
}
    28dc:	df 91       	pop	r29
    28de:	cf 91       	pop	r28
    28e0:	08 95       	ret

000028e2 <_Z26can_prep_serial_number_msgP4sCAN>:

void can_prep_serial_number_msg( sCAN* mMsg )
{
    28e2:	cf 93       	push	r28
    28e4:	df 93       	push	r29
    28e6:	ec 01       	movw	r28, r24
	mMsg->id      = create_CAN_eid( ID_BOARD_SERIAL_NUMBER, MyInstance );
    28e8:	83 e1       	ldi	r24, 0x13	; 19
    28ea:	9c ef       	ldi	r25, 0xFC	; 252
    28ec:	60 91 c2 02 	lds	r22, 0x02C2
    28f0:	0e 94 ff 13 	call	0x27fe	; 0x27fe <_Z14create_CAN_eidth>
    28f4:	68 83       	st	Y, r22
    28f6:	79 83       	std	Y+1, r23	; 0x01
    28f8:	8a 83       	std	Y+2, r24	; 0x02
    28fa:	9b 83       	std	Y+3, r25	; 0x03
	mMsg->data[0] = BOARD_MODEL;
    28fc:	84 e0       	ldi	r24, 0x04	; 4
    28fe:	8d 83       	std	Y+5, r24	; 0x05
    mMsg->data[1] = (SerialNumber & 0xFF000000) >> 24;	// MSB first
    2900:	86 e5       	ldi	r24, 0x56	; 86
    2902:	8e 83       	std	Y+6, r24	; 0x06
    mMsg->data[2] = (SerialNumber & 0x00FF0000) >> 16; 
    2904:	88 e7       	ldi	r24, 0x78	; 120
    2906:	8f 83       	std	Y+7, r24	; 0x07
    mMsg->data[3] = (SerialNumber & 0x0000FF00) >>  8; 
    2908:	8c e9       	ldi	r24, 0x9C	; 156
    290a:	88 87       	std	Y+8, r24	; 0x08
    mMsg->data[4] = (SerialNumber & 0x000000FF) >>  0;	// LSB 
    290c:	8e ed       	ldi	r24, 0xDE	; 222
    290e:	89 87       	std	Y+9, r24	; 0x09
    mMsg->header.DLC = 5;
    2910:	8c 81       	ldd	r24, Y+4	; 0x04
    2912:	80 7e       	andi	r24, 0xE0	; 224
    mMsg->header.rtr = 0;
    2914:	8a 60       	ori	r24, 0x0A	; 10
    2916:	8c 83       	std	Y+4, r24	; 0x04
}
    2918:	df 91       	pop	r29
    291a:	cf 91       	pop	r28
    291c:	08 95       	ret

0000291e <_Z30can_prep_board_description_msgP4sCAN>:

void can_prep_board_description_msg( sCAN* mMsg )
{
    291e:	cf 93       	push	r28
    2920:	df 93       	push	r29
    2922:	ec 01       	movw	r28, r24
	byte chars_sent = 0;
	mMsg->id  = create_CAN_eid( ID_BOARD_DESCRIPTION, MyInstance );
    2924:	84 e1       	ldi	r24, 0x14	; 20
    2926:	9c ef       	ldi	r25, 0xFC	; 252
    2928:	60 91 c2 02 	lds	r22, 0x02C2
    292c:	0e 94 ff 13 	call	0x27fe	; 0x27fe <_Z14create_CAN_eidth>
    2930:	68 83       	st	Y, r22
    2932:	79 83       	std	Y+1, r23	; 0x01
    2934:	8a 83       	std	Y+2, r24	; 0x02
    2936:	9b 83       	std	Y+3, r25	; 0x03
    mMsg->data[0] = Starting_Index;
    2938:	80 91 ce 02 	lds	r24, 0x02CE
    293c:	8d 83       	std	Y+5, r24	; 0x05
    293e:	90 e0       	ldi	r25, 0x00	; 0
    mMsg->data[4] = (SerialNumber & 0x000000FF) >>  0;	// LSB 
    mMsg->header.DLC = 5;
    mMsg->header.rtr = 0;
}

void can_prep_board_description_msg( sCAN* mMsg )
    2940:	de 01       	movw	r26, r28
    2942:	16 96       	adiw	r26, 0x06	; 6
    2944:	9c 01       	movw	r18, r24
    2946:	28 5f       	subi	r18, 0xF8	; 248
    2948:	3f 4f       	sbci	r19, 0xFF	; 255
	mMsg->id  = create_CAN_eid( ID_BOARD_DESCRIPTION, MyInstance );
    mMsg->data[0] = Starting_Index;
    byte length = min(8, strlen(BoardDescription));
    
   	for (int i=0; i<length; i++, chars_sent++)
	    mMsg->data[i+1] = pgm_read_byte(BoardDescription+Starting_Index+i);
    294a:	fc 01       	movw	r30, r24
    294c:	e4 58       	subi	r30, 0x84	; 132
    294e:	ff 4f       	sbci	r31, 0xFF	; 255
    2950:	e4 91       	lpm	r30, Z+
    2952:	ed 93       	st	X+, r30
    2954:	01 96       	adiw	r24, 0x01	; 1
	byte chars_sent = 0;
	mMsg->id  = create_CAN_eid( ID_BOARD_DESCRIPTION, MyInstance );
    mMsg->data[0] = Starting_Index;
    byte length = min(8, strlen(BoardDescription));
    
   	for (int i=0; i<length; i++, chars_sent++)
    2956:	82 17       	cp	r24, r18
    2958:	93 07       	cpc	r25, r19
    295a:	b9 f7       	brne	.-18     	; 0x294a <_Z30can_prep_board_description_msgP4sCAN+0x2c>
	    mMsg->data[i+1] = pgm_read_byte(BoardDescription+Starting_Index+i);

    mMsg->header.DLC = chars_sent+1;
    295c:	8c 81       	ldd	r24, Y+4	; 0x04
    295e:	80 7e       	andi	r24, 0xE0	; 224
    mMsg->header.rtr = 0;
    2960:	82 61       	ori	r24, 0x12	; 18
    2962:	8c 83       	std	Y+4, r24	; 0x04
}
    2964:	df 91       	pop	r29
    2966:	cf 91       	pop	r28
    2968:	08 95       	ret

0000296a <_Z24can_board_presence_replyv>:
			contains the 4 bit pattern.  If the board only has 3 leds, then they 
			will use the lowest 3 bits of this nibble.
**************************************************************/
void can_board_presence_reply(  )
{
 	switch(Board_presence_response_type)
    296a:	80 91 d3 02 	lds	r24, 0x02D3
    296e:	81 30       	cpi	r24, 0x01	; 1
    2970:	d9 f0       	breq	.+54     	; 0x29a8 <_Z24can_board_presence_replyv+0x3e>
    2972:	81 30       	cpi	r24, 0x01	; 1
    2974:	28 f0       	brcs	.+10     	; 0x2980 <_Z24can_board_presence_replyv+0x16>
    2976:	82 30       	cpi	r24, 0x02	; 2
    2978:	09 f1       	breq	.+66     	; 0x29bc <_Z24can_board_presence_replyv+0x52>
    297a:	83 30       	cpi	r24, 0x03	; 3
    297c:	59 f0       	breq	.+22     	; 0x2994 <_Z24can_board_presence_replyv+0x2a>
    297e:	08 95       	ret
	{
	case 0 :can_prep_board_presence_msg	( &msg2    );
    2980:	86 e9       	ldi	r24, 0x96	; 150
    2982:	92 e0       	ldi	r25, 0x02	; 2
    2984:	0e 94 34 14 	call	0x2868	; 0x2868 <_Z27can_prep_board_presence_msgP4sCAN>
			can_send_msg_no_wait		( 2, &msg2 );
    2988:	82 e0       	ldi	r24, 0x02	; 2
    298a:	66 e9       	ldi	r22, 0x96	; 150
    298c:	72 e0       	ldi	r23, 0x02	; 2
    298e:	0e 94 88 11 	call	0x2310	; 0x2310 <_Z20can_send_msg_no_waithP4sCAN>
			break;
    2992:	08 95       	ret
			can_send_msg_no_wait		( 2, &msg2 );
			break;
	case 2 :can_prep_serial_number_msg 	( &msg2    );		
			can_send_msg_no_wait		( 2, &msg2 );
			break;
	case 3 :can_prep_board_description_msg	( &msg2    );
    2994:	86 e9       	ldi	r24, 0x96	; 150
    2996:	92 e0       	ldi	r25, 0x02	; 2
    2998:	0e 94 8f 14 	call	0x291e	; 0x291e <_Z30can_prep_board_description_msgP4sCAN>
			can_send_msg_no_wait			( 2, &msg2 );
    299c:	82 e0       	ldi	r24, 0x02	; 2
    299e:	66 e9       	ldi	r22, 0x96	; 150
    29a0:	72 e0       	ldi	r23, 0x02	; 2
    29a2:	0e 94 88 11 	call	0x2310	; 0x2310 <_Z20can_send_msg_no_waithP4sCAN>
    29a6:	08 95       	ret
 	switch(Board_presence_response_type)
	{
	case 0 :can_prep_board_presence_msg	( &msg2    );
			can_send_msg_no_wait		( 2, &msg2 );
			break;
	case 1 :can_prep_board_revision_msg	( &msg2    );
    29a8:	86 e9       	ldi	r24, 0x96	; 150
    29aa:	92 e0       	ldi	r25, 0x02	; 2
    29ac:	0e 94 53 14 	call	0x28a6	; 0x28a6 <_Z27can_prep_board_revision_msgP4sCAN>
			can_send_msg_no_wait		( 2, &msg2 );
    29b0:	82 e0       	ldi	r24, 0x02	; 2
    29b2:	66 e9       	ldi	r22, 0x96	; 150
    29b4:	72 e0       	ldi	r23, 0x02	; 2
    29b6:	0e 94 88 11 	call	0x2310	; 0x2310 <_Z20can_send_msg_no_waithP4sCAN>
			break;
    29ba:	08 95       	ret
	case 2 :can_prep_serial_number_msg 	( &msg2    );		
    29bc:	86 e9       	ldi	r24, 0x96	; 150
    29be:	92 e0       	ldi	r25, 0x02	; 2
    29c0:	0e 94 71 14 	call	0x28e2	; 0x28e2 <_Z26can_prep_serial_number_msgP4sCAN>
			can_send_msg_no_wait		( 2, &msg2 );
    29c4:	82 e0       	ldi	r24, 0x02	; 2
    29c6:	66 e9       	ldi	r22, 0x96	; 150
    29c8:	72 e0       	ldi	r23, 0x02	; 2
    29ca:	0e 94 88 11 	call	0x2310	; 0x2310 <_Z20can_send_msg_no_waithP4sCAN>
			break;
    29ce:	08 95       	ret

000029d0 <_Z19can_board_timeslicev>:
/* Sends the queued message 
	This actually is called every 20ms.
*/
void can_board_timeslice()
{	
	if ((System_Send_Status&0x01)==1) {			// Send channel 1 msg !
    29d0:	80 91 cf 02 	lds	r24, 0x02CF
    29d4:	80 fd       	sbrc	r24, 0
    29d6:	59 c0       	rjmp	.+178    	; 0x2a8a <_Z19can_board_timeslicev+0xba>
		can_send_msg_no_wait( 0, &msg1 );
		System_Send_Status &= (~0x01);
	}
	if ((System_Send_Status&0x02)==2) {			// Send channel 2 msg !
    29d8:	81 fd       	sbrc	r24, 1
    29da:	4c c0       	rjmp	.+152    	; 0x2a74 <_Z19can_board_timeslicev+0xa4>
		can_send_msg_no_wait( 2, &msg2 );
		System_Send_Status &= (~0x02);
	}
	if ((System_Send_Status&0x04)==4) {			// Reread Configuration & send
    29dc:	82 fd       	sbrc	r24, 2
    29de:	35 c0       	rjmp	.+106    	; 0x2a4a <_Z19can_board_timeslicev+0x7a>
		can_prep_instance_request( &msg2, MyInstance );
		can_send_msg_no_wait( 0, &msg2 );
		System_Send_Status &= (~0x04);		
		sei();
	}
	if ((System_Send_Status&0x08)==0x08) {		// Save Configuration 
    29e0:	83 fd       	sbrc	r24, 3
    29e2:	26 c0       	rjmp	.+76     	; 0x2a30 <_Z19can_board_timeslicev+0x60>
		save_configuration();
		led_on(4);
		System_Send_Status &= (~0x08);
		sei();
	}
	if ((System_Send_Status&0x10)==0x10) {		// Save all calibration & send
    29e4:	84 fd       	sbrc	r24, 4
    29e6:	1a c0       	rjmp	.+52     	; 0x2a1c <_Z19can_board_timeslicev+0x4c>
		cli(); 
		save_cal();
		System_Send_Status &= (~0x10);
		sei();
	}
	if ((System_Send_Status & 0x20)==0x20) {	// Board presence:
    29e8:	85 ff       	sbrs	r24, 5
    29ea:	0d c0       	rjmp	.+26     	; 0x2a06 <_Z19can_board_timeslicev+0x36>
		// To prevent collisions between boards, delay by the instance id
		// assigned to this board.  (Should be unique on the network).		
		if ((Board_presence_delay--)==0)
    29ec:	80 91 0c 01 	lds	r24, 0x010C
    29f0:	90 91 0d 01 	lds	r25, 0x010D
    29f4:	9c 01       	movw	r18, r24
    29f6:	21 50       	subi	r18, 0x01	; 1
    29f8:	30 40       	sbci	r19, 0x00	; 0
    29fa:	30 93 0d 01 	sts	0x010D, r19
    29fe:	20 93 0c 01 	sts	0x010C, r18
    2a02:	00 97       	sbiw	r24, 0x00	; 0
    2a04:	09 f0       	breq	.+2      	; 0x2a08 <_Z19can_board_timeslicev+0x38>
    2a06:	08 95       	ret
		{
			cli();
    2a08:	f8 94       	cli
			can_board_presence_reply( );
    2a0a:	0e 94 b5 14 	call	0x296a	; 0x296a <_Z24can_board_presence_replyv>
			System_Send_Status &= (~0x20);
    2a0e:	80 91 cf 02 	lds	r24, 0x02CF
    2a12:	8f 7d       	andi	r24, 0xDF	; 223
    2a14:	80 93 cf 02 	sts	0x02CF, r24
			sei();
    2a18:	78 94       	sei
    2a1a:	08 95       	ret
		led_on(4);
		System_Send_Status &= (~0x08);
		sei();
	}
	if ((System_Send_Status&0x10)==0x10) {		// Save all calibration & send
		cli(); 
    2a1c:	f8 94       	cli
		save_cal();
    2a1e:	0e 94 9e 07 	call	0xf3c	; 0xf3c <_Z8save_calv>
		System_Send_Status &= (~0x10);
    2a22:	80 91 cf 02 	lds	r24, 0x02CF
    2a26:	8f 7e       	andi	r24, 0xEF	; 239
    2a28:	80 93 cf 02 	sts	0x02CF, r24
		sei();
    2a2c:	78 94       	sei
    2a2e:	dc cf       	rjmp	.-72     	; 0x29e8 <_Z19can_board_timeslicev+0x18>
		can_send_msg_no_wait( 0, &msg2 );
		System_Send_Status &= (~0x04);		
		sei();
	}
	if ((System_Send_Status&0x08)==0x08) {		// Save Configuration 
		cli();
    2a30:	f8 94       	cli
		save_configuration();
    2a32:	0e 94 15 1c 	call	0x382a	; 0x382a <_Z18save_configurationv>
		led_on(4);
    2a36:	84 e0       	ldi	r24, 0x04	; 4
    2a38:	0e 94 dd 17 	call	0x2fba	; 0x2fba <_Z6led_onh>
		System_Send_Status &= (~0x08);
    2a3c:	80 91 cf 02 	lds	r24, 0x02CF
    2a40:	87 7f       	andi	r24, 0xF7	; 247
    2a42:	80 93 cf 02 	sts	0x02CF, r24
		sei();
    2a46:	78 94       	sei
    2a48:	cd cf       	rjmp	.-102    	; 0x29e4 <_Z19can_board_timeslicev+0x14>
	if ((System_Send_Status&0x02)==2) {			// Send channel 2 msg !
		can_send_msg_no_wait( 2, &msg2 );
		System_Send_Status &= (~0x02);
	}
	if ((System_Send_Status&0x04)==4) {			// Reread Configuration & send
		cli();
    2a4a:	f8 94       	cli
		// RUIN VALUES TO PROVE THE READ WORKS! no, it works.
		//MyInstance=0xAA;  Confirmed=0xAA;  sys_config_byte=0xAA;		
		read_configuration();
    2a4c:	0e 94 6f 1c 	call	0x38de	; 0x38de <_Z18read_configurationv>
		can_prep_instance_request( &msg2, MyInstance );
    2a50:	86 e9       	ldi	r24, 0x96	; 150
    2a52:	92 e0       	ldi	r25, 0x02	; 2
    2a54:	60 91 c2 02 	lds	r22, 0x02C2
    2a58:	0e 94 26 13 	call	0x264c	; 0x264c <_Z25can_prep_instance_requestP4sCANh>
		can_send_msg_no_wait( 0, &msg2 );
    2a5c:	80 e0       	ldi	r24, 0x00	; 0
    2a5e:	66 e9       	ldi	r22, 0x96	; 150
    2a60:	72 e0       	ldi	r23, 0x02	; 2
    2a62:	0e 94 88 11 	call	0x2310	; 0x2310 <_Z20can_send_msg_no_waithP4sCAN>
		System_Send_Status &= (~0x04);		
    2a66:	80 91 cf 02 	lds	r24, 0x02CF
    2a6a:	8b 7f       	andi	r24, 0xFB	; 251
    2a6c:	80 93 cf 02 	sts	0x02CF, r24
		sei();
    2a70:	78 94       	sei
    2a72:	b6 cf       	rjmp	.-148    	; 0x29e0 <_Z19can_board_timeslicev+0x10>
	if ((System_Send_Status&0x01)==1) {			// Send channel 1 msg !
		can_send_msg_no_wait( 0, &msg1 );
		System_Send_Status &= (~0x01);
	}
	if ((System_Send_Status&0x02)==2) {			// Send channel 2 msg !
		can_send_msg_no_wait( 2, &msg2 );
    2a74:	82 e0       	ldi	r24, 0x02	; 2
    2a76:	66 e9       	ldi	r22, 0x96	; 150
    2a78:	72 e0       	ldi	r23, 0x02	; 2
    2a7a:	0e 94 88 11 	call	0x2310	; 0x2310 <_Z20can_send_msg_no_waithP4sCAN>
		System_Send_Status &= (~0x02);
    2a7e:	80 91 cf 02 	lds	r24, 0x02CF
    2a82:	8d 7f       	andi	r24, 0xFD	; 253
    2a84:	80 93 cf 02 	sts	0x02CF, r24
    2a88:	a9 cf       	rjmp	.-174    	; 0x29dc <_Z19can_board_timeslicev+0xc>
	This actually is called every 20ms.
*/
void can_board_timeslice()
{	
	if ((System_Send_Status&0x01)==1) {			// Send channel 1 msg !
		can_send_msg_no_wait( 0, &msg1 );
    2a8a:	80 e0       	ldi	r24, 0x00	; 0
    2a8c:	67 e8       	ldi	r22, 0x87	; 135
    2a8e:	72 e0       	ldi	r23, 0x02	; 2
    2a90:	0e 94 88 11 	call	0x2310	; 0x2310 <_Z20can_send_msg_no_waithP4sCAN>
		System_Send_Status &= (~0x01);
    2a94:	80 91 cf 02 	lds	r24, 0x02CF
    2a98:	8e 7f       	andi	r24, 0xFE	; 254
    2a9a:	80 93 cf 02 	sts	0x02CF, r24
    2a9e:	9c cf       	rjmp	.-200    	; 0x29d8 <_Z19can_board_timeslicev+0x8>

00002aa0 <_Z18can_prep_configureP4sCAN>:
    mMsg->header.DLC = chars_sent+1;
    mMsg->header.rtr = 0;
}

void can_prep_configure( sCAN* mMsg )
{
    2aa0:	cf 93       	push	r28
    2aa2:	df 93       	push	r29
    2aa4:	ec 01       	movw	r28, r24
	mMsg->id  = create_CAN_eid( ID_SYSTEM_CONFIGURE_REPORT, MyInstance );
    2aa6:	87 e2       	ldi	r24, 0x27	; 39
    2aa8:	9c ef       	ldi	r25, 0xFC	; 252
    2aaa:	60 91 c2 02 	lds	r22, 0x02C2
    2aae:	0e 94 ff 13 	call	0x27fe	; 0x27fe <_Z14create_CAN_eidth>
    2ab2:	68 83       	st	Y, r22
    2ab4:	79 83       	std	Y+1, r23	; 0x01
    2ab6:	8a 83       	std	Y+2, r24	; 0x02
    2ab8:	9b 83       	std	Y+3, r25	; 0x03
    mMsg->data[0] = config_byte_1;
    2aba:	80 91 3f 03 	lds	r24, 0x033F
    2abe:	8d 83       	std	Y+5, r24	; 0x05
    mMsg->data[1] = config_byte_2;
    2ac0:	80 91 40 03 	lds	r24, 0x0340
    2ac4:	8e 83       	std	Y+6, r24	; 0x06
    mMsg->data[2] = config_byte_3;
    2ac6:	80 91 41 03 	lds	r24, 0x0341
    2aca:	8f 83       	std	Y+7, r24	; 0x07
    mMsg->data[3] = config_byte_4;
    2acc:	80 91 42 03 	lds	r24, 0x0342
    2ad0:	88 87       	std	Y+8, r24	; 0x08
    mMsg->header.DLC	= 4;
    2ad2:	8c 81       	ldd	r24, Y+4	; 0x04
    2ad4:	80 7e       	andi	r24, 0xE0	; 224
    mMsg->header.rtr    = 0;
    2ad6:	88 60       	ori	r24, 0x08	; 8
    2ad8:	8c 83       	std	Y+4, r24	; 0x04
}
    2ada:	df 91       	pop	r29
    2adc:	cf 91       	pop	r28
    2ade:	08 95       	ret

00002ae0 <_Z23can_board_msg_responderP4sCAN>:
   specify the board which board the LED is intended for.  Since this
   filtering will likely be in hardware, we don't need to check this
   in the CAN software callback function.
**********************************************************************/
BOOL can_board_msg_responder( sCAN* mMsg )
{
    2ae0:	cf 93       	push	r28
    2ae2:	df 93       	push	r29
    2ae4:	ec 01       	movw	r28, r24
	if ( match( mMsg->id, create_CAN_eid			(ID_SYSTEM_LED_REQUEST, MyInstance)) ||
    2ae6:	85 e1       	ldi	r24, 0x15	; 21
    2ae8:	90 e0       	ldi	r25, 0x00	; 0
    2aea:	60 91 c2 02 	lds	r22, 0x02C2
    2aee:	0e 94 ff 13 	call	0x27fe	; 0x27fe <_Z14create_CAN_eidth>
    2af2:	9b 01       	movw	r18, r22
    2af4:	ac 01       	movw	r20, r24
    2af6:	68 81       	ld	r22, Y
    2af8:	79 81       	ldd	r23, Y+1	; 0x01
    2afa:	8a 81       	ldd	r24, Y+2	; 0x02
    2afc:	9b 81       	ldd	r25, Y+3	; 0x03
    2afe:	0e 94 13 14 	call	0x2826	; 0x2826 <_Z5match6idTypeS_>
    2b02:	88 23       	and	r24, r24
    2b04:	39 f0       	breq	.+14     	; 0x2b14 <_Z23can_board_msg_responderP4sCAN+0x34>
	     match( mMsg->id, create_CAN_eid			(ID_SYSTEM_LED_REQUEST, 0xFF)) )
	{
		can_parse_led_request( mMsg );				// in leds.c 
    2b06:	ce 01       	movw	r24, r28
    2b08:	0e 94 31 18 	call	0x3062	; 0x3062 <_Z21can_parse_led_requestP4sCAN>
		return TRUE;
    2b0c:	81 e0       	ldi	r24, 0x01	; 1
		}
		return TRUE;
	}
	//MotorState = MOTOR_REQUEST_PENDING;
	return FALSE;
}
    2b0e:	df 91       	pop	r29
    2b10:	cf 91       	pop	r28
    2b12:	08 95       	ret
   in the CAN software callback function.
**********************************************************************/
BOOL can_board_msg_responder( sCAN* mMsg )
{
	if ( match( mMsg->id, create_CAN_eid			(ID_SYSTEM_LED_REQUEST, MyInstance)) ||
	     match( mMsg->id, create_CAN_eid			(ID_SYSTEM_LED_REQUEST, 0xFF)) )
    2b14:	85 e1       	ldi	r24, 0x15	; 21
    2b16:	90 e0       	ldi	r25, 0x00	; 0
    2b18:	6f ef       	ldi	r22, 0xFF	; 255
    2b1a:	0e 94 ff 13 	call	0x27fe	; 0x27fe <_Z14create_CAN_eidth>
    2b1e:	9b 01       	movw	r18, r22
    2b20:	ac 01       	movw	r20, r24
    2b22:	68 81       	ld	r22, Y
    2b24:	79 81       	ldd	r23, Y+1	; 0x01
    2b26:	8a 81       	ldd	r24, Y+2	; 0x02
    2b28:	9b 81       	ldd	r25, Y+3	; 0x03
    2b2a:	0e 94 13 14 	call	0x2826	; 0x2826 <_Z5match6idTypeS_>
   filtering will likely be in hardware, we don't need to check this
   in the CAN software callback function.
**********************************************************************/
BOOL can_board_msg_responder( sCAN* mMsg )
{
	if ( match( mMsg->id, create_CAN_eid			(ID_SYSTEM_LED_REQUEST, MyInstance)) ||
    2b2e:	88 23       	and	r24, r24
    2b30:	51 f7       	brne	.-44     	; 0x2b06 <_Z23can_board_msg_responderP4sCAN+0x26>
	     match( mMsg->id, create_CAN_eid			(ID_SYSTEM_LED_REQUEST, 0xFF)) )
	{
		can_parse_led_request( mMsg );				// in leds.c 
		return TRUE;
	}
	else if ( id_match( mMsg->id, create_CAN_eid	(ID_BOARD_PRESENCE_REQUEST, 0)) )
    2b32:	80 e1       	ldi	r24, 0x10	; 16
    2b34:	9c ef       	ldi	r25, 0xFC	; 252
    2b36:	60 e0       	ldi	r22, 0x00	; 0
    2b38:	0e 94 ff 13 	call	0x27fe	; 0x27fe <_Z14create_CAN_eidth>
    2b3c:	9b 01       	movw	r18, r22
    2b3e:	ac 01       	movw	r20, r24
    2b40:	68 81       	ld	r22, Y
    2b42:	79 81       	ldd	r23, Y+1	; 0x01
    2b44:	8a 81       	ldd	r24, Y+2	; 0x02
    2b46:	9b 81       	ldd	r25, Y+3	; 0x03
    2b48:	0e 94 20 14 	call	0x2840	; 0x2840 <_Z8id_match6idTypeS_>
    2b4c:	88 23       	and	r24, r24
    2b4e:	91 f0       	breq	.+36     	; 0x2b74 <_Z23can_board_msg_responderP4sCAN+0x94>
			There's contention.
			Need to delay by the instance number of timeslices.
			See can_board_timeslice_100ms() below.
		*/
		//protected_led_on( 3 );
		System_Send_Status			 |=0x20;
    2b50:	80 91 cf 02 	lds	r24, 0x02CF
    2b54:	80 62       	ori	r24, 0x20	; 32
    2b56:	80 93 cf 02 	sts	0x02CF, r24
		Board_presence_response_type = mMsg->data[0];
    2b5a:	8d 81       	ldd	r24, Y+5	; 0x05
    2b5c:	80 93 d3 02 	sts	0x02D3, r24
		Board_presence_delay 		 = MyInstance;
    2b60:	80 91 c2 02 	lds	r24, 0x02C2
    2b64:	80 93 0c 01 	sts	0x010C, r24
    2b68:	10 92 0d 01 	sts	0x010D, r1
		return TRUE;
    2b6c:	81 e0       	ldi	r24, 0x01	; 1
		}
		return TRUE;
	}
	//MotorState = MOTOR_REQUEST_PENDING;
	return FALSE;
}
    2b6e:	df 91       	pop	r29
    2b70:	cf 91       	pop	r28
    2b72:	08 95       	ret
		System_Send_Status			 |=0x20;
		Board_presence_response_type = mMsg->data[0];
		Board_presence_delay 		 = MyInstance;
		return TRUE;
	}
	else if ( match( mMsg->id, create_CAN_eid		(ID_SYSTEM_CONFIGURE, MyInstance)) )
    2b74:	82 e2       	ldi	r24, 0x22	; 34
    2b76:	9c ef       	ldi	r25, 0xFC	; 252
    2b78:	60 91 c2 02 	lds	r22, 0x02C2
    2b7c:	0e 94 ff 13 	call	0x27fe	; 0x27fe <_Z14create_CAN_eidth>
    2b80:	9b 01       	movw	r18, r22
    2b82:	ac 01       	movw	r20, r24
    2b84:	68 81       	ld	r22, Y
    2b86:	79 81       	ldd	r23, Y+1	; 0x01
    2b88:	8a 81       	ldd	r24, Y+2	; 0x02
    2b8a:	9b 81       	ldd	r25, Y+3	; 0x03
    2b8c:	0e 94 13 14 	call	0x2826	; 0x2826 <_Z5match6idTypeS_>
    2b90:	88 23       	and	r24, r24
    2b92:	f1 f0       	breq	.+60     	; 0x2bd0 <_Z23can_board_msg_responderP4sCAN+0xf0>
	{
		if ( (mMsg->data[0] & 0x10) == 0x10)		// Read Config command
    2b94:	8d 81       	ldd	r24, Y+5	; 0x05
    2b96:	84 ff       	sbrs	r24, 4
    2b98:	14 c0       	rjmp	.+40     	; 0x2bc2 <_Z23can_board_msg_responderP4sCAN+0xe2>
		{
			can_prep_configure( &msg1 );
    2b9a:	87 e8       	ldi	r24, 0x87	; 135
    2b9c:	92 e0       	ldi	r25, 0x02	; 2
    2b9e:	0e 94 50 15 	call	0x2aa0	; 0x2aa0 <_Z18can_prep_configureP4sCAN>
			System_Send_Status = 1;
    2ba2:	81 e0       	ldi	r24, 0x01	; 1
    2ba4:	80 93 cf 02 	sts	0x02CF, r24
			can_parse_configure_request( mMsg );	// in configuration.c
			System_Send_Status = 8;					// Save configuration!
		}
		// May want a callback here as well.  Some modules need to do things
		// as a consequence - ie accelerometers needs to send a special code
		if (config_call_back != NULL)
    2ba8:	e0 91 d1 02 	lds	r30, 0x02D1
    2bac:	f0 91 d2 02 	lds	r31, 0x02D2
    2bb0:	30 97       	sbiw	r30, 0x00	; 0
    2bb2:	19 f1       	breq	.+70     	; 0x2bfa <_Z23can_board_msg_responderP4sCAN+0x11a>
			config_call_back( mMsg->data[0] & 0x0F );
    2bb4:	8d 81       	ldd	r24, Y+5	; 0x05
    2bb6:	8f 70       	andi	r24, 0x0F	; 15
    2bb8:	09 95       	icall
		return TRUE;
    2bba:	81 e0       	ldi	r24, 0x01	; 1
		}
		return TRUE;
	}
	//MotorState = MOTOR_REQUEST_PENDING;
	return FALSE;
}
    2bbc:	df 91       	pop	r29
    2bbe:	cf 91       	pop	r28
    2bc0:	08 95       	ret
		if ( (mMsg->data[0] & 0x10) == 0x10)		// Read Config command
		{
			can_prep_configure( &msg1 );
			System_Send_Status = 1;
		} else { 
			can_parse_configure_request( mMsg );	// in configuration.c
    2bc2:	ce 01       	movw	r24, r28
    2bc4:	0e 94 34 1b 	call	0x3668	; 0x3668 <_Z27can_parse_configure_requestP4sCAN>
			System_Send_Status = 8;					// Save configuration!
    2bc8:	88 e0       	ldi	r24, 0x08	; 8
    2bca:	80 93 cf 02 	sts	0x02CF, r24
    2bce:	ec cf       	rjmp	.-40     	; 0x2ba8 <_Z23can_board_msg_responderP4sCAN+0xc8>
		// as a consequence - ie accelerometers needs to send a special code
		if (config_call_back != NULL)
			config_call_back( mMsg->data[0] & 0x0F );
		return TRUE;
	}
	else if ( match( mMsg->id, create_CAN_eid	(ID_SYSTEM_SHUT_DOWN, MyInstance)) ||
    2bd0:	81 e2       	ldi	r24, 0x21	; 33
    2bd2:	9c ef       	ldi	r25, 0xFC	; 252
    2bd4:	60 91 c2 02 	lds	r22, 0x02C2
    2bd8:	0e 94 ff 13 	call	0x27fe	; 0x27fe <_Z14create_CAN_eidth>
    2bdc:	9b 01       	movw	r18, r22
    2bde:	ac 01       	movw	r20, r24
    2be0:	68 81       	ld	r22, Y
    2be2:	79 81       	ldd	r23, Y+1	; 0x01
    2be4:	8a 81       	ldd	r24, Y+2	; 0x02
    2be6:	9b 81       	ldd	r25, Y+3	; 0x03
    2be8:	0e 94 13 14 	call	0x2826	; 0x2826 <_Z5match6idTypeS_>
    2bec:	88 23       	and	r24, r24
    2bee:	39 f0       	breq	.+14     	; 0x2bfe <_Z23can_board_msg_responderP4sCAN+0x11e>
		      match( mMsg->id, create_CAN_eid	(ID_SYSTEM_SHUT_DOWN, 0xFF)) )
	{
		System_Send_Status=8;
    2bf0:	88 e0       	ldi	r24, 0x08	; 8
    2bf2:	80 93 cf 02 	sts	0x02CF, r24
		//ShutDownState = SHUTDOWN_PENDING;
		return TRUE;
    2bf6:	81 e0       	ldi	r24, 0x01	; 1
    2bf8:	8a cf       	rjmp	.-236    	; 0x2b0e <_Z23can_board_msg_responderP4sCAN+0x2e>
					
					// MyInstance updated in process function below.
			} else if (Confirmed == NOT_CLAIMED)
				can_process_instance_request( mMsg );	// bumps the MyInstance
		}
		return TRUE;
    2bfa:	81 e0       	ldi	r24, 0x01	; 1
    2bfc:	88 cf       	rjmp	.-240    	; 0x2b0e <_Z23can_board_msg_responderP4sCAN+0x2e>
		if (config_call_back != NULL)
			config_call_back( mMsg->data[0] & 0x0F );
		return TRUE;
	}
	else if ( match( mMsg->id, create_CAN_eid	(ID_SYSTEM_SHUT_DOWN, MyInstance)) ||
		      match( mMsg->id, create_CAN_eid	(ID_SYSTEM_SHUT_DOWN, 0xFF)) )
    2bfe:	81 e2       	ldi	r24, 0x21	; 33
    2c00:	9c ef       	ldi	r25, 0xFC	; 252
    2c02:	6f ef       	ldi	r22, 0xFF	; 255
    2c04:	0e 94 ff 13 	call	0x27fe	; 0x27fe <_Z14create_CAN_eidth>
    2c08:	9b 01       	movw	r18, r22
    2c0a:	ac 01       	movw	r20, r24
    2c0c:	68 81       	ld	r22, Y
    2c0e:	79 81       	ldd	r23, Y+1	; 0x01
    2c10:	8a 81       	ldd	r24, Y+2	; 0x02
    2c12:	9b 81       	ldd	r25, Y+3	; 0x03
    2c14:	0e 94 13 14 	call	0x2826	; 0x2826 <_Z5match6idTypeS_>
		// as a consequence - ie accelerometers needs to send a special code
		if (config_call_back != NULL)
			config_call_back( mMsg->data[0] & 0x0F );
		return TRUE;
	}
	else if ( match( mMsg->id, create_CAN_eid	(ID_SYSTEM_SHUT_DOWN, MyInstance)) ||
    2c18:	88 23       	and	r24, r24
    2c1a:	51 f7       	brne	.-44     	; 0x2bf0 <_Z23can_board_msg_responderP4sCAN+0x110>
	{
		System_Send_Status=8;
		//ShutDownState = SHUTDOWN_PENDING;
		return TRUE;
	}
	else if ( match( mMsg->id, create_CAN_eid	(ID_INSTANCE_ASSIGN, MyInstance)) )
    2c1c:	85 e2       	ldi	r24, 0x25	; 37
    2c1e:	9c ef       	ldi	r25, 0xFC	; 252
    2c20:	60 91 c2 02 	lds	r22, 0x02C2
    2c24:	0e 94 ff 13 	call	0x27fe	; 0x27fe <_Z14create_CAN_eidth>
    2c28:	9b 01       	movw	r18, r22
    2c2a:	ac 01       	movw	r20, r24
    2c2c:	68 81       	ld	r22, Y
    2c2e:	79 81       	ldd	r23, Y+1	; 0x01
    2c30:	8a 81       	ldd	r24, Y+2	; 0x02
    2c32:	9b 81       	ldd	r25, Y+3	; 0x03
    2c34:	0e 94 13 14 	call	0x2826	; 0x2826 <_Z5match6idTypeS_>
    2c38:	88 23       	and	r24, r24
    2c3a:	49 f5       	brne	.+82     	; 0x2c8e <_Z23can_board_msg_responderP4sCAN+0x1ae>
		//save_configuration();					// maybe shouldn't do here in ISR.
   		can_remove_instance_from_filter( 1 );	// move before MyInstance
		can_add_instance_to_filter     ( 1, MyInstance );
		return TRUE;
	}
	else if (match( mMsg->id, create_CAN_eid	(ID_INSTANCE_RESTART, MyInstance)) || 
    2c3c:	86 e2       	ldi	r24, 0x26	; 38
    2c3e:	9c ef       	ldi	r25, 0xFC	; 252
    2c40:	60 91 c2 02 	lds	r22, 0x02C2
    2c44:	0e 94 ff 13 	call	0x27fe	; 0x27fe <_Z14create_CAN_eidth>
    2c48:	9b 01       	movw	r18, r22
    2c4a:	ac 01       	movw	r20, r24
    2c4c:	68 81       	ld	r22, Y
    2c4e:	79 81       	ldd	r23, Y+1	; 0x01
    2c50:	8a 81       	ldd	r24, Y+2	; 0x02
    2c52:	9b 81       	ldd	r25, Y+3	; 0x03
    2c54:	0e 94 13 14 	call	0x2826	; 0x2826 <_Z5match6idTypeS_>
    2c58:	88 23       	and	r24, r24
    2c5a:	79 f1       	breq	.+94     	; 0x2cba <_Z23can_board_msg_responderP4sCAN+0x1da>
	         match( mMsg->id, create_CAN_eid	(ID_INSTANCE_RESTART, 0xFF)) )
	{
		if (mMsg->header.DLC == 2)
    2c5c:	8c 81       	ldd	r24, Y+4	; 0x04
    2c5e:	8e 71       	andi	r24, 0x1E	; 30
    2c60:	84 30       	cpi	r24, 0x04	; 4
    2c62:	59 f6       	brne	.-106    	; 0x2bfa <_Z23can_board_msg_responderP4sCAN+0x11a>
		{
			word passcode = (mMsg->data[0]<<8) | (mMsg->data[1]);		
    2c64:	3d 81       	ldd	r19, Y+5	; 0x05
    2c66:	20 e0       	ldi	r18, 0x00	; 0
    2c68:	8e 81       	ldd	r24, Y+6	; 0x06
    2c6a:	90 e0       	ldi	r25, 0x00	; 0
    2c6c:	82 2b       	or	r24, r18
    2c6e:	93 2b       	or	r25, r19
			byte match  = (passcode == 0x1234);
			/* DONT CALL THIS: make_system_new_board( passcode );  We do the sequencing immediately
			   and therefore the NewBoard never has to (and should not) ever get changed. 
			   As it's name implies, it is only once per board - after the manufacturer. */
			if (match)
    2c70:	22 e1       	ldi	r18, 0x12	; 18
    2c72:	84 33       	cpi	r24, 0x34	; 52
    2c74:	92 07       	cpc	r25, r18
    2c76:	09 f6       	brne	.-126    	; 0x2bfa <_Z23can_board_msg_responderP4sCAN+0x11a>
			{			
				init_path 	  = 0x55;
    2c78:	85 e5       	ldi	r24, 0x55	; 85
    2c7a:	80 93 ca 02 	sts	0x02CA, r24
				init_complete = FALSE;
    2c7e:	10 92 c4 02 	sts	0x02C4, r1
				Confirmed     = NOT_CLAIMED;
    2c82:	10 92 c3 02 	sts	0x02C3, r1
				can_instance_init();		// This fires off the sequencing right away.
    2c86:	0e 94 f2 12 	call	0x25e4	; 0x25e4 <_Z17can_instance_initv>
											// no wait till next boot.  This works well!
			}
		}
		return TRUE;
    2c8a:	81 e0       	ldi	r24, 0x01	; 1
    2c8c:	40 cf       	rjmp	.-384    	; 0x2b0e <_Z23can_board_msg_responderP4sCAN+0x2e>
		//ShutDownState = SHUTDOWN_PENDING;
		return TRUE;
	}
	else if ( match( mMsg->id, create_CAN_eid	(ID_INSTANCE_ASSIGN, MyInstance)) )
	{
		Confirmed  = CLAIMED;
    2c8e:	81 e0       	ldi	r24, 0x01	; 1
    2c90:	80 93 c3 02 	sts	0x02C3, r24
		MyInstance = mMsg->data[0];
    2c94:	8d 81       	ldd	r24, Y+5	; 0x05
    2c96:	80 93 c2 02 	sts	0x02C2, r24
		System_Send_Status |= 0x08;
    2c9a:	80 91 cf 02 	lds	r24, 0x02CF
    2c9e:	88 60       	ori	r24, 0x08	; 8
    2ca0:	80 93 cf 02 	sts	0x02CF, r24
		//save_configuration();					// maybe shouldn't do here in ISR.
   		can_remove_instance_from_filter( 1 );	// move before MyInstance
    2ca4:	81 e0       	ldi	r24, 0x01	; 1
    2ca6:	0e 94 1b 0f 	call	0x1e36	; 0x1e36 <_Z31can_remove_instance_from_filterh>
		can_add_instance_to_filter     ( 1, MyInstance );
    2caa:	60 91 c2 02 	lds	r22, 0x02C2
    2cae:	81 e0       	ldi	r24, 0x01	; 1
    2cb0:	70 e0       	ldi	r23, 0x00	; 0
    2cb2:	0e 94 eb 0e 	call	0x1dd6	; 0x1dd6 <_Z26can_add_instance_to_filterht>
		return TRUE;
    2cb6:	81 e0       	ldi	r24, 0x01	; 1
    2cb8:	2a cf       	rjmp	.-428    	; 0x2b0e <_Z23can_board_msg_responderP4sCAN+0x2e>
	}
	else if (match( mMsg->id, create_CAN_eid	(ID_INSTANCE_RESTART, MyInstance)) || 
	         match( mMsg->id, create_CAN_eid	(ID_INSTANCE_RESTART, 0xFF)) )
    2cba:	86 e2       	ldi	r24, 0x26	; 38
    2cbc:	9c ef       	ldi	r25, 0xFC	; 252
    2cbe:	6f ef       	ldi	r22, 0xFF	; 255
    2cc0:	0e 94 ff 13 	call	0x27fe	; 0x27fe <_Z14create_CAN_eidth>
    2cc4:	9b 01       	movw	r18, r22
    2cc6:	ac 01       	movw	r20, r24
    2cc8:	68 81       	ld	r22, Y
    2cca:	79 81       	ldd	r23, Y+1	; 0x01
    2ccc:	8a 81       	ldd	r24, Y+2	; 0x02
    2cce:	9b 81       	ldd	r25, Y+3	; 0x03
    2cd0:	0e 94 13 14 	call	0x2826	; 0x2826 <_Z5match6idTypeS_>
		//save_configuration();					// maybe shouldn't do here in ISR.
   		can_remove_instance_from_filter( 1 );	// move before MyInstance
		can_add_instance_to_filter     ( 1, MyInstance );
		return TRUE;
	}
	else if (match( mMsg->id, create_CAN_eid	(ID_INSTANCE_RESTART, MyInstance)) || 
    2cd4:	88 23       	and	r24, r24
    2cd6:	11 f6       	brne	.-124    	; 0x2c5c <_Z23can_board_msg_responderP4sCAN+0x17c>
											// no wait till next boot.  This works well!
			}
		}
		return TRUE;
	}	
	else if ( id_match( mMsg->id, create_CAN_eid	(ID_INSTANCE_CLAIM, 0)) )
    2cd8:	83 e2       	ldi	r24, 0x23	; 35
    2cda:	9c ef       	ldi	r25, 0xFC	; 252
    2cdc:	60 e0       	ldi	r22, 0x00	; 0
    2cde:	0e 94 ff 13 	call	0x27fe	; 0x27fe <_Z14create_CAN_eidth>
    2ce2:	9b 01       	movw	r18, r22
    2ce4:	ac 01       	movw	r20, r24
    2ce6:	68 81       	ld	r22, Y
    2ce8:	79 81       	ldd	r23, Y+1	; 0x01
    2cea:	8a 81       	ldd	r24, Y+2	; 0x02
    2cec:	9b 81       	ldd	r25, Y+3	; 0x03
    2cee:	0e 94 20 14 	call	0x2840	; 0x2840 <_Z8id_match6idTypeS_>
    2cf2:	88 23       	and	r24, r24
    2cf4:	09 f4       	brne	.+2      	; 0x2cf8 <_Z23can_board_msg_responderP4sCAN+0x218>
    2cf6:	0b cf       	rjmp	.-490    	; 0x2b0e <_Z23can_board_msg_responderP4sCAN+0x2e>
		// Abort any ID_INSTANCE_CLAIM, TX pending.
		// unless it already was sucessfully transmitted.
		//  Do not use : get_instance(mMsg->id) because during the sequence, the 
		//  id is the random delay number.  The actual id is in the message!
		byte instance = mMsg->data[0];
		if (instance == MyInstance) 
    2cf8:	9d 81       	ldd	r25, Y+5	; 0x05
    2cfa:	80 91 c2 02 	lds	r24, 0x02C2
    2cfe:	98 17       	cp	r25, r24
    2d00:	09 f0       	breq	.+2      	; 0x2d04 <_Z23can_board_msg_responderP4sCAN+0x224>
    2d02:	7b cf       	rjmp	.-266    	; 0x2bfa <_Z23can_board_msg_responderP4sCAN+0x11a>
		{
			if (Confirmed == CLAIM_PENDING)
    2d04:	80 91 c3 02 	lds	r24, 0x02C3
    2d08:	80 32       	cpi	r24, 0x20	; 32
    2d0a:	41 f0       	breq	.+16     	; 0x2d1c <_Z23can_board_msg_responderP4sCAN+0x23c>
	
					Confirmed = NOT_CLAIMED; 			// 
					can_process_instance_request( mMsg );	// bumps the MyInstance	
					
					// MyInstance updated in process function below.
			} else if (Confirmed == NOT_CLAIMED)
    2d0c:	88 23       	and	r24, r24
    2d0e:	09 f0       	breq	.+2      	; 0x2d12 <_Z23can_board_msg_responderP4sCAN+0x232>
    2d10:	74 cf       	rjmp	.-280    	; 0x2bfa <_Z23can_board_msg_responderP4sCAN+0x11a>
				can_process_instance_request( mMsg );	// bumps the MyInstance
    2d12:	ce 01       	movw	r24, r28
    2d14:	0e 94 f5 13 	call	0x27ea	; 0x27ea <_Z28can_process_instance_requestP4sCAN>
		}
		return TRUE;
    2d18:	81 e0       	ldi	r24, 0x01	; 1
    2d1a:	f9 ce       	rjmp	.-526    	; 0x2b0e <_Z23can_board_msg_responderP4sCAN+0x2e>
					// This code is part of the CAN ISR().  So the CANPAGE is already
					// directed at the Receive buffer.  We want to terminate the Transmit
					// which is on a different MOB.
					// ABORT TRANSMIT MOB FOR ID_INSTANCE_CLAIM :
					int8_t savecanpage;
					savecanpage = CANPAGE;         		// Save current MOB
    2d1c:	90 91 ed 00 	lds	r25, 0x00ED
					CANPAGE = (INSTANCE_TX_MOB<<4);     // Selects MOB with highest priority interrupt
    2d20:	80 e3       	ldi	r24, 0x30	; 48
    2d22:	80 93 ed 00 	sts	0x00ED, r24
					Can_mob_abort();					// 
    2d26:	80 91 ef 00 	lds	r24, 0x00EF
    2d2a:	8f 73       	andi	r24, 0x3F	; 63
    2d2c:	80 93 ef 00 	sts	0x00EF, r24
					CANPAGE = savecanpage;      		// Restore original MOB   				
    2d30:	90 93 ed 00 	sts	0x00ED, r25
	
					Confirmed = NOT_CLAIMED; 			// 
    2d34:	10 92 c3 02 	sts	0x02C3, r1
					can_process_instance_request( mMsg );	// bumps the MyInstance	
    2d38:	ce 01       	movw	r24, r28
    2d3a:	0e 94 f5 13 	call	0x27ea	; 0x27ea <_Z28can_process_instance_requestP4sCAN>
					
					// MyInstance updated in process function below.
			} else if (Confirmed == NOT_CLAIMED)
				can_process_instance_request( mMsg );	// bumps the MyInstance
		}
		return TRUE;
    2d3e:	81 e0       	ldi	r24, 0x01	; 1
    2d40:	e6 ce       	rjmp	.-564    	; 0x2b0e <_Z23can_board_msg_responderP4sCAN+0x2e>

00002d42 <_Z11FindMailBox6idType>:
struct sCAN Received[MAX_CAN_MSG_MEMORY_SIZE];
byte RxHead = 0;
byte RxTail = 0;

byte FindMailBox( tID mID )
{
    2d42:	ef 92       	push	r14
    2d44:	ff 92       	push	r15
    2d46:	0f 93       	push	r16
    2d48:	1f 93       	push	r17
    2d4a:	cf 93       	push	r28
    2d4c:	df 93       	push	r29
    2d4e:	7b 01       	movw	r14, r22
    2d50:	8c 01       	movw	r16, r24
	for (int i=0; i<MAX_CAN_MSG_MEMORY_SIZE; i++)
    2d52:	c0 e0       	ldi	r28, 0x00	; 0
    2d54:	d0 e0       	ldi	r29, 0x00	; 0
		if ( id_match(mID, Received[i].id) )
    2d56:	ce 01       	movw	r24, r28
    2d58:	88 0f       	add	r24, r24
    2d5a:	99 1f       	adc	r25, r25
    2d5c:	8c 0f       	add	r24, r28
    2d5e:	9d 1f       	adc	r25, r29
    2d60:	fc 01       	movw	r30, r24
    2d62:	ee 0f       	add	r30, r30
    2d64:	ff 1f       	adc	r31, r31
    2d66:	ee 0f       	add	r30, r30
    2d68:	ff 1f       	adc	r31, r31
    2d6a:	e8 0f       	add	r30, r24
    2d6c:	f9 1f       	adc	r31, r25
    2d6e:	ec 52       	subi	r30, 0x2C	; 44
    2d70:	fd 4f       	sbci	r31, 0xFD	; 253
    2d72:	20 81       	ld	r18, Z
    2d74:	31 81       	ldd	r19, Z+1	; 0x01
    2d76:	42 81       	ldd	r20, Z+2	; 0x02
    2d78:	53 81       	ldd	r21, Z+3	; 0x03
    2d7a:	c8 01       	movw	r24, r16
    2d7c:	b7 01       	movw	r22, r14
    2d7e:	0e 94 20 14 	call	0x2840	; 0x2840 <_Z8id_match6idTypeS_>
    2d82:	88 23       	and	r24, r24
    2d84:	61 f4       	brne	.+24     	; 0x2d9e <_Z11FindMailBox6idType+0x5c>
byte RxHead = 0;
byte RxTail = 0;

byte FindMailBox( tID mID )
{
	for (int i=0; i<MAX_CAN_MSG_MEMORY_SIZE; i++)
    2d86:	21 96       	adiw	r28, 0x01	; 1
    2d88:	c6 30       	cpi	r28, 0x06	; 6
    2d8a:	d1 05       	cpc	r29, r1
    2d8c:	21 f7       	brne	.-56     	; 0x2d56 <_Z11FindMailBox6idType+0x14>
		if ( id_match(mID, Received[i].id) )
			return i;
	return 0xFF;
    2d8e:	8f ef       	ldi	r24, 0xFF	; 255
}
    2d90:	df 91       	pop	r29
    2d92:	cf 91       	pop	r28
    2d94:	1f 91       	pop	r17
    2d96:	0f 91       	pop	r16
    2d98:	ff 90       	pop	r15
    2d9a:	ef 90       	pop	r14
    2d9c:	08 95       	ret

byte FindMailBox( tID mID )
{
	for (int i=0; i<MAX_CAN_MSG_MEMORY_SIZE; i++)
		if ( id_match(mID, Received[i].id) )
			return i;
    2d9e:	8c 2f       	mov	r24, r28
	return 0xFF;
}
    2da0:	df 91       	pop	r29
    2da2:	cf 91       	pop	r28
    2da4:	1f 91       	pop	r17
    2da6:	0f 91       	pop	r16
    2da8:	ff 90       	pop	r15
    2daa:	ef 90       	pop	r14
    2dac:	08 95       	ret

00002dae <_Z12copy_can_msgP4sCANS0_>:

void copy_can_msg( struct sCAN* mDest, struct sCAN* mSrc )
{
	memcpy( (void*)mDest, (void*)mSrc, sizeof(struct sCAN) );	
    2dae:	28 2f       	mov	r18, r24
    2db0:	39 2f       	mov	r19, r25
    2db2:	d9 01       	movw	r26, r18
    2db4:	86 2f       	mov	r24, r22
    2db6:	97 2f       	mov	r25, r23
    2db8:	fc 01       	movw	r30, r24
    2dba:	8f e0       	ldi	r24, 0x0F	; 15
    2dbc:	01 90       	ld	r0, Z+
    2dbe:	0d 92       	st	X+, r0
    2dc0:	81 50       	subi	r24, 0x01	; 1
    2dc2:	e1 f7       	brne	.-8      	; 0x2dbc <_Z12copy_can_msgP4sCANS0_+0xe>
}
    2dc4:	08 95       	ret

00002dc6 <_Z16addNormalHistoryP4sCAN>:
		addMailboxHistory( mMsg );
	//if (isConfigured4(MAILBOX_HISTORY_OP_MODE))		
}

void addNormalHistory( struct sCAN* mMsg )
{
    2dc6:	bc 01       	movw	r22, r24
	copy_can_msg( &(Received[RxHead]), mMsg );	
    2dc8:	80 91 2e 03 	lds	r24, 0x032E
    2dcc:	90 e0       	ldi	r25, 0x00	; 0
    2dce:	9c 01       	movw	r18, r24
    2dd0:	22 0f       	add	r18, r18
    2dd2:	33 1f       	adc	r19, r19
    2dd4:	28 0f       	add	r18, r24
    2dd6:	39 1f       	adc	r19, r25
    2dd8:	c9 01       	movw	r24, r18
    2dda:	88 0f       	add	r24, r24
    2ddc:	99 1f       	adc	r25, r25
    2dde:	88 0f       	add	r24, r24
    2de0:	99 1f       	adc	r25, r25
    2de2:	82 0f       	add	r24, r18
    2de4:	93 1f       	adc	r25, r19
    2de6:	8c 52       	subi	r24, 0x2C	; 44
    2de8:	9d 4f       	sbci	r25, 0xFD	; 253
    2dea:	0e 94 d7 16 	call	0x2dae	; 0x2dae <_Z12copy_can_msgP4sCANS0_>
	RxHead++;
    2dee:	80 91 2e 03 	lds	r24, 0x032E
    2df2:	8f 5f       	subi	r24, 0xFF	; 255
    2df4:	80 93 2e 03 	sts	0x032E, r24
	if (RxHead>=MAX_CAN_MSG_MEMORY_SIZE)
    2df8:	86 30       	cpi	r24, 0x06	; 6
    2dfa:	10 f0       	brcs	.+4      	; 0x2e00 <_Z16addNormalHistoryP4sCAN+0x3a>
		RxHead = 0;
    2dfc:	10 92 2e 03 	sts	0x032E, r1
    2e00:	08 95       	ret

00002e02 <_Z17addMailboxHistoryP4sCAN>:
}

void addMailboxHistory( struct sCAN* mMsg )
{
    2e02:	cf 93       	push	r28
    2e04:	df 93       	push	r29
    2e06:	ec 01       	movw	r28, r24
	byte index = FindMailBox( mMsg->id );
    2e08:	68 81       	ld	r22, Y
    2e0a:	79 81       	ldd	r23, Y+1	; 0x01
    2e0c:	8a 81       	ldd	r24, Y+2	; 0x02
    2e0e:	9b 81       	ldd	r25, Y+3	; 0x03
    2e10:	0e 94 a1 16 	call	0x2d42	; 0x2d42 <_Z11FindMailBox6idType>
	if (index == 0xFF)
    2e14:	8f 3f       	cpi	r24, 0xFF	; 255
    2e16:	a9 f0       	breq	.+42     	; 0x2e42 <_Z17addMailboxHistoryP4sCAN+0x40>
		RxHead++;
		if (RxHead>=MAX_CAN_MSG_MEMORY_SIZE)
			RxHead = 0;
	}
	else {
		copy_can_msg( &(Received[index]), mMsg );	
    2e18:	90 e0       	ldi	r25, 0x00	; 0
    2e1a:	9c 01       	movw	r18, r24
    2e1c:	22 0f       	add	r18, r18
    2e1e:	33 1f       	adc	r19, r19
    2e20:	28 0f       	add	r18, r24
    2e22:	39 1f       	adc	r19, r25
    2e24:	c9 01       	movw	r24, r18
    2e26:	88 0f       	add	r24, r24
    2e28:	99 1f       	adc	r25, r25
    2e2a:	88 0f       	add	r24, r24
    2e2c:	99 1f       	adc	r25, r25
    2e2e:	82 0f       	add	r24, r18
    2e30:	93 1f       	adc	r25, r19
    2e32:	8c 52       	subi	r24, 0x2C	; 44
    2e34:	9d 4f       	sbci	r25, 0xFD	; 253
    2e36:	be 01       	movw	r22, r28
    2e38:	0e 94 d7 16 	call	0x2dae	; 0x2dae <_Z12copy_can_msgP4sCANS0_>
		//	Text_Out("MailBox="); lcd_draw_byte( index );
	}
}
    2e3c:	df 91       	pop	r29
    2e3e:	cf 91       	pop	r28
    2e40:	08 95       	ret
{
	byte index = FindMailBox( mMsg->id );
	if (index == 0xFF)
	{
		//Text_Out("NewMailBox");
		copy_can_msg( &(Received[RxHead]), mMsg );
    2e42:	80 91 2e 03 	lds	r24, 0x032E
    2e46:	90 e0       	ldi	r25, 0x00	; 0
    2e48:	9c 01       	movw	r18, r24
    2e4a:	22 0f       	add	r18, r18
    2e4c:	33 1f       	adc	r19, r19
    2e4e:	28 0f       	add	r18, r24
    2e50:	39 1f       	adc	r19, r25
    2e52:	c9 01       	movw	r24, r18
    2e54:	88 0f       	add	r24, r24
    2e56:	99 1f       	adc	r25, r25
    2e58:	88 0f       	add	r24, r24
    2e5a:	99 1f       	adc	r25, r25
    2e5c:	82 0f       	add	r24, r18
    2e5e:	93 1f       	adc	r25, r19
    2e60:	8c 52       	subi	r24, 0x2C	; 44
    2e62:	9d 4f       	sbci	r25, 0xFD	; 253
    2e64:	be 01       	movw	r22, r28
    2e66:	0e 94 d7 16 	call	0x2dae	; 0x2dae <_Z12copy_can_msgP4sCANS0_>
		RxHead++;
    2e6a:	80 91 2e 03 	lds	r24, 0x032E
    2e6e:	8f 5f       	subi	r24, 0xFF	; 255
    2e70:	80 93 2e 03 	sts	0x032E, r24
		if (RxHead>=MAX_CAN_MSG_MEMORY_SIZE)
    2e74:	86 30       	cpi	r24, 0x06	; 6
    2e76:	10 f3       	brcs	.-60     	; 0x2e3c <_Z17addMailboxHistoryP4sCAN+0x3a>
			RxHead = 0;
    2e78:	10 92 2e 03 	sts	0x032E, r1
	}
	else {
		copy_can_msg( &(Received[index]), mMsg );	
		//	Text_Out("MailBox="); lcd_draw_byte( index );
	}
}
    2e7c:	df 91       	pop	r29
    2e7e:	cf 91       	pop	r28
    2e80:	08 95       	ret

00002e82 <_Z12QueueMessageP4sCAN>:
inline byte isConfigured2(byte Test)	{  return ((config_byte_2 & Test)>0); };
inline byte isConfigured3(byte Test)	{  return ((config_byte_3 & Test)>0); };
inline byte isConfigured4(byte Test)	{  return ((config_byte_4 & Test)>0); };
    2e82:	20 91 42 03 	lds	r18, 0x0342
	memcpy( (void*)mDest, (void*)mSrc, sizeof(struct sCAN) );	
}

void QueueMessage( struct sCAN* mMsg )
{
	if (isConfigured4(NORMAL_HISTORY_OP_MODE))
    2e86:	21 fd       	sbrc	r18, 1
    2e88:	03 c0       	rjmp	.+6      	; 0x2e90 <_Z12QueueMessageP4sCAN+0xe>
		addNormalHistory ( mMsg );
	else 
		addMailboxHistory( mMsg );
    2e8a:	0e 94 01 17 	call	0x2e02	; 0x2e02 <_Z17addMailboxHistoryP4sCAN>
    2e8e:	08 95       	ret
}

void QueueMessage( struct sCAN* mMsg )
{
	if (isConfigured4(NORMAL_HISTORY_OP_MODE))
		addNormalHistory ( mMsg );
    2e90:	0e 94 e3 16 	call	0x2dc6	; 0x2dc6 <_Z16addNormalHistoryP4sCAN>
    2e94:	08 95       	ret

00002e96 <_Z15RetrieveMessagev>:
    2e96:	80 91 42 03 	lds	r24, 0x0342
}

// Return :  TRUE means message was retrieved.  FALSE => none.
struct sCAN* RetrieveMessage( )
{
	if (isConfigured4(NORMAL_HISTORY_OP_MODE))
    2e9a:	81 ff       	sbrs	r24, 1
    2e9c:	1b c0       	rjmp	.+54     	; 0x2ed4 <_Z15RetrieveMessagev+0x3e>
	{
		if (RxTail == RxHead)
    2e9e:	20 91 2f 03 	lds	r18, 0x032F
    2ea2:	80 91 2e 03 	lds	r24, 0x032E
    2ea6:	28 17       	cp	r18, r24
    2ea8:	c9 f0       	breq	.+50     	; 0x2edc <_Z15RetrieveMessagev+0x46>
		{
			RxTail = 0;
			RxHead = 0;
			return NULL;
		} else {		
			return GetMessagePtr( RxTail++ );
    2eaa:	82 2f       	mov	r24, r18
    2eac:	8f 5f       	subi	r24, 0xFF	; 255
    2eae:	80 93 2f 03 	sts	0x032F, r24
	return NULL;
}

struct sCAN* GetMessagePtr( byte mIndex )
{
	return &(Received[mIndex]);
    2eb2:	30 e0       	ldi	r19, 0x00	; 0
		{
			RxTail = 0;
			RxHead = 0;
			return NULL;
		} else {		
			return GetMessagePtr( RxTail++ );
    2eb4:	c9 01       	movw	r24, r18
    2eb6:	88 0f       	add	r24, r24
    2eb8:	99 1f       	adc	r25, r25
    2eba:	82 0f       	add	r24, r18
    2ebc:	93 1f       	adc	r25, r19
    2ebe:	9c 01       	movw	r18, r24
    2ec0:	22 0f       	add	r18, r18
    2ec2:	33 1f       	adc	r19, r19
    2ec4:	22 0f       	add	r18, r18
    2ec6:	33 1f       	adc	r19, r19
    2ec8:	28 0f       	add	r18, r24
    2eca:	39 1f       	adc	r19, r25
    2ecc:	2c 52       	subi	r18, 0x2C	; 44
    2ece:	3d 4f       	sbci	r19, 0xFD	; 253
		}
	}
	return NULL;
}
    2ed0:	c9 01       	movw	r24, r18
    2ed2:	08 95       	ret
			return NULL;
		} else {		
			return GetMessagePtr( RxTail++ );
		}
	}
	return NULL;
    2ed4:	20 e0       	ldi	r18, 0x00	; 0
    2ed6:	30 e0       	ldi	r19, 0x00	; 0
}
    2ed8:	c9 01       	movw	r24, r18
    2eda:	08 95       	ret
{
	if (isConfigured4(NORMAL_HISTORY_OP_MODE))
	{
		if (RxTail == RxHead)
		{
			RxTail = 0;
    2edc:	10 92 2f 03 	sts	0x032F, r1
			RxHead = 0;
    2ee0:	10 92 2e 03 	sts	0x032E, r1
			return NULL;
    2ee4:	20 e0       	ldi	r18, 0x00	; 0
    2ee6:	30 e0       	ldi	r19, 0x00	; 0
    2ee8:	f3 cf       	rjmp	.-26     	; 0x2ed0 <_Z15RetrieveMessagev+0x3a>

00002eea <_Z13GetMessagePtrh>:
	return NULL;
}

struct sCAN* GetMessagePtr( byte mIndex )
{
	return &(Received[mIndex]);
    2eea:	90 e0       	ldi	r25, 0x00	; 0
    2eec:	ac 01       	movw	r20, r24
    2eee:	44 0f       	add	r20, r20
    2ef0:	55 1f       	adc	r21, r21
    2ef2:	48 0f       	add	r20, r24
    2ef4:	59 1f       	adc	r21, r25
    2ef6:	9a 01       	movw	r18, r20
    2ef8:	22 0f       	add	r18, r18
    2efa:	33 1f       	adc	r19, r19
    2efc:	22 0f       	add	r18, r18
    2efe:	33 1f       	adc	r19, r19
    2f00:	24 0f       	add	r18, r20
    2f02:	35 1f       	adc	r19, r21
    2f04:	2c 52       	subi	r18, 0x2C	; 44
    2f06:	3d 4f       	sbci	r19, 0xFD	; 253
}
    2f08:	c9 01       	movw	r24, r18
    2f0a:	08 95       	ret

00002f0c <_Z15CAN_Q_Timeslicev>:
void CAN_Q_Timeslice()
{
	//SET_LED_1();
	/* The CAN ISR() will be adding the messages to this Que. So
	   here we dispatch them.	*/
	struct sCAN* msg = RetrieveMessage();
    2f0c:	0e 94 4b 17 	call	0x2e96	; 0x2e96 <_Z15RetrieveMessagev>
	if (msg)
    2f10:	00 97       	sbiw	r24, 0x00	; 0
    2f12:	19 f0       	breq	.+6      	; 0x2f1a <_Z15CAN_Q_Timeslicev+0xe>
    2f14:	20 91 42 03 	lds	r18, 0x0342
	{
		SET_LED_2();
		if (isConfigured4(NORMAL_HISTORY_OP_MODE))
    2f18:	21 ff       	sbrs	r18, 1
    2f1a:	08 95       	ret
			can_file_message( msg );
    2f1c:	0e 94 a0 03 	call	0x740	; 0x740 <_Z16can_file_messageP4sCAN>
    2f20:	08 95       	ret

00002f22 <_Z9init_ledsv>:
	DDR will always be output for both and is set in the pwm_init() code.
		
*/
void init_leds()
{	// OUTPUTS:
	System_LED_Control.systemMode = SYSTEM_LED_MODE_DEVICE;
    2f22:	10 92 31 03 	sts	0x0331, r1
	System_LED_Control.pattern    = 0;
    2f26:	10 92 30 03 	sts	0x0330, r1
#endif
#ifdef LED_2
	LED_2_DDR |= (1<<LED_2);
#endif
#ifdef LED_3
	LED_3_DDR |= (1<<LED_3);
    2f2a:	56 9a       	sbi	0x0a, 6	; 10
#endif
#ifdef LED_4
	LED_4_DDR |= (1<<LED_4);
    2f2c:	57 9a       	sbi	0x0a, 7	; 10
#endif
  	RESET_LED_1();
	RESET_LED_2();
	RESET_LED_3();
    2f2e:	5e 98       	cbi	0x0b, 6	; 11
	RESET_LED_4();
    2f30:	5f 98       	cbi	0x0b, 7	; 11
}
    2f32:	08 95       	ret

00002f34 <_Z16protected_led_onh>:

/* Not to be called by any user outside of this file! */
void protected_led_on(byte mindex)
{
  switch(mindex)
    2f34:	83 30       	cpi	r24, 0x03	; 3
    2f36:	29 f0       	breq	.+10     	; 0x2f42 <_Z16protected_led_onh+0xe>
    2f38:	84 30       	cpi	r24, 0x04	; 4
    2f3a:	09 f0       	breq	.+2      	; 0x2f3e <_Z16protected_led_onh+0xa>
    2f3c:	08 95       	ret
  {
   case 1:  if(LED_1_2_USEABLE)  SET_LED_1();  break;
   case 2:  if(LED_1_2_USEABLE)  SET_LED_2();  break;
   case 3:  SET_LED_3();  break;
   case 4:  SET_LED_4();  break;
    2f3e:	5f 9a       	sbi	0x0b, 7	; 11
    2f40:	08 95       	ret
{
  switch(mindex)
  {
   case 1:  if(LED_1_2_USEABLE)  SET_LED_1();  break;
   case 2:  if(LED_1_2_USEABLE)  SET_LED_2();  break;
   case 3:  SET_LED_3();  break;
    2f42:	5e 9a       	sbi	0x0b, 6	; 11
    2f44:	08 95       	ret

00002f46 <_Z17protected_led_offh>:
  }
}
/* Not to be called by any user outside of this file! */
void protected_led_off(byte mindex)
{
  switch(mindex)
    2f46:	83 30       	cpi	r24, 0x03	; 3
    2f48:	29 f0       	breq	.+10     	; 0x2f54 <_Z17protected_led_offh+0xe>
    2f4a:	84 30       	cpi	r24, 0x04	; 4
    2f4c:	09 f0       	breq	.+2      	; 0x2f50 <_Z17protected_led_offh+0xa>
    2f4e:	08 95       	ret
  {
   case 1:  if(LED_1_2_USEABLE) RESET_LED_1();  break;
   case 2:  if(LED_1_2_USEABLE) RESET_LED_2();  break;
   case 3:  RESET_LED_3();  break;
   case 4:  RESET_LED_4();  break;
    2f50:	5f 98       	cbi	0x0b, 7	; 11
    2f52:	08 95       	ret
{
  switch(mindex)
  {
   case 1:  if(LED_1_2_USEABLE) RESET_LED_1();  break;
   case 2:  if(LED_1_2_USEABLE) RESET_LED_2();  break;
   case 3:  RESET_LED_3();  break;
    2f54:	5e 98       	cbi	0x0b, 6	; 11
    2f56:	08 95       	ret

00002f58 <_Z11strobe_ledsh>:
byte strobe_leds( byte mOn )
{
	static byte counter= STROBE_SPEED;	
	static byte i=1;

	if ((System_LED_Control.systemMode == SYSTEM_LED_MODE_DEVICE) ||
    2f58:	90 91 31 03 	lds	r25, 0x0331
    2f5c:	99 23       	and	r25, r25
    2f5e:	21 f0       	breq	.+8      	; 0x2f68 <_Z11strobe_ledsh+0x10>
    2f60:	92 30       	cpi	r25, 0x02	; 2
    2f62:	11 f0       	breq	.+4      	; 0x2f68 <_Z11strobe_ledsh+0x10>
		(System_LED_Control.systemMode == SYSTEM_LED_MODE_STROBE))
	{
		if (counter-->0)	return FALSE;
    2f64:	80 e0       	ldi	r24, 0x00	; 0
    2f66:	08 95       	ret
    2f68:	90 91 11 01 	lds	r25, 0x0111
    2f6c:	29 2f       	mov	r18, r25
    2f6e:	21 50       	subi	r18, 0x01	; 1
    2f70:	20 93 11 01 	sts	0x0111, r18
    2f74:	99 23       	and	r25, r25
    2f76:	b1 f7       	brne	.-20     	; 0x2f64 <_Z11strobe_ledsh+0xc>
		counter = STROBE_SPEED;
    2f78:	9a e0       	ldi	r25, 0x0A	; 10
    2f7a:	90 93 11 01 	sts	0x0111, r25
		if (mOn) protected_led_on( i ); else protected_led_off( i );
    2f7e:	88 23       	and	r24, r24
    2f80:	79 f0       	breq	.+30     	; 0x2fa0 <_Z11strobe_ledsh+0x48>
    2f82:	80 91 10 01 	lds	r24, 0x0110
    2f86:	0e 94 9a 17 	call	0x2f34	; 0x2f34 <_Z16protected_led_onh>
		i++;
    2f8a:	80 91 10 01 	lds	r24, 0x0110
    2f8e:	8f 5f       	subi	r24, 0xFF	; 255
    2f90:	80 93 10 01 	sts	0x0110, r24
		if (i>=5)  { i=1; return TRUE; }
    2f94:	85 30       	cpi	r24, 0x05	; 5
    2f96:	78 f0       	brcs	.+30     	; 0x2fb6 <_Z11strobe_ledsh+0x5e>
    2f98:	81 e0       	ldi	r24, 0x01	; 1
    2f9a:	80 93 10 01 	sts	0x0110, r24
    2f9e:	08 95       	ret
	if ((System_LED_Control.systemMode == SYSTEM_LED_MODE_DEVICE) ||
		(System_LED_Control.systemMode == SYSTEM_LED_MODE_STROBE))
	{
		if (counter-->0)	return FALSE;
		counter = STROBE_SPEED;
		if (mOn) protected_led_on( i ); else protected_led_off( i );
    2fa0:	80 91 10 01 	lds	r24, 0x0110
    2fa4:	0e 94 a3 17 	call	0x2f46	; 0x2f46 <_Z17protected_led_offh>
		i++;
    2fa8:	80 91 10 01 	lds	r24, 0x0110
    2fac:	8f 5f       	subi	r24, 0xFF	; 255
    2fae:	80 93 10 01 	sts	0x0110, r24
		if (i>=5)  { i=1; return TRUE; }
    2fb2:	85 30       	cpi	r24, 0x05	; 5
    2fb4:	88 f7       	brcc	.-30     	; 0x2f98 <_Z11strobe_ledsh+0x40>
	}
	return FALSE;
    2fb6:	80 e0       	ldi	r24, 0x00	; 0
}
    2fb8:	08 95       	ret

00002fba <_Z6led_onh>:

void led_on(byte mindex)
{
	if (System_LED_Control.systemMode)	return;		// no operations in system mode!
    2fba:	90 91 31 03 	lds	r25, 0x0331
    2fbe:	91 11       	cpse	r25, r1
    2fc0:	08 95       	ret
	protected_led_on(mindex);
    2fc2:	0e 94 9a 17 	call	0x2f34	; 0x2f34 <_Z16protected_led_onh>
    2fc6:	08 95       	ret

00002fc8 <_Z7led_offh>:
}

void led_off(byte mindex)
{
	if (System_LED_Control.systemMode)	return;		// no operations in system mode!
    2fc8:	90 91 31 03 	lds	r25, 0x0331
    2fcc:	91 11       	cpse	r25, r1
    2fce:	08 95       	ret
	protected_led_off(mindex);
    2fd0:	0e 94 a3 17 	call	0x2f46	; 0x2f46 <_Z17protected_led_offh>
    2fd4:	08 95       	ret

00002fd6 <_Z17protected_set_ledhh>:
}

/* Not to be called by any user outside of this file! */
void protected_set_led( byte mindex, byte value )
{
	if (value)
    2fd6:	66 23       	and	r22, r22
    2fd8:	19 f4       	brne	.+6      	; 0x2fe0 <_Z17protected_set_ledhh+0xa>
		led_on (mindex);
	else
		led_off(mindex);
    2fda:	0e 94 e4 17 	call	0x2fc8	; 0x2fc8 <_Z7led_offh>
    2fde:	08 95       	ret

/* Not to be called by any user outside of this file! */
void protected_set_led( byte mindex, byte value )
{
	if (value)
		led_on (mindex);
    2fe0:	0e 94 dd 17 	call	0x2fba	; 0x2fba <_Z6led_onh>
    2fe4:	08 95       	ret

00002fe6 <_Z7set_ledhh>:
	protected_led_off(mindex);
}

void set_led( byte mindex, byte value )
{
    if (System_LED_Control.systemMode)	return;		// no operations in system mode!
    2fe6:	90 91 31 03 	lds	r25, 0x0331
    2fea:	91 11       	cpse	r25, r1
    2fec:	08 95       	ret
	protected_set_led( mindex, value );
    2fee:	0e 94 eb 17 	call	0x2fd6	; 0x2fd6 <_Z17protected_set_ledhh>
    2ff2:	08 95       	ret

00002ff4 <_Z19protected_show_bytehh>:
	mHiNibble : TRUE => show the upper nibble
				FALSE => show the lower nibble
********************************************************************/
void protected_show_byte( byte result, byte mHiNibble )
{
  if (mHiNibble) {
    2ff4:	66 23       	and	r22, r22
    2ff6:	39 f0       	breq	.+14     	; 0x3006 <_Z19protected_show_bytehh+0x12>
	  if ((result & 0x80)>0)  SET_LED_4()  else RESET_LED_4() ;
    2ff8:	87 ff       	sbrs	r24, 7
    2ffa:	0e c0       	rjmp	.+28     	; 0x3018 <_Z19protected_show_bytehh+0x24>
    2ffc:	5f 9a       	sbi	0x0b, 7	; 11
	  if ((result & 0x40)>0)  SET_LED_3()  else RESET_LED_3() ;
    2ffe:	86 fd       	sbrc	r24, 6
    3000:	07 c0       	rjmp	.+14     	; 0x3010 <_Z19protected_show_bytehh+0x1c>
	  if ((result & 0x20)>0)  SET_LED_2()  else RESET_LED_2() ;
	  if ((result & 0x10)>0)  SET_LED_1()  else RESET_LED_1() ;
  } else {
	  if ((result & 0x08)>0)  SET_LED_4()  else RESET_LED_4() ;
	  if ((result & 0x04)>0)  SET_LED_3()  else RESET_LED_3() ;
    3002:	5e 98       	cbi	0x0b, 6	; 11
    3004:	08 95       	ret
	  if ((result & 0x80)>0)  SET_LED_4()  else RESET_LED_4() ;
	  if ((result & 0x40)>0)  SET_LED_3()  else RESET_LED_3() ;
	  if ((result & 0x20)>0)  SET_LED_2()  else RESET_LED_2() ;
	  if ((result & 0x10)>0)  SET_LED_1()  else RESET_LED_1() ;
  } else {
	  if ((result & 0x08)>0)  SET_LED_4()  else RESET_LED_4() ;
    3006:	83 ff       	sbrs	r24, 3
    3008:	05 c0       	rjmp	.+10     	; 0x3014 <_Z19protected_show_bytehh+0x20>
    300a:	5f 9a       	sbi	0x0b, 7	; 11
	  if ((result & 0x04)>0)  SET_LED_3()  else RESET_LED_3() ;
    300c:	82 ff       	sbrs	r24, 2
    300e:	f9 cf       	rjmp	.-14     	; 0x3002 <_Z19protected_show_bytehh+0xe>
    3010:	5e 9a       	sbi	0x0b, 6	; 11
    3012:	08 95       	ret
	  if ((result & 0x80)>0)  SET_LED_4()  else RESET_LED_4() ;
	  if ((result & 0x40)>0)  SET_LED_3()  else RESET_LED_3() ;
	  if ((result & 0x20)>0)  SET_LED_2()  else RESET_LED_2() ;
	  if ((result & 0x10)>0)  SET_LED_1()  else RESET_LED_1() ;
  } else {
	  if ((result & 0x08)>0)  SET_LED_4()  else RESET_LED_4() ;
    3014:	5f 98       	cbi	0x0b, 7	; 11
    3016:	fa cf       	rjmp	.-12     	; 0x300c <_Z19protected_show_bytehh+0x18>
				FALSE => show the lower nibble
********************************************************************/
void protected_show_byte( byte result, byte mHiNibble )
{
  if (mHiNibble) {
	  if ((result & 0x80)>0)  SET_LED_4()  else RESET_LED_4() ;
    3018:	5f 98       	cbi	0x0b, 7	; 11
    301a:	f1 cf       	rjmp	.-30     	; 0x2ffe <_Z19protected_show_bytehh+0xa>

0000301c <_Z9show_bytehh>:
	mHiNibble : TRUE => show the upper nibble
				FALSE => show the lower nibble
********************************************************************/
void show_byte( byte result, byte mHiNibble )
{
	if (System_LED_Control.systemMode)	{
    301c:	90 91 31 03 	lds	r25, 0x0331
    3020:	99 23       	and	r25, r25
    3022:	11 f0       	breq	.+4      	; 0x3028 <_Z9show_bytehh+0xc>
	  result = System_LED_Control.pattern;		// we override the value with the system requested pattern.
    3024:	80 91 30 03 	lds	r24, 0x0330
	}
    protected_show_byte( result, mHiNibble );
    3028:	0e 94 fa 17 	call	0x2ff4	; 0x2ff4 <_Z19protected_show_bytehh>
}
    302c:	08 95       	ret

0000302e <_Z18show_result_toggleh>:

byte hi_low = 1;
void show_result_toggle( byte mresult )
{
	if ((System_LED_Control.systemMode == SYSTEM_LED_MODE_DEVICE) ||
    302e:	90 91 31 03 	lds	r25, 0x0331
    3032:	99 23       	and	r25, r25
    3034:	19 f0       	breq	.+6      	; 0x303c <_Z18show_result_toggleh+0xe>
    3036:	93 30       	cpi	r25, 0x03	; 3
    3038:	09 f0       	breq	.+2      	; 0x303c <_Z18show_result_toggleh+0xe>
    303a:	08 95       	ret
		(System_LED_Control.systemMode == SYSTEM_LED_MODE_MYINSTANCE))
	{	// no operations in system mode!
		if (hi_low)
    303c:	90 91 0e 01 	lds	r25, 0x010E
    3040:	99 23       	and	r25, r25
    3042:	59 f4       	brne	.+22     	; 0x305a <_Z18show_result_toggleh+0x2c>
		  protected_show_byte( mresult, 1 );
		else 
		  protected_show_byte( mresult, 0 );
    3044:	60 e0       	ldi	r22, 0x00	; 0
    3046:	0e 94 fa 17 	call	0x2ff4	; 0x2ff4 <_Z19protected_show_bytehh>
		hi_low = ! hi_low;		// toggle
    304a:	81 e0       	ldi	r24, 0x01	; 1
    304c:	90 91 0e 01 	lds	r25, 0x010E
    3050:	91 11       	cpse	r25, r1
    3052:	80 e0       	ldi	r24, 0x00	; 0
    3054:	80 93 0e 01 	sts	0x010E, r24
    3058:	08 95       	ret
{
	if ((System_LED_Control.systemMode == SYSTEM_LED_MODE_DEVICE) ||
		(System_LED_Control.systemMode == SYSTEM_LED_MODE_MYINSTANCE))
	{	// no operations in system mode!
		if (hi_low)
		  protected_show_byte( mresult, 1 );
    305a:	61 e0       	ldi	r22, 0x01	; 1
    305c:	0e 94 fa 17 	call	0x2ff4	; 0x2ff4 <_Z19protected_show_bytehh>
    3060:	f4 cf       	rjmp	.-24     	; 0x304a <_Z18show_result_toggleh+0x1c>

00003062 <_Z21can_parse_led_requestP4sCAN>:
	data[0] Lower nibble
			contains the 4 bit pattern.  If the board only has 3 leds, then they 
			will use the lowest 3 bits of this nibble.
**************************************************************/
void can_parse_led_request( sCAN* mMsg )
{
    3062:	fc 01       	movw	r30, r24
	System_LED_Control.systemMode = (mMsg->data[0] & 0x0F);
    3064:	95 81       	ldd	r25, Z+5	; 0x05
    3066:	9f 70       	andi	r25, 0x0F	; 15
    3068:	90 93 31 03 	sts	0x0331, r25
	System_LED_Control.pattern    = (mMsg->data[1] & 0x0F);
    306c:	86 81       	ldd	r24, Z+6	; 0x06
    306e:	8f 70       	andi	r24, 0x0F	; 15
    3070:	80 93 30 03 	sts	0x0330, r24

	switch (System_LED_Control.systemMode)
    3074:	92 30       	cpi	r25, 0x02	; 2
    3076:	81 f0       	breq	.+32     	; 0x3098 <_Z21can_parse_led_requestP4sCAN+0x36>
    3078:	93 30       	cpi	r25, 0x03	; 3
    307a:	39 f0       	breq	.+14     	; 0x308a <_Z21can_parse_led_requestP4sCAN+0x28>
    307c:	91 30       	cpi	r25, 0x01	; 1
    307e:	09 f0       	breq	.+2      	; 0x3082 <_Z21can_parse_led_requestP4sCAN+0x20>
    3080:	08 95       	ret
	{
	case SYSTEM_LED_MODE_DEVICE 	: break;
	case SYSTEM_LED_MODE_PATTERN 	: show_byte(System_LED_Control.pattern, LOW_NIBBLE);
    3082:	60 e0       	ldi	r22, 0x00	; 0
    3084:	0e 94 0e 18 	call	0x301c	; 0x301c <_Z9show_bytehh>
									  break;
    3088:	08 95       	ret
	case SYSTEM_LED_MODE_STROBE 	: strobe_leds( System_LED_Control.pattern );
									  break;
	case SYSTEM_LED_MODE_MYINSTANCE : System_LED_Control.pattern = MyInstance;
    308a:	80 91 c2 02 	lds	r24, 0x02C2
    308e:	80 93 30 03 	sts	0x0330, r24
									  show_result_toggle( MyInstance );
    3092:	0e 94 17 18 	call	0x302e	; 0x302e <_Z18show_result_toggleh>
    3096:	08 95       	ret
	switch (System_LED_Control.systemMode)
	{
	case SYSTEM_LED_MODE_DEVICE 	: break;
	case SYSTEM_LED_MODE_PATTERN 	: show_byte(System_LED_Control.pattern, LOW_NIBBLE);
									  break;
	case SYSTEM_LED_MODE_STROBE 	: strobe_leds( System_LED_Control.pattern );
    3098:	0e 94 ac 17 	call	0x2f58	; 0x2f58 <_Z11strobe_ledsh>
									  break;
    309c:	08 95       	ret

0000309e <_Z19led_timeslice_100msv>:
byte    LED_state = 0;

void led_timeslice_100ms()
{
	static byte counter = 1;
	switch (System_LED_Control.systemMode)
    309e:	80 91 31 03 	lds	r24, 0x0331
    30a2:	82 30       	cpi	r24, 0x02	; 2
    30a4:	d9 f0       	breq	.+54     	; 0x30dc <_Z19led_timeslice_100msv+0x3e>
    30a6:	83 30       	cpi	r24, 0x03	; 3
    30a8:	49 f0       	breq	.+18     	; 0x30bc <_Z19led_timeslice_100msv+0x1e>
    30aa:	81 30       	cpi	r24, 0x01	; 1
    30ac:	09 f0       	breq	.+2      	; 0x30b0 <_Z19led_timeslice_100msv+0x12>
    30ae:	08 95       	ret
	case SYSTEM_LED_MODE_DEVICE 	: 
		/*switch(led_Mode)
		{case STROBE :  break;
		default: break;		}*/
									  break;
	case SYSTEM_LED_MODE_PATTERN 	: show_byte(System_LED_Control.pattern, LOW_NIBBLE);	
    30b0:	80 91 30 03 	lds	r24, 0x0330
    30b4:	60 e0       	ldi	r22, 0x00	; 0
    30b6:	0e 94 0e 18 	call	0x301c	; 0x301c <_Z9show_bytehh>
									  break;
    30ba:	08 95       	ret
	case SYSTEM_LED_MODE_STROBE 	: if (strobe_leds( System_LED_Control.pattern ) == TRUE)
											System_LED_Control.pattern = !System_LED_Control.pattern;
									  break;
	case SYSTEM_LED_MODE_MYINSTANCE : if (counter--==0) {
    30bc:	80 91 0f 01 	lds	r24, 0x010F
    30c0:	98 2f       	mov	r25, r24
    30c2:	91 50       	subi	r25, 0x01	; 1
    30c4:	90 93 0f 01 	sts	0x010F, r25
    30c8:	88 23       	and	r24, r24
    30ca:	89 f7       	brne	.-30     	; 0x30ae <_Z19led_timeslice_100msv+0x10>
										counter = BLINK_RATE;
    30cc:	8a e0       	ldi	r24, 0x0A	; 10
    30ce:	80 93 0f 01 	sts	0x010F, r24
										//System_LED_Control.pattern= MyInstance; already done.
										show_result_toggle( MyInstance );
    30d2:	80 91 c2 02 	lds	r24, 0x02C2
    30d6:	0e 94 17 18 	call	0x302e	; 0x302e <_Z18show_result_toggleh>
    30da:	08 95       	ret
		{case STROBE :  break;
		default: break;		}*/
									  break;
	case SYSTEM_LED_MODE_PATTERN 	: show_byte(System_LED_Control.pattern, LOW_NIBBLE);	
									  break;
	case SYSTEM_LED_MODE_STROBE 	: if (strobe_leds( System_LED_Control.pattern ) == TRUE)
    30dc:	80 91 30 03 	lds	r24, 0x0330
    30e0:	0e 94 ac 17 	call	0x2f58	; 0x2f58 <_Z11strobe_ledsh>
    30e4:	81 30       	cpi	r24, 0x01	; 1
    30e6:	19 f7       	brne	.-58     	; 0x30ae <_Z19led_timeslice_100msv+0x10>
											System_LED_Control.pattern = !System_LED_Control.pattern;
    30e8:	90 91 30 03 	lds	r25, 0x0330
    30ec:	99 23       	and	r25, r25
    30ee:	19 f4       	brne	.+6      	; 0x30f6 <_Z19led_timeslice_100msv+0x58>
    30f0:	80 93 30 03 	sts	0x0330, r24
    30f4:	08 95       	ret
    30f6:	80 e0       	ldi	r24, 0x00	; 0
    30f8:	fb cf       	rjmp	.-10     	; 0x30f0 <_Z19led_timeslice_100msv+0x52>

000030fa <_Z11OCR1A_Writej>:

/* This is proper way to write to the 16 bit register! */
void OCR1A_Write( unsigned int i ) 
{
	unsigned char sreg;	
	sreg = SREG;			/* Save global interrupt flag */ 
    30fa:	2f b7       	in	r18, 0x3f	; 63
	cli();					/* Disable interrupts   */
    30fc:	f8 94       	cli
	OCR1A = i;				/* Set TCNTn to i       */
    30fe:	90 93 89 00 	sts	0x0089, r25
    3102:	80 93 88 00 	sts	0x0088, r24
	SREG  = sreg;			/* Restore global interrupt flag */
    3106:	2f bf       	out	0x3f, r18	; 63
}
    3108:	08 95       	ret

0000310a <_Z11OCR1B_Writej>:

/* This is proper way to write to the 16 bit register! */
void OCR1B_Write( unsigned int i ) 
{
	unsigned char sreg;
	sreg = SREG;	/* Save global interrupt flag */ 
    310a:	2f b7       	in	r18, 0x3f	; 63
	cli();			/* Disable interrupts */
    310c:	f8 94       	cli
	OCR1B = i;		/* Set TCNTn to i     */
    310e:	90 93 8b 00 	sts	0x008B, r25
    3112:	80 93 8a 00 	sts	0x008A, r24
	SREG = sreg;	/* Restore global interrupt flag */ 
    3116:	2f bf       	out	0x3f, r18	; 63
}
    3118:	08 95       	ret

0000311a <_Z13get_top_valuef>:

word get_top_value( float mHerz )
{
    311a:	ef 92       	push	r14
    311c:	ff 92       	push	r15
    311e:	0f 93       	push	r16
    3120:	1f 93       	push	r17
    3122:	7b 01       	movw	r14, r22
    3124:	8c 01       	movw	r16, r24
	// For Prescaler=1;  
	// Not right here:  16,000,000 / 100. = 160,000 which doesn't fit inside a 'word'
	// need prescaler=8;
	//     Right here:   2,000,000 / 100. = 20,000 which does fit inside a 'word'
	word Top = (F_CPU/Prescaler) / mHerz;
    3126:	20 91 12 01 	lds	r18, 0x0112
    312a:	30 e0       	ldi	r19, 0x00	; 0
    312c:	40 e0       	ldi	r20, 0x00	; 0
    312e:	50 e0       	ldi	r21, 0x00	; 0
    3130:	60 e0       	ldi	r22, 0x00	; 0
    3132:	74 e2       	ldi	r23, 0x24	; 36
    3134:	84 ef       	ldi	r24, 0xF4	; 244
    3136:	90 e0       	ldi	r25, 0x00	; 0
    3138:	0e 94 be 23 	call	0x477c	; 0x477c <__divmodsi4>
    313c:	ca 01       	movw	r24, r20
    313e:	b9 01       	movw	r22, r18
    3140:	0e 94 84 20 	call	0x4108	; 0x4108 <__floatsisf>
    3144:	a8 01       	movw	r20, r16
    3146:	97 01       	movw	r18, r14
    3148:	0e 94 46 1f 	call	0x3e8c	; 0x3e8c <__divsf3>
    314c:	0e 94 78 1c 	call	0x38f0	; 0x38f0 <__fixunssfsi>
	return Top;
}
    3150:	cb 01       	movw	r24, r22
    3152:	1f 91       	pop	r17
    3154:	0f 91       	pop	r16
    3156:	ff 90       	pop	r15
    3158:	ef 90       	pop	r14
    315a:	08 95       	ret

0000315c <_Z7set_topt>:

void set_top( word mTop )
{
	TOP = mTop;
    315c:	90 93 14 01 	sts	0x0114, r25
    3160:	80 93 13 01 	sts	0x0113, r24
	ICR1 = TOP;
    3164:	90 93 87 00 	sts	0x0087, r25
    3168:	80 93 86 00 	sts	0x0086, r24
}
    316c:	08 95       	ret

0000316e <_Z16select_prescalerf>:

word select_prescaler( float mHerz )
{
    316e:	0f 93       	push	r16
    3170:	1f 93       	push	r17
    3172:	cf 93       	push	r28
    3174:	df 93       	push	r29
    3176:	9b 01       	movw	r18, r22
    3178:	ac 01       	movw	r20, r24
	word Pre = 1;
	// Calculate the prescaler needed to achieve the mHerz.
	float tick = (16000000.0 / mHerz);
    317a:	60 e0       	ldi	r22, 0x00	; 0
    317c:	74 e2       	ldi	r23, 0x24	; 36
    317e:	84 e7       	ldi	r24, 0x74	; 116
    3180:	9b e4       	ldi	r25, 0x4B	; 75
    3182:	0e 94 46 1f 	call	0x3e8c	; 0x3e8c <__divsf3>
    3186:	8b 01       	movw	r16, r22
    3188:	d8 2f       	mov	r29, r24
    318a:	c9 2f       	mov	r28, r25
	float val  = tick/(float)Pre;
	if (val>65535) { Pre = 8;    val = tick/(float)Pre; 	}
    318c:	9e 01       	movw	r18, r28
    318e:	71 2f       	mov	r23, r17
    3190:	83 2f       	mov	r24, r19
    3192:	92 2f       	mov	r25, r18
    3194:	20 e0       	ldi	r18, 0x00	; 0
    3196:	3f ef       	ldi	r19, 0xFF	; 255
    3198:	4f e7       	ldi	r20, 0x7F	; 127
    319a:	57 e4       	ldi	r21, 0x47	; 71
    319c:	0e 94 f4 1f 	call	0x3fe8	; 0x3fe8 <__gtsf2>
    31a0:	18 16       	cp	r1, r24
    31a2:	0c f0       	brlt	.+2      	; 0x31a6 <_Z16select_prescalerf+0x38>
    31a4:	41 c0       	rjmp	.+130    	; 0x3228 <_Z16select_prescalerf+0xba>
    31a6:	9e 01       	movw	r18, r28
    31a8:	60 2f       	mov	r22, r16
    31aa:	71 2f       	mov	r23, r17
    31ac:	83 2f       	mov	r24, r19
    31ae:	92 2f       	mov	r25, r18
    31b0:	20 e0       	ldi	r18, 0x00	; 0
    31b2:	30 e0       	ldi	r19, 0x00	; 0
    31b4:	40 e0       	ldi	r20, 0x00	; 0
    31b6:	5e e3       	ldi	r21, 0x3E	; 62
    31b8:	0e 94 4c 1e 	call	0x3c98	; 0x3c98 <__mulsf3>
	if (val>65535) { Pre = 64;   val = tick/(float)Pre; 	}
    31bc:	20 e0       	ldi	r18, 0x00	; 0
    31be:	3f ef       	ldi	r19, 0xFF	; 255
    31c0:	4f e7       	ldi	r20, 0x7F	; 127
    31c2:	57 e4       	ldi	r21, 0x47	; 71
    31c4:	0e 94 f4 1f 	call	0x3fe8	; 0x3fe8 <__gtsf2>
    31c8:	18 16       	cp	r1, r24
    31ca:	b4 f5       	brge	.+108    	; 0x3238 <_Z16select_prescalerf+0xca>
    31cc:	9e 01       	movw	r18, r28
    31ce:	60 2f       	mov	r22, r16
    31d0:	71 2f       	mov	r23, r17
    31d2:	83 2f       	mov	r24, r19
    31d4:	92 2f       	mov	r25, r18
    31d6:	20 e0       	ldi	r18, 0x00	; 0
    31d8:	30 e0       	ldi	r19, 0x00	; 0
    31da:	40 e8       	ldi	r20, 0x80	; 128
    31dc:	5c e3       	ldi	r21, 0x3C	; 60
    31de:	0e 94 4c 1e 	call	0x3c98	; 0x3c98 <__mulsf3>
	if (val>65535) { Pre = 256;  val = tick/(float)Pre; 	}
    31e2:	20 e0       	ldi	r18, 0x00	; 0
    31e4:	3f ef       	ldi	r19, 0xFF	; 255
    31e6:	4f e7       	ldi	r20, 0x7F	; 127
    31e8:	57 e4       	ldi	r21, 0x47	; 71
    31ea:	0e 94 f4 1f 	call	0x3fe8	; 0x3fe8 <__gtsf2>
    31ee:	18 16       	cp	r1, r24
    31f0:	4c f5       	brge	.+82     	; 0x3244 <_Z16select_prescalerf+0xd6>
    31f2:	9e 01       	movw	r18, r28
    31f4:	60 2f       	mov	r22, r16
    31f6:	71 2f       	mov	r23, r17
    31f8:	83 2f       	mov	r24, r19
    31fa:	92 2f       	mov	r25, r18
    31fc:	20 e0       	ldi	r18, 0x00	; 0
    31fe:	30 e0       	ldi	r19, 0x00	; 0
    3200:	40 e8       	ldi	r20, 0x80	; 128
    3202:	5b e3       	ldi	r21, 0x3B	; 59
    3204:	0e 94 4c 1e 	call	0x3c98	; 0x3c98 <__mulsf3>
	if (val>65535) { Pre = 1024; val = tick/(float)Pre; 	}
    3208:	20 e0       	ldi	r18, 0x00	; 0
    320a:	3f ef       	ldi	r19, 0xFF	; 255
    320c:	4f e7       	ldi	r20, 0x7F	; 127
    320e:	57 e4       	ldi	r21, 0x47	; 71
    3210:	0e 94 f4 1f 	call	0x3fe8	; 0x3fe8 <__gtsf2>
    3214:	18 16       	cp	r1, r24
    3216:	9c f4       	brge	.+38     	; 0x323e <_Z16select_prescalerf+0xd0>
    3218:	20 e0       	ldi	r18, 0x00	; 0
    321a:	34 e0       	ldi	r19, 0x04	; 4
	return Pre;	
}
    321c:	c9 01       	movw	r24, r18
    321e:	df 91       	pop	r29
    3220:	cf 91       	pop	r28
    3222:	1f 91       	pop	r17
    3224:	0f 91       	pop	r16
    3226:	08 95       	ret
	ICR1 = TOP;
}

word select_prescaler( float mHerz )
{
	word Pre = 1;
    3228:	21 e0       	ldi	r18, 0x01	; 1
    322a:	30 e0       	ldi	r19, 0x00	; 0
	if (val>65535) { Pre = 8;    val = tick/(float)Pre; 	}
	if (val>65535) { Pre = 64;   val = tick/(float)Pre; 	}
	if (val>65535) { Pre = 256;  val = tick/(float)Pre; 	}
	if (val>65535) { Pre = 1024; val = tick/(float)Pre; 	}
	return Pre;	
}
    322c:	c9 01       	movw	r24, r18
    322e:	df 91       	pop	r29
    3230:	cf 91       	pop	r28
    3232:	1f 91       	pop	r17
    3234:	0f 91       	pop	r16
    3236:	08 95       	ret
{
	word Pre = 1;
	// Calculate the prescaler needed to achieve the mHerz.
	float tick = (16000000.0 / mHerz);
	float val  = tick/(float)Pre;
	if (val>65535) { Pre = 8;    val = tick/(float)Pre; 	}
    3238:	28 e0       	ldi	r18, 0x08	; 8
    323a:	30 e0       	ldi	r19, 0x00	; 0
    323c:	ef cf       	rjmp	.-34     	; 0x321c <_Z16select_prescalerf+0xae>
	if (val>65535) { Pre = 64;   val = tick/(float)Pre; 	}
	if (val>65535) { Pre = 256;  val = tick/(float)Pre; 	}
    323e:	20 e0       	ldi	r18, 0x00	; 0
    3240:	31 e0       	ldi	r19, 0x01	; 1
    3242:	ec cf       	rjmp	.-40     	; 0x321c <_Z16select_prescalerf+0xae>
	word Pre = 1;
	// Calculate the prescaler needed to achieve the mHerz.
	float tick = (16000000.0 / mHerz);
	float val  = tick/(float)Pre;
	if (val>65535) { Pre = 8;    val = tick/(float)Pre; 	}
	if (val>65535) { Pre = 64;   val = tick/(float)Pre; 	}
    3244:	20 e4       	ldi	r18, 0x40	; 64
    3246:	30 e0       	ldi	r19, 0x00	; 0
    3248:	e9 cf       	rjmp	.-46     	; 0x321c <_Z16select_prescalerf+0xae>

0000324a <_Z20get_tccr1b_prescalert>:
}

byte get_tccr1b_prescaler( word Prescaler )
{
	// Change here will impact BigMotor base frequencies!	
	switch (Prescaler)		// was Prescaler & 0x07
    324a:	80 34       	cpi	r24, 0x40	; 64
    324c:	91 05       	cpc	r25, r1
    324e:	d9 f0       	breq	.+54     	; 0x3286 <_Z20get_tccr1b_prescalert+0x3c>
    3250:	81 34       	cpi	r24, 0x41	; 65
    3252:	91 05       	cpc	r25, r1
    3254:	50 f0       	brcs	.+20     	; 0x326a <_Z20get_tccr1b_prescalert+0x20>
    3256:	21 e0       	ldi	r18, 0x01	; 1
    3258:	80 30       	cpi	r24, 0x00	; 0
    325a:	92 07       	cpc	r25, r18
    325c:	81 f0       	breq	.+32     	; 0x327e <_Z20get_tccr1b_prescalert+0x34>
    325e:	24 e0       	ldi	r18, 0x04	; 4
    3260:	80 30       	cpi	r24, 0x00	; 0
    3262:	92 07       	cpc	r25, r18
    3264:	51 f0       	breq	.+20     	; 0x327a <_Z20get_tccr1b_prescalert+0x30>
	case 64	  :	return 0x03;	break;
	case 256  :	return 0x04;	break;
	case 1024 :	return 0x05;	break;
	default	  : break;
	}
	return 0xFF;
    3266:	8f ef       	ldi	r24, 0xFF	; 255
    3268:	08 95       	ret
}

byte get_tccr1b_prescaler( word Prescaler )
{
	// Change here will impact BigMotor base frequencies!	
	switch (Prescaler)		// was Prescaler & 0x07
    326a:	81 30       	cpi	r24, 0x01	; 1
    326c:	91 05       	cpc	r25, r1
    326e:	49 f0       	breq	.+18     	; 0x3282 <_Z20get_tccr1b_prescalert+0x38>
    3270:	88 30       	cpi	r24, 0x08	; 8
    3272:	91 05       	cpc	r25, r1
    3274:	c1 f7       	brne	.-16     	; 0x3266 <_Z20get_tccr1b_prescalert+0x1c>
	{
	case 1	  :	return 0x01;	break;
	case 8	  :	return 0x02;	break;
    3276:	82 e0       	ldi	r24, 0x02	; 2
	case 256  :	return 0x04;	break;
	case 1024 :	return 0x05;	break;
	default	  : break;
	}
	return 0xFF;
}
    3278:	08 95       	ret
	{
	case 1	  :	return 0x01;	break;
	case 8	  :	return 0x02;	break;
	case 64	  :	return 0x03;	break;
	case 256  :	return 0x04;	break;
	case 1024 :	return 0x05;	break;
    327a:	85 e0       	ldi	r24, 0x05	; 5
    327c:	08 95       	ret
	switch (Prescaler)		// was Prescaler & 0x07
	{
	case 1	  :	return 0x01;	break;
	case 8	  :	return 0x02;	break;
	case 64	  :	return 0x03;	break;
	case 256  :	return 0x04;	break;
    327e:	84 e0       	ldi	r24, 0x04	; 4
    3280:	08 95       	ret
byte get_tccr1b_prescaler( word Prescaler )
{
	// Change here will impact BigMotor base frequencies!	
	switch (Prescaler)		// was Prescaler & 0x07
	{
	case 1	  :	return 0x01;	break;
    3282:	81 e0       	ldi	r24, 0x01	; 1
    3284:	08 95       	ret
	case 8	  :	return 0x02;	break;
	case 64	  :	return 0x03;	break;
    3286:	83 e0       	ldi	r24, 0x03	; 3
    3288:	08 95       	ret

0000328a <_Z17set_base_PWM_freqf>:
	}
	return 0xFF;
}

void set_base_PWM_freq( float mHerz )
{
    328a:	ef 92       	push	r14
    328c:	ff 92       	push	r15
    328e:	0f 93       	push	r16
    3290:	1f 93       	push	r17
    3292:	7b 01       	movw	r14, r22
    3294:	8c 01       	movw	r16, r24
{
	// For Prescaler=1;  
	// Not right here:  16,000,000 / 100. = 160,000 which doesn't fit inside a 'word'
	// need prescaler=8;
	//     Right here:   2,000,000 / 100. = 20,000 which does fit inside a 'word'
	word Top = (F_CPU/Prescaler) / mHerz;
    3296:	20 91 12 01 	lds	r18, 0x0112
    329a:	30 e0       	ldi	r19, 0x00	; 0
    329c:	40 e0       	ldi	r20, 0x00	; 0
    329e:	50 e0       	ldi	r21, 0x00	; 0
    32a0:	60 e0       	ldi	r22, 0x00	; 0
    32a2:	74 e2       	ldi	r23, 0x24	; 36
    32a4:	84 ef       	ldi	r24, 0xF4	; 244
    32a6:	90 e0       	ldi	r25, 0x00	; 0
    32a8:	0e 94 be 23 	call	0x477c	; 0x477c <__divmodsi4>
    32ac:	ca 01       	movw	r24, r20
    32ae:	b9 01       	movw	r22, r18
    32b0:	0e 94 84 20 	call	0x4108	; 0x4108 <__floatsisf>
    32b4:	a8 01       	movw	r20, r16
    32b6:	97 01       	movw	r18, r14
    32b8:	0e 94 46 1f 	call	0x3e8c	; 0x3e8c <__divsf3>
    32bc:	0e 94 78 1c 	call	0x38f0	; 0x38f0 <__fixunssfsi>
	return 0xFF;
}

void set_base_PWM_freq( float mHerz )
{
	TOP = get_top_value( mHerz );	
    32c0:	70 93 14 01 	sts	0x0114, r23
    32c4:	60 93 13 01 	sts	0x0113, r22
}

void set_top( word mTop )
{
	TOP = mTop;
	ICR1 = TOP;
    32c8:	70 93 87 00 	sts	0x0087, r23
    32cc:	60 93 86 00 	sts	0x0086, r22

void set_base_PWM_freq( float mHerz )
{
	TOP = get_top_value( mHerz );	
	set_top(TOP);
}
    32d0:	1f 91       	pop	r17
    32d2:	0f 91       	pop	r16
    32d4:	ff 90       	pop	r15
    32d6:	ef 90       	pop	r14
    32d8:	08 95       	ret

000032da <_Z8pwm_initfhh>:

void pwm_init( float mBaseFrequencyHerz, BOOL mA_Enable, BOOL mB_Enable )
{
    32da:	ef 92       	push	r14
    32dc:	ff 92       	push	r15
    32de:	0f 93       	push	r16
    32e0:	1f 93       	push	r17
    32e2:	cf 93       	push	r28
    32e4:	df 93       	push	r29
    32e6:	7b 01       	movw	r14, r22
    32e8:	8c 01       	movw	r16, r24
    32ea:	c4 2f       	mov	r28, r20
    32ec:	d2 2f       	mov	r29, r18
	if (mA_Enable)		PWM_1A_DDR |= (1<<PWM_1A_PIN);
    32ee:	41 11       	cpse	r20, r1
    32f0:	52 9a       	sbi	0x0a, 2	; 10
	if (mB_Enable)		PWM_1B_DDR |= (1<<PWM_1B_PIN);
    32f2:	d1 11       	cpse	r29, r1
    32f4:	39 9a       	sbi	0x07, 1	; 7

	// No Power Reduction (needed to enable the Timer1)
	PRR &= ~((1<<PRTIM1) | (1<<PRTIM0));
    32f6:	80 91 64 00 	lds	r24, 0x0064
    32fa:	87 7e       	andi	r24, 0xE7	; 231
    32fc:	80 93 64 00 	sts	0x0064, r24

/* This is proper way to write to the 16 bit register! */
void OCR1A_Write( unsigned int i ) 
{
	unsigned char sreg;	
	sreg = SREG;			/* Save global interrupt flag */ 
    3300:	8f b7       	in	r24, 0x3f	; 63
	cli();					/* Disable interrupts   */
    3302:	f8 94       	cli
	OCR1A = i;				/* Set TCNTn to i       */
    3304:	10 92 89 00 	sts	0x0089, r1
    3308:	10 92 88 00 	sts	0x0088, r1
	SREG  = sreg;			/* Restore global interrupt flag */
    330c:	8f bf       	out	0x3f, r24	; 63

/* This is proper way to write to the 16 bit register! */
void OCR1B_Write( unsigned int i ) 
{
	unsigned char sreg;
	sreg = SREG;	/* Save global interrupt flag */ 
    330e:	8f b7       	in	r24, 0x3f	; 63
	cli();			/* Disable interrupts */
    3310:	f8 94       	cli
	OCR1B = i;		/* Set TCNTn to i     */
    3312:	10 92 8b 00 	sts	0x008B, r1
    3316:	10 92 8a 00 	sts	0x008A, r1
	SREG = sreg;	/* Restore global interrupt flag */ 
    331a:	8f bf       	out	0x3f, r24	; 63
{
	// For Prescaler=1;  
	// Not right here:  16,000,000 / 100. = 160,000 which doesn't fit inside a 'word'
	// need prescaler=8;
	//     Right here:   2,000,000 / 100. = 20,000 which does fit inside a 'word'
	word Top = (F_CPU/Prescaler) / mHerz;
    331c:	20 91 12 01 	lds	r18, 0x0112
    3320:	30 e0       	ldi	r19, 0x00	; 0
    3322:	40 e0       	ldi	r20, 0x00	; 0
    3324:	50 e0       	ldi	r21, 0x00	; 0
    3326:	60 e0       	ldi	r22, 0x00	; 0
    3328:	74 e2       	ldi	r23, 0x24	; 36
    332a:	84 ef       	ldi	r24, 0xF4	; 244
    332c:	90 e0       	ldi	r25, 0x00	; 0
    332e:	0e 94 be 23 	call	0x477c	; 0x477c <__divmodsi4>
    3332:	ca 01       	movw	r24, r20
    3334:	b9 01       	movw	r22, r18
    3336:	0e 94 84 20 	call	0x4108	; 0x4108 <__floatsisf>
    333a:	a8 01       	movw	r20, r16
    333c:	97 01       	movw	r18, r14
    333e:	0e 94 46 1f 	call	0x3e8c	; 0x3e8c <__divsf3>
    3342:	0e 94 78 1c 	call	0x38f0	; 0x38f0 <__fixunssfsi>
	return Top;
}

void set_top( word mTop )
{
	TOP = mTop;
    3346:	70 93 14 01 	sts	0x0114, r23
    334a:	60 93 13 01 	sts	0x0113, r22
	ICR1 = TOP;
    334e:	70 93 87 00 	sts	0x0087, r23
    3352:	60 93 86 00 	sts	0x0086, r22
	// 16Mhz / 65535 = 	244 Hz  (slowest possible at this prescaler=1)
	set_top( get_top_value( mBaseFrequencyHerz ) );

	// 8 Bit control Registers:
	byte tccr1a = 0x02;
	if (mA_Enable)	tccr1a |= 0x80;
    3356:	cc 23       	and	r28, r28
    3358:	c1 f4       	brne	.+48     	; 0x338a <_Z8pwm_initfhh+0xb0>
	// TOP counter value is defined in the ICR1
	// 16Mhz / 65535 = 	244 Hz  (slowest possible at this prescaler=1)
	set_top( get_top_value( mBaseFrequencyHerz ) );

	// 8 Bit control Registers:
	byte tccr1a = 0x02;
    335a:	82 e0       	ldi	r24, 0x02	; 2
	if (mA_Enable)	tccr1a |= 0x80;
	if (mB_Enable)	tccr1a |= 0x20;
    335c:	d1 11       	cpse	r29, r1
    335e:	80 62       	ori	r24, 0x20	; 32
	TCCR1A 	= tccr1a;
    3360:	80 93 80 00 	sts	0x0080, r24

	Prescaler   = select_prescaler( mBaseFrequencyHerz );
    3364:	c8 01       	movw	r24, r16
    3366:	b7 01       	movw	r22, r14
    3368:	0e 94 b7 18 	call	0x316e	; 0x316e <_Z16select_prescalerf>
    336c:	80 93 12 01 	sts	0x0112, r24
	byte tccr1b = 0x18;
	TCCR1B = tccr1b | get_tccr1b_prescaler(Prescaler);
    3370:	90 e0       	ldi	r25, 0x00	; 0
    3372:	0e 94 25 19 	call	0x324a	; 0x324a <_Z20get_tccr1b_prescalert>
    3376:	88 61       	ori	r24, 0x18	; 24
    3378:	80 93 81 00 	sts	0x0081, r24

	// Mode 14 Fast PWM ICR1 holds TOP
	// We will be using the Waveform Generation Mode (WGM =0000; Normal Mode)
	// Correction!  We will be using FastPWM ICRn is TOP 
	//	(Mode 14)	
}
    337c:	df 91       	pop	r29
    337e:	cf 91       	pop	r28
    3380:	1f 91       	pop	r17
    3382:	0f 91       	pop	r16
    3384:	ff 90       	pop	r15
    3386:	ef 90       	pop	r14
    3388:	08 95       	ret
	// 16Mhz / 65535 = 	244 Hz  (slowest possible at this prescaler=1)
	set_top( get_top_value( mBaseFrequencyHerz ) );

	// 8 Bit control Registers:
	byte tccr1a = 0x02;
	if (mA_Enable)	tccr1a |= 0x80;
    338a:	82 e8       	ldi	r24, 0x82	; 130
    338c:	e7 cf       	rjmp	.-50     	; 0x335c <_Z8pwm_initfhh+0x82>

0000338e <_Z13set_polarityAh>:
_		    _____________________
 |_________|
******************************************/
void set_polarityA( BOOL mHigh )
{
	byte tmp = TCCR1A;
    338e:	90 91 80 00 	lds	r25, 0x0080
	tmp |= 0x80;
    3392:	29 2f       	mov	r18, r25
    3394:	20 68       	ori	r18, 0x80	; 128
	if (mHigh)
    3396:	88 23       	and	r24, r24
    3398:	21 f4       	brne	.+8      	; 0x33a2 <_Z13set_polarityAh+0x14>
		tmp &= ~(0x40);		// Clear PWM pin on compare match
	else
		tmp |= 0x40;		// Set PWM pin on compare match
    339a:	90 6c       	ori	r25, 0xC0	; 192
	TCCR1A = tmp;		
    339c:	90 93 80 00 	sts	0x0080, r25
}
    33a0:	08 95       	ret
void set_polarityA( BOOL mHigh )
{
	byte tmp = TCCR1A;
	tmp |= 0x80;
	if (mHigh)
		tmp &= ~(0x40);		// Clear PWM pin on compare match
    33a2:	92 2f       	mov	r25, r18
    33a4:	9f 7b       	andi	r25, 0xBF	; 191
	else
		tmp |= 0x40;		// Set PWM pin on compare match
	TCCR1A = tmp;		
    33a6:	90 93 80 00 	sts	0x0080, r25
}
    33aa:	08 95       	ret

000033ac <_Z13set_polarityBh>:
void set_polarityB( BOOL mHigh )
{
	byte tmp = TCCR1A;
    33ac:	90 91 80 00 	lds	r25, 0x0080
	tmp |= 0x20;
    33b0:	29 2f       	mov	r18, r25
    33b2:	20 62       	ori	r18, 0x20	; 32
	if (mHigh)
    33b4:	88 23       	and	r24, r24
    33b6:	21 f4       	brne	.+8      	; 0x33c0 <_Z13set_polarityBh+0x14>
		tmp &= ~0x10;
	else
		tmp |= 0x10;
    33b8:	90 63       	ori	r25, 0x30	; 48
	TCCR1A = tmp;
    33ba:	90 93 80 00 	sts	0x0080, r25
}
    33be:	08 95       	ret
void set_polarityB( BOOL mHigh )
{
	byte tmp = TCCR1A;
	tmp |= 0x20;
	if (mHigh)
		tmp &= ~0x10;
    33c0:	92 2f       	mov	r25, r18
    33c2:	9f 7e       	andi	r25, 0xEF	; 239
	else
		tmp |= 0x10;
	TCCR1A = tmp;
    33c4:	90 93 80 00 	sts	0x0080, r25
}
    33c8:	08 95       	ret

000033ca <_Z9set_dutyAf>:

/* value must be Positive! 
mDuty	- 	[0 to 1.00]  Fraction
*/
void set_dutyA( float mDuty )
{
    33ca:	ef 92       	push	r14
    33cc:	ff 92       	push	r15
    33ce:	0f 93       	push	r16
    33d0:	1f 93       	push	r17
    33d2:	7b 01       	movw	r14, r22
    33d4:	8c 01       	movw	r16, r24
	if (mDuty<0)  mDuty = -mDuty;	// make it positive
    33d6:	20 e0       	ldi	r18, 0x00	; 0
    33d8:	30 e0       	ldi	r19, 0x00	; 0
    33da:	a9 01       	movw	r20, r18
    33dc:	0e 94 54 20 	call	0x40a8	; 0x40a8 <__ltsf2>
    33e0:	87 ff       	sbrs	r24, 7
    33e2:	04 c0       	rjmp	.+8      	; 0x33ec <_Z9set_dutyAf+0x22>
    33e4:	17 fb       	bst	r17, 7
    33e6:	10 95       	com	r17
    33e8:	17 f9       	bld	r17, 7
    33ea:	10 95       	com	r17
	word counts = ceil( (float)TOP * mDuty );
    33ec:	60 91 13 01 	lds	r22, 0x0113
    33f0:	70 91 14 01 	lds	r23, 0x0114
    33f4:	80 e0       	ldi	r24, 0x00	; 0
    33f6:	90 e0       	ldi	r25, 0x00	; 0
    33f8:	0e 94 36 21 	call	0x426c	; 0x426c <__floatunsisf>
    33fc:	a8 01       	movw	r20, r16
    33fe:	97 01       	movw	r18, r14
    3400:	0e 94 4c 1e 	call	0x3c98	; 0x3c98 <__mulsf3>
    3404:	0e 94 32 24 	call	0x4864	; 0x4864 <ceil>
    3408:	0e 94 78 1c 	call	0x38f0	; 0x38f0 <__fixunssfsi>

/* This is proper way to write to the 16 bit register! */
void OCR1A_Write( unsigned int i ) 
{
	unsigned char sreg;	
	sreg = SREG;			/* Save global interrupt flag */ 
    340c:	8f b7       	in	r24, 0x3f	; 63
	cli();					/* Disable interrupts   */
    340e:	f8 94       	cli
	OCR1A = i;				/* Set TCNTn to i       */
    3410:	70 93 89 00 	sts	0x0089, r23
    3414:	60 93 88 00 	sts	0x0088, r22
	SREG  = sreg;			/* Restore global interrupt flag */
    3418:	8f bf       	out	0x3f, r24	; 63
void set_dutyA( float mDuty )
{
	if (mDuty<0)  mDuty = -mDuty;	// make it positive
	word counts = ceil( (float)TOP * mDuty );
	OCR1A_Write( counts );
}
    341a:	1f 91       	pop	r17
    341c:	0f 91       	pop	r16
    341e:	ff 90       	pop	r15
    3420:	ef 90       	pop	r14
    3422:	08 95       	ret

00003424 <_Z9set_dutyBf>:

void set_dutyB( float mDuty )
{
    3424:	ef 92       	push	r14
    3426:	ff 92       	push	r15
    3428:	0f 93       	push	r16
    342a:	1f 93       	push	r17
    342c:	7b 01       	movw	r14, r22
    342e:	8c 01       	movw	r16, r24
	if (mDuty<0) mDuty = -mDuty;
    3430:	20 e0       	ldi	r18, 0x00	; 0
    3432:	30 e0       	ldi	r19, 0x00	; 0
    3434:	a9 01       	movw	r20, r18
    3436:	0e 94 54 20 	call	0x40a8	; 0x40a8 <__ltsf2>
    343a:	87 ff       	sbrs	r24, 7
    343c:	04 c0       	rjmp	.+8      	; 0x3446 <_Z9set_dutyBf+0x22>
    343e:	17 fb       	bst	r17, 7
    3440:	10 95       	com	r17
    3442:	17 f9       	bld	r17, 7
    3444:	10 95       	com	r17
	word counts = ceil( (float)TOP * mDuty );
    3446:	60 91 13 01 	lds	r22, 0x0113
    344a:	70 91 14 01 	lds	r23, 0x0114
    344e:	80 e0       	ldi	r24, 0x00	; 0
    3450:	90 e0       	ldi	r25, 0x00	; 0
    3452:	0e 94 36 21 	call	0x426c	; 0x426c <__floatunsisf>
    3456:	a8 01       	movw	r20, r16
    3458:	97 01       	movw	r18, r14
    345a:	0e 94 4c 1e 	call	0x3c98	; 0x3c98 <__mulsf3>
    345e:	0e 94 32 24 	call	0x4864	; 0x4864 <ceil>
    3462:	0e 94 78 1c 	call	0x38f0	; 0x38f0 <__fixunssfsi>

/* This is proper way to write to the 16 bit register! */
void OCR1B_Write( unsigned int i ) 
{
	unsigned char sreg;
	sreg = SREG;	/* Save global interrupt flag */ 
    3466:	8f b7       	in	r24, 0x3f	; 63
	cli();			/* Disable interrupts */
    3468:	f8 94       	cli
	OCR1B = i;		/* Set TCNTn to i     */
    346a:	70 93 8b 00 	sts	0x008B, r23
    346e:	60 93 8a 00 	sts	0x008A, r22
	SREG = sreg;	/* Restore global interrupt flag */ 
    3472:	8f bf       	out	0x3f, r24	; 63
void set_dutyB( float mDuty )
{
	if (mDuty<0) mDuty = -mDuty;
	word counts = ceil( (float)TOP * mDuty );
	OCR1B_Write( counts );
}
    3474:	1f 91       	pop	r17
    3476:	0f 91       	pop	r16
    3478:	ff 90       	pop	r15
    347a:	ef 90       	pop	r14
    347c:	08 95       	ret

0000347e <_Z5delayl>:


// Use volatile so that the compiler wont optimize the delay loop out
volatile long int time_delay = 0;
void delay( long int mdelay )
{
    347e:	9b 01       	movw	r18, r22
    3480:	ac 01       	movw	r20, r24
 	 for (time_delay=0; time_delay<mdelay; time_delay++) {  };
    3482:	10 92 33 03 	sts	0x0333, r1
    3486:	10 92 34 03 	sts	0x0334, r1
    348a:	10 92 35 03 	sts	0x0335, r1
    348e:	10 92 36 03 	sts	0x0336, r1
    3492:	80 91 33 03 	lds	r24, 0x0333
    3496:	90 91 34 03 	lds	r25, 0x0334
    349a:	a0 91 35 03 	lds	r26, 0x0335
    349e:	b0 91 36 03 	lds	r27, 0x0336
    34a2:	82 17       	cp	r24, r18
    34a4:	93 07       	cpc	r25, r19
    34a6:	a4 07       	cpc	r26, r20
    34a8:	b5 07       	cpc	r27, r21
    34aa:	04 f5       	brge	.+64     	; 0x34ec <_Z5delayl+0x6e>
    34ac:	80 91 33 03 	lds	r24, 0x0333
    34b0:	90 91 34 03 	lds	r25, 0x0334
    34b4:	a0 91 35 03 	lds	r26, 0x0335
    34b8:	b0 91 36 03 	lds	r27, 0x0336
    34bc:	01 96       	adiw	r24, 0x01	; 1
    34be:	a1 1d       	adc	r26, r1
    34c0:	b1 1d       	adc	r27, r1
    34c2:	80 93 33 03 	sts	0x0333, r24
    34c6:	90 93 34 03 	sts	0x0334, r25
    34ca:	a0 93 35 03 	sts	0x0335, r26
    34ce:	b0 93 36 03 	sts	0x0336, r27
    34d2:	80 91 33 03 	lds	r24, 0x0333
    34d6:	90 91 34 03 	lds	r25, 0x0334
    34da:	a0 91 35 03 	lds	r26, 0x0335
    34de:	b0 91 36 03 	lds	r27, 0x0336
    34e2:	82 17       	cp	r24, r18
    34e4:	93 07       	cpc	r25, r19
    34e6:	a4 07       	cpc	r26, r20
    34e8:	b5 07       	cpc	r27, r21
    34ea:	04 f3       	brlt	.-64     	; 0x34ac <_Z5delayl+0x2e>
    34ec:	08 95       	ret

000034ee <_Z9chip_initv>:
// Note - May want to set the CKDIV8 fuse if MCU is only supposed to run
// at 8MHz so as not to exceed its operating conditions at startup.
//   CLKPR = ( 1 << CLKPCE );       // Set Clock Prescaler change enable
//   CLKPR = 0x01;            		// Clock Division Factor of 2
// Note - CLKPR must be written within 4 clock cycles of setting CLKPCE
   DDRB = 0xFF;    // PORT B to be outputs for LED monotoring
    34ee:	8f ef       	ldi	r24, 0xFF	; 255
    34f0:	84 b9       	out	0x04, r24	; 4
   DDRC = 0x00;    // Inputs, not used
    34f2:	17 b8       	out	0x07, r1	; 7
   DDRE = 0x00;    // Inputs, not used
    34f4:	1d b8       	out	0x0d, r1	; 13
   PORTB = 0xFE;   // ALL LEDs OFF
    34f6:	8e ef       	ldi	r24, 0xFE	; 254
    34f8:	85 b9       	out	0x05, r24	; 5
   PORTC = 0x00;   // Inputs, not used
    34fa:	18 b8       	out	0x08, r1	; 8
   PORTD = 0x00;   // Inputs, not used
    34fc:	1b b8       	out	0x0b, r1	; 11
   PORTE = 0x00;   // Inputs, not used
    34fe:	1e b8       	out	0x0e, r1	; 14
   PRR   = 0x00;   // Individual peripheral clocks enabled
    3500:	10 92 64 00 	sts	0x0064, r1
}
    3504:	08 95       	ret

00003506 <_Z11OS_InitTaskv>:
	*/
	
	/* We want to use Clear Timer on Compare (CTC mode)		*/
	/* COM0A0 and COM0A1 are put into "disconnected" mode.	*/
	/* COM0B0 and COM0B1 are put into "disconnected" mode.	*/
	TCCR0A = 0x02;		// CTC;  OCRA will hold TOP;
    3506:	82 e0       	ldi	r24, 0x02	; 2
    3508:	84 bd       	out	0x24, r24	; 36
	TCCR0B = 0x03;		// use f/64
    350a:	93 e0       	ldi	r25, 0x03	; 3
    350c:	95 bd       	out	0x25, r25	; 37
	OCR0A = 250;		// 1 ms 
    350e:	9a ef       	ldi	r25, 0xFA	; 250
    3510:	97 bd       	out	0x27, r25	; 39
	TIMSK0 = 0x02;		// Enable OCR0A
    3512:	80 93 6e 00 	sts	0x006E, r24
	
	OS_Event_TIC_Counter = 0;	// counts # of ms
    3516:	10 92 3a 03 	sts	0x033A, r1
    351a:	10 92 39 03 	sts	0x0339, r1
	/******************* PERIPHERAL INIT  ********************/
	/******************* APPLICATION INIT ********************/

	// Look for serial idle:	
	//Enter_HS_Mode();
}
    351e:	08 95       	ret

00003520 <_Z13Enter_HS_Modev>:

void Enter_HS_Mode()
{
	OS_HighSpeedSampling = TRUE;
    3520:	81 e0       	ldi	r24, 0x01	; 1
    3522:	80 93 3d 03 	sts	0x033D, r24
}
    3526:	08 95       	ret

00003528 <_Z17Enter_Normal_Modev>:
void Enter_Normal_Mode()
{
	OS_HighSpeedSampling = FALSE;
    3528:	10 92 3d 03 	sts	0x033D, r1
}
    352c:	08 95       	ret

0000352e <_Z15System_Dispatchv>:

/* Use this dispatch for all core timing functionality */
void System_Dispatch()
{	
	if ((OS_Event_TIC_Counter % 5) == 0) 	// 10ms tasks
    352e:	20 91 39 03 	lds	r18, 0x0339
    3532:	30 91 3a 03 	lds	r19, 0x033A
    3536:	c9 01       	movw	r24, r18
    3538:	65 e0       	ldi	r22, 0x05	; 5
    353a:	70 e0       	ldi	r23, 0x00	; 0
    353c:	0e 94 ab 23 	call	0x4756	; 0x4756 <__divmodhi4>
    3540:	00 97       	sbiw	r24, 0x00	; 0
    3542:	39 f4       	brne	.+14     	; 0x3552 <_Z15System_Dispatchv+0x24>
	{
		if ((OS_Event_TIC_Counter % 10) == 0) 	// 10ms tasks
    3544:	c9 01       	movw	r24, r18
    3546:	6a e0       	ldi	r22, 0x0A	; 10
    3548:	70 e0       	ldi	r23, 0x00	; 0
    354a:	0e 94 ab 23 	call	0x4756	; 0x4756 <__divmodhi4>
    354e:	00 97       	sbiw	r24, 0x00	; 0
    3550:	09 f0       	breq	.+2      	; 0x3554 <_Z15System_Dispatchv+0x26>
    3552:	08 95       	ret
		{
			can_instance_timeslice();
    3554:	0e 94 4a 13 	call	0x2694	; 0x2694 <_Z22can_instance_timeslicev>
			if ((OS_Event_TIC_Counter % 20) == 0)	// 20ms tasks
    3558:	80 91 39 03 	lds	r24, 0x0339
    355c:	90 91 3a 03 	lds	r25, 0x033A
    3560:	64 e1       	ldi	r22, 0x14	; 20
    3562:	70 e0       	ldi	r23, 0x00	; 0
    3564:	0e 94 ab 23 	call	0x4756	; 0x4756 <__divmodhi4>
    3568:	00 97       	sbiw	r24, 0x00	; 0
    356a:	99 f7       	brne	.-26     	; 0x3552 <_Z15System_Dispatchv+0x24>
			{	
				can_board_timeslice();
    356c:	0e 94 e8 14 	call	0x29d0	; 0x29d0 <_Z19can_board_timeslicev>
				if ((OS_Event_TIC_Counter % 50) == 0)	// 50ms tasks
    3570:	80 91 39 03 	lds	r24, 0x0339
    3574:	90 91 3a 03 	lds	r25, 0x033A
    3578:	62 e3       	ldi	r22, 0x32	; 50
    357a:	70 e0       	ldi	r23, 0x00	; 0
    357c:	0e 94 ab 23 	call	0x4756	; 0x4756 <__divmodhi4>
    3580:	00 97       	sbiw	r24, 0x00	; 0
    3582:	39 f7       	brne	.-50     	; 0x3552 <_Z15System_Dispatchv+0x24>
				{
					led_timeslice_100ms();
    3584:	0e 94 4f 18 	call	0x309e	; 0x309e <_Z19led_timeslice_100msv>
    3588:	08 95       	ret

0000358a <__vector_15>:
TIMER0_COMPA_vect
TIMER0_COMPB_vect
TIMER0_OVF_vect
******************************************************************************/
ISR( TIMER0_COMPA_vect )
{
    358a:	1f 92       	push	r1
    358c:	0f 92       	push	r0
    358e:	0f b6       	in	r0, 0x3f	; 63
    3590:	0f 92       	push	r0
    3592:	11 24       	eor	r1, r1
    3594:	2f 93       	push	r18
    3596:	3f 93       	push	r19
    3598:	4f 93       	push	r20
    359a:	5f 93       	push	r21
    359c:	6f 93       	push	r22
    359e:	7f 93       	push	r23
    35a0:	8f 93       	push	r24
    35a2:	9f 93       	push	r25
    35a4:	af 93       	push	r26
    35a6:	bf 93       	push	r27
    35a8:	ef 93       	push	r30
    35aa:	ff 93       	push	r31
	// the OCF0A flag is automatically cleared by executing this ISR.
	
	// toggle bit used for debug (set an output led to show we're running).
	static byte t =0;
	if (t) t=0; else t=1;		
    35ac:	80 91 3e 03 	lds	r24, 0x033E
    35b0:	88 23       	and	r24, r24
    35b2:	41 f1       	breq	.+80     	; 0x3604 <__vector_15+0x7a>
    35b4:	10 92 3e 03 	sts	0x033E, r1

	//cli():
	// OTHER INTERRUPTS SHOULD BE DISABLED DURING THIS MODE !!
	if (OS_HighSpeedSampling)				// 0.1ms tick
    35b8:	80 91 3d 03 	lds	r24, 0x033D
    35bc:	88 23       	and	r24, r24
    35be:	49 f1       	breq	.+82     	; 0x3612 <__vector_15+0x88>
	{
		// call RF check for silence inline routine
		//RF_SilenceCheck();
		if ((OS_Event_HSTIC_Counter++ % 10) == 0)
    35c0:	80 91 37 03 	lds	r24, 0x0337
    35c4:	90 91 38 03 	lds	r25, 0x0338
    35c8:	9c 01       	movw	r18, r24
    35ca:	2f 5f       	subi	r18, 0xFF	; 255
    35cc:	3f 4f       	sbci	r19, 0xFF	; 255
    35ce:	30 93 38 03 	sts	0x0338, r19
    35d2:	20 93 37 03 	sts	0x0337, r18
    35d6:	6a e0       	ldi	r22, 0x0A	; 10
    35d8:	70 e0       	ldi	r23, 0x00	; 0
    35da:	0e 94 97 23 	call	0x472e	; 0x472e <__udivmodhi4>
    35de:	00 97       	sbiw	r24, 0x00	; 0
    35e0:	31 f1       	breq	.+76     	; 0x362e <__vector_15+0xa4>
		System_Dispatch();
		OS_Dispatch();
	}
	//if (OS_Event_TIC_Counter == 999)	// after 1 second
    //		OS_Event_TIC_Counter = 0;		// start over
}
    35e2:	ff 91       	pop	r31
    35e4:	ef 91       	pop	r30
    35e6:	bf 91       	pop	r27
    35e8:	af 91       	pop	r26
    35ea:	9f 91       	pop	r25
    35ec:	8f 91       	pop	r24
    35ee:	7f 91       	pop	r23
    35f0:	6f 91       	pop	r22
    35f2:	5f 91       	pop	r21
    35f4:	4f 91       	pop	r20
    35f6:	3f 91       	pop	r19
    35f8:	2f 91       	pop	r18
    35fa:	0f 90       	pop	r0
    35fc:	0f be       	out	0x3f, r0	; 63
    35fe:	0f 90       	pop	r0
    3600:	1f 90       	pop	r1
    3602:	18 95       	reti
{
	// the OCF0A flag is automatically cleared by executing this ISR.
	
	// toggle bit used for debug (set an output led to show we're running).
	static byte t =0;
	if (t) t=0; else t=1;		
    3604:	81 e0       	ldi	r24, 0x01	; 1
    3606:	80 93 3e 03 	sts	0x033E, r24

	//cli():
	// OTHER INTERRUPTS SHOULD BE DISABLED DURING THIS MODE !!
	if (OS_HighSpeedSampling)				// 0.1ms tick
    360a:	80 91 3d 03 	lds	r24, 0x033D
    360e:	88 23       	and	r24, r24
    3610:	b9 f6       	brne	.-82     	; 0x35c0 <__vector_15+0x36>
			OS_Dispatch();
		}
	}
	else								// 1ms tick
	{
		OS_Event_TIC_Counter++;
    3612:	80 91 39 03 	lds	r24, 0x0339
    3616:	90 91 3a 03 	lds	r25, 0x033A
    361a:	01 96       	adiw	r24, 0x01	; 1
    361c:	90 93 3a 03 	sts	0x033A, r25
    3620:	80 93 39 03 	sts	0x0339, r24
		System_Dispatch();
    3624:	0e 94 97 1a 	call	0x352e	; 0x352e <_Z15System_Dispatchv>
		OS_Dispatch();
    3628:	0e 94 80 0d 	call	0x1b00	; 0x1b00 <_Z11OS_Dispatchv>
    362c:	da cf       	rjmp	.-76     	; 0x35e2 <__vector_15+0x58>
	{
		// call RF check for silence inline routine
		//RF_SilenceCheck();
		if ((OS_Event_HSTIC_Counter++ % 10) == 0)
		{
			OS_Event_HSTIC_Counter = 0;
    362e:	10 92 38 03 	sts	0x0338, r1
    3632:	10 92 37 03 	sts	0x0337, r1
			OS_Event_TIC_Counter++;
    3636:	80 91 39 03 	lds	r24, 0x0339
    363a:	90 91 3a 03 	lds	r25, 0x033A
    363e:	01 96       	adiw	r24, 0x01	; 1
    3640:	90 93 3a 03 	sts	0x033A, r25
    3644:	80 93 39 03 	sts	0x0339, r24
			OS_Dispatch();
    3648:	0e 94 80 0d 	call	0x1b00	; 0x1b00 <_Z11OS_Dispatchv>
    364c:	ca cf       	rjmp	.-108    	; 0x35e2 <__vector_15+0x58>

0000364e <_Z11OS_tmr_initv>:
	*/
	
	/* We want to use Clear Timer on Compare (CTC mode)		*/
	/* COM0A0 and COM0A1 are put into "disconnected" mode.	*/
	/* COM0B0 and COM0B1 are put into "disconnected" mode.	*/
	TCCR0A = 0x02;		// CTC;  OCRA will hold TOP;
    364e:	82 e0       	ldi	r24, 0x02	; 2
    3650:	84 bd       	out	0x24, r24	; 36
	TCCR0B = 0x03;		// use f/64
    3652:	93 e0       	ldi	r25, 0x03	; 3
    3654:	95 bd       	out	0x25, r25	; 37
	OCR0A = 250;		// 1 ms 
    3656:	9a ef       	ldi	r25, 0xFA	; 250
    3658:	97 bd       	out	0x27, r25	; 39
	TIMSK0 = 0x02;		// Enable OCR0A
    365a:	80 93 6e 00 	sts	0x006E, r24
	
	OS_Event_TIC_Counter = 0;	// counts # of ms
    365e:	10 92 3a 03 	sts	0x033A, r1
    3662:	10 92 39 03 	sts	0x0339, r1
}
    3666:	08 95       	ret

00003668 <_Z27can_parse_configure_requestP4sCAN>:
Return	:	The module configuration bytes
Also want to save:  Current thresholds.
Report DTCs (overtemperature, over voltage)
***********************************************/
void can_parse_configure_request( sCAN* mMsg )
{
    3668:	fc 01       	movw	r30, r24
	byte index  =  mMsg->data[0];	// which config_x byte
	byte mask   =  mMsg->data[1];	// mask (which bits are changing)
    366a:	96 81       	ldd	r25, Z+6	; 0x06
	byte value  =  mMsg->data[2];	// new values 
    366c:	27 81       	ldd	r18, Z+7	; 0x07
	switch (index)					// alternatively could make config_bytes[4] an array
    366e:	85 81       	ldd	r24, Z+5	; 0x05
    3670:	82 30       	cpi	r24, 0x02	; 2
    3672:	d9 f0       	breq	.+54     	; 0x36aa <_Z27can_parse_configure_requestP4sCAN+0x42>
    3674:	83 30       	cpi	r24, 0x03	; 3
    3676:	71 f0       	breq	.+28     	; 0x3694 <_Z27can_parse_configure_requestP4sCAN+0x2c>
    3678:	81 30       	cpi	r24, 0x01	; 1
    367a:	09 f0       	breq	.+2      	; 0x367e <_Z27can_parse_configure_requestP4sCAN+0x16>
    367c:	08 95       	ret
	{
		case 1 : config_byte_1 |=  (mask & value);
				 config_byte_1 &= ~(mask & (~value));
    367e:	89 2f       	mov	r24, r25
    3680:	80 95       	com	r24
    3682:	82 2b       	or	r24, r18
	byte index  =  mMsg->data[0];	// which config_x byte
	byte mask   =  mMsg->data[1];	// mask (which bits are changing)
	byte value  =  mMsg->data[2];	// new values 
	switch (index)					// alternatively could make config_bytes[4] an array
	{
		case 1 : config_byte_1 |=  (mask & value);
    3684:	92 23       	and	r25, r18
    3686:	20 91 3f 03 	lds	r18, 0x033F
    368a:	92 2b       	or	r25, r18
				 config_byte_1 &= ~(mask & (~value));
    368c:	89 23       	and	r24, r25
    368e:	80 93 3f 03 	sts	0x033F, r24
				 break;
    3692:	08 95       	ret
		case 2 : config_byte_2 |=  (mask & value);
				 config_byte_2 &= ~(mask & (~value));
				 break;
		case 3 : config_byte_3 |=  (mask & value);
				 config_byte_3 &= ~(mask & (~value));
    3694:	89 2f       	mov	r24, r25
    3696:	80 95       	com	r24
    3698:	82 2b       	or	r24, r18
				 config_byte_1 &= ~(mask & (~value));
				 break;
		case 2 : config_byte_2 |=  (mask & value);
				 config_byte_2 &= ~(mask & (~value));
				 break;
		case 3 : config_byte_3 |=  (mask & value);
    369a:	92 23       	and	r25, r18
    369c:	20 91 41 03 	lds	r18, 0x0341
    36a0:	92 2b       	or	r25, r18
				 config_byte_3 &= ~(mask & (~value));
    36a2:	89 23       	and	r24, r25
    36a4:	80 93 41 03 	sts	0x0341, r24
    36a8:	08 95       	ret
	{
		case 1 : config_byte_1 |=  (mask & value);
				 config_byte_1 &= ~(mask & (~value));
				 break;
		case 2 : config_byte_2 |=  (mask & value);
				 config_byte_2 &= ~(mask & (~value));
    36aa:	89 2f       	mov	r24, r25
    36ac:	80 95       	com	r24
    36ae:	82 2b       	or	r24, r18
	switch (index)					// alternatively could make config_bytes[4] an array
	{
		case 1 : config_byte_1 |=  (mask & value);
				 config_byte_1 &= ~(mask & (~value));
				 break;
		case 2 : config_byte_2 |=  (mask & value);
    36b0:	92 23       	and	r25, r18
    36b2:	20 91 40 03 	lds	r18, 0x0340
    36b6:	92 2b       	or	r25, r18
				 config_byte_2 &= ~(mask & (~value));
    36b8:	89 23       	and	r24, r25
    36ba:	80 93 40 03 	sts	0x0340, r24
				 break;
    36be:	08 95       	ret

000036c0 <_Z21default_configurationv>:
}

/* Set the config_byte_n bytes to default first time the board is run. CAN_NEW_BOARD */
void default_configuration()
{
	config_byte_1 = 0;
    36c0:	10 92 3f 03 	sts	0x033F, r1
	config_byte_2 = 0;		// no reports
    36c4:	10 92 40 03 	sts	0x0340, r1
	config_byte_3 = 0;		// 
    36c8:	10 92 41 03 	sts	0x0341, r1
	config_byte_4 = (CAN_BAUD_250K | NORMAL_HISTORY_OP_MODE);	
    36cc:	82 e4       	ldi	r24, 0x42	; 66
    36ce:	80 93 42 03 	sts	0x0342, r24

	// Make sure CAN_NEW_BOARD goes to one!
	// BECAUSE read_configuration_eeprom() reads with a ~
	// the CAN_NEW_BOARD will be a 0 after reflash
	// ALSO SAVED with a ~, so to make as a not new board, 
	init_complete    = FALSE;
    36d2:	10 92 c4 02 	sts	0x02C4, r1
	sys_config_byte |= CAN_NEW_BOARD;		// means no longer new board
    36d6:	80 91 43 03 	lds	r24, 0x0343
    36da:	81 60       	ori	r24, 0x01	; 1
    36dc:	80 93 43 03 	sts	0x0343, r24
	Confirmed        = NOT_CLAIMED; 		// will force MyInstance to init
    36e0:	10 92 c3 02 	sts	0x02C3, r1
	MyInstance 		 = 0x98;
    36e4:	88 e9       	ldi	r24, 0x98	; 152
    36e6:	80 93 c2 02 	sts	0x02C2, r24

	//led_on(4);
}
    36ea:	08 95       	ret

000036ec <_Z11config_initv>:
inline byte isSysConfigured(byte Test)	{  return ((sys_config_byte & Test)>0); };
    36ec:	80 91 43 03 	lds	r24, 0x0343
							// and b/c it's better the user knows when it's read.
	//led_off(4);
	
	// BECAUSE read_configuration_eeprom() reads with a ~, 
	// The CAN_NEW_BOARD bit will be a 0 after reflash (~1)
	if (isSysConfigured(CAN_NEW_BOARD)==FALSE)		// Active Low
    36f0:	80 fd       	sbrc	r24, 0
    36f2:	08 95       	ret
	{												// First time this board has run!
		default_configuration();					// For the core modules (see above)
    36f4:	0e 94 60 1b 	call	0x36c0	; 0x36c0 <_Z21default_configurationv>
		app_default_configuration();				// For application (board specific config) ie motor boards need stops
    36f8:	0e 94 2a 06 	call	0xc54	; 0xc54 <_Z25app_default_configurationv>
    36fc:	08 95       	ret

000036fe <_Z20save_instance_numberPh>:
save_instance_number()
Return	:	The instance number within the network
**************************************************/
byte* save_instance_number( byte* mEEPROMAddress )
{
    eeprom_write_byte( (unsigned char*)mEEPROMAddress,   MyInstance );
    36fe:	20 91 c2 02 	lds	r18, 0x02C2
/** \ingroup avr_eeprom
    Write a byte \a __value to EEPROM address \a __p.
 */
static __inline__ void eeprom_write_byte (uint8_t *__p, uint8_t __value)
{
    do {} while (!eeprom_is_ready ());
    3702:	f9 99       	sbic	0x1f, 1	; 31
    3704:	fe cf       	rjmp	.-4      	; 0x3702 <_Z20save_instance_numberPh+0x4>

#if	defined(EEPM0) && defined(EEPM1)
    EECR = 0;		/* Set programming mode: erase and write.	*/
    3706:	1f ba       	out	0x1f, r1	; 31
#endif

#if	E2END <= 0xFF
    EEARL = (unsigned)__p;
#else
    EEAR = (unsigned)__p;
    3708:	92 bd       	out	0x22, r25	; 34
    370a:	81 bd       	out	0x21, r24	; 33
#endif
    EEDR = __value;
    370c:	20 bd       	out	0x20, r18	; 32
        : [__eecr]  "i" (_SFR_IO_ADDR(EECR)),
          [__sreg]  "i" (_SFR_IO_ADDR(SREG)),
          [__eemwe] "i" (EEMWE),
          [__eewe]  "i" (EEWE)
        : "r0"
    );
    370e:	0f b6       	in	r0, 0x3f	; 63
    3710:	f8 94       	cli
    3712:	fa 9a       	sbi	0x1f, 2	; 31
    3714:	f9 9a       	sbi	0x1f, 1	; 31
    3716:	0f be       	out	0x3f, r0	; 63
    return mEEPROMAddress+1;
    3718:	9c 01       	movw	r18, r24
    371a:	2f 5f       	subi	r18, 0xFF	; 255
    371c:	3f 4f       	sbci	r19, 0xFF	; 255
}
    371e:	c9 01       	movw	r24, r18
    3720:	08 95       	ret

00003722 <_Z20read_instance_numberPh>:
/** \ingroup avr_eeprom
    Read one byte from EEPROM address \a __p.
 */
__ATTR_PURE__ static __inline__ uint8_t eeprom_read_byte (const uint8_t *__p)
{
    do {} while (!eeprom_is_ready ());
    3722:	f9 99       	sbic	0x1f, 1	; 31
    3724:	fe cf       	rjmp	.-4      	; 0x3722 <_Z20read_instance_numberPh>
#if E2END <= 0xFF
    EEARL = (uint8_t)(uint16_t)__p;
#else
    EEAR = (uint16_t)__p;
    3726:	92 bd       	out	0x22, r25	; 34
    3728:	81 bd       	out	0x21, r24	; 33
        "/* END EEPROM READ CRITICAL SECTION */ \n\t"
        : "=r" (__result)
        : "i" (_SFR_IO_ADDR(EECR)),
          "i" (EERE),
          "i" (_SFR_IO_ADDR(EEDR))
    );
    372a:	f8 9a       	sbi	0x1f, 0	; 31
    372c:	20 b5       	in	r18, 0x20	; 32
byte* read_instance_number(byte* mEEPROMAddress)
{
    MyInstance = eeprom_read_byte( (unsigned char*)mEEPROMAddress );
    372e:	20 93 c2 02 	sts	0x02C2, r18
    return mEEPROMAddress+1;    
    3732:	9c 01       	movw	r18, r24
    3734:	2f 5f       	subi	r18, 0xFF	; 255
    3736:	3f 4f       	sbci	r19, 0xFF	; 255
}
    3738:	c9 01       	movw	r24, r18
    373a:	08 95       	ret

0000373c <_Z21save_confirmed_statusPh>:
byte* save_confirmed_status(byte* mEEPROMAddress)
{
	//Confirmed = ~Confirmed;  	// flip all bits b/c after erase, 0xFF.
	// NO, don't do the flip b/c we have the config_init() routine now
	// which is done 1 time after reflash (uses 1 bit in config_byte_4)
    eeprom_write_byte( (unsigned char*)mEEPROMAddress, Confirmed  );
    373c:	20 91 c3 02 	lds	r18, 0x02C3
/** \ingroup avr_eeprom
    Write a byte \a __value to EEPROM address \a __p.
 */
static __inline__ void eeprom_write_byte (uint8_t *__p, uint8_t __value)
{
    do {} while (!eeprom_is_ready ());
    3740:	f9 99       	sbic	0x1f, 1	; 31
    3742:	fe cf       	rjmp	.-4      	; 0x3740 <_Z21save_confirmed_statusPh+0x4>

#if	defined(EEPM0) && defined(EEPM1)
    EECR = 0;		/* Set programming mode: erase and write.	*/
    3744:	1f ba       	out	0x1f, r1	; 31
#endif

#if	E2END <= 0xFF
    EEARL = (unsigned)__p;
#else
    EEAR = (unsigned)__p;
    3746:	92 bd       	out	0x22, r25	; 34
    3748:	81 bd       	out	0x21, r24	; 33
#endif
    EEDR = __value;
    374a:	20 bd       	out	0x20, r18	; 32
        : [__eecr]  "i" (_SFR_IO_ADDR(EECR)),
          [__sreg]  "i" (_SFR_IO_ADDR(SREG)),
          [__eemwe] "i" (EEMWE),
          [__eewe]  "i" (EEWE)
        : "r0"
    );
    374c:	0f b6       	in	r0, 0x3f	; 63
    374e:	f8 94       	cli
    3750:	fa 9a       	sbi	0x1f, 2	; 31
    3752:	f9 9a       	sbi	0x1f, 1	; 31
    3754:	0f be       	out	0x3f, r0	; 63
    return mEEPROMAddress+1;
    3756:	9c 01       	movw	r18, r24
    3758:	2f 5f       	subi	r18, 0xFF	; 255
    375a:	3f 4f       	sbci	r19, 0xFF	; 255
}
    375c:	c9 01       	movw	r24, r18
    375e:	08 95       	ret

00003760 <_Z21read_confirmed_statusPh>:
/** \ingroup avr_eeprom
    Read one byte from EEPROM address \a __p.
 */
__ATTR_PURE__ static __inline__ uint8_t eeprom_read_byte (const uint8_t *__p)
{
    do {} while (!eeprom_is_ready ());
    3760:	f9 99       	sbic	0x1f, 1	; 31
    3762:	fe cf       	rjmp	.-4      	; 0x3760 <_Z21read_confirmed_statusPh>
#if E2END <= 0xFF
    EEARL = (uint8_t)(uint16_t)__p;
#else
    EEAR = (uint16_t)__p;
    3764:	92 bd       	out	0x22, r25	; 34
    3766:	81 bd       	out	0x21, r24	; 33
        "/* END EEPROM READ CRITICAL SECTION */ \n\t"
        : "=r" (__result)
        : "i" (_SFR_IO_ADDR(EECR)),
          "i" (EERE),
          "i" (_SFR_IO_ADDR(EEDR))
    );
    3768:	f8 9a       	sbi	0x1f, 0	; 31
    376a:	20 b5       	in	r18, 0x20	; 32
byte* read_confirmed_status(byte* mEEPROMAddress)
{
    Confirmed  = eeprom_read_byte( (unsigned char*)mEEPROMAddress );
    376c:	20 93 c3 02 	sts	0x02C3, r18
    return mEEPROMAddress+1;
    3770:	9c 01       	movw	r18, r24
    3772:	2f 5f       	subi	r18, 0xFF	; 255
    3774:	3f 4f       	sbci	r19, 0xFF	; 255
}
    3776:	c9 01       	movw	r24, r18
    3778:	08 95       	ret

0000377a <_Z25save_configuration_eepromPh>:
Report DTCs (overtemperature, over voltage)
***********************************************/
byte* save_configuration_eeprom(byte* addr)
{
	byte* address = addr;
	eeprom_write_byte( addr++, ~config_byte_1 );
    377a:	9c 01       	movw	r18, r24
    377c:	2f 5f       	subi	r18, 0xFF	; 255
    377e:	3f 4f       	sbci	r19, 0xFF	; 255
    3780:	40 91 3f 03 	lds	r20, 0x033F
    3784:	40 95       	com	r20
/** \ingroup avr_eeprom
    Write a byte \a __value to EEPROM address \a __p.
 */
static __inline__ void eeprom_write_byte (uint8_t *__p, uint8_t __value)
{
    do {} while (!eeprom_is_ready ());
    3786:	f9 99       	sbic	0x1f, 1	; 31
    3788:	fe cf       	rjmp	.-4      	; 0x3786 <_Z25save_configuration_eepromPh+0xc>

#if	defined(EEPM0) && defined(EEPM1)
    EECR = 0;		/* Set programming mode: erase and write.	*/
    378a:	1f ba       	out	0x1f, r1	; 31
#endif

#if	E2END <= 0xFF
    EEARL = (unsigned)__p;
#else
    EEAR = (unsigned)__p;
    378c:	92 bd       	out	0x22, r25	; 34
    378e:	81 bd       	out	0x21, r24	; 33
#endif
    EEDR = __value;
    3790:	40 bd       	out	0x20, r20	; 32
        : [__eecr]  "i" (_SFR_IO_ADDR(EECR)),
          [__sreg]  "i" (_SFR_IO_ADDR(SREG)),
          [__eemwe] "i" (EEMWE),
          [__eewe]  "i" (EEWE)
        : "r0"
    );
    3792:	0f b6       	in	r0, 0x3f	; 63
    3794:	f8 94       	cli
    3796:	fa 9a       	sbi	0x1f, 2	; 31
    3798:	f9 9a       	sbi	0x1f, 1	; 31
    379a:	0f be       	out	0x3f, r0	; 63
	eeprom_write_byte( addr++, ~config_byte_2 );	
    379c:	c9 01       	movw	r24, r18
    379e:	01 96       	adiw	r24, 0x01	; 1
    37a0:	40 91 40 03 	lds	r20, 0x0340
    37a4:	40 95       	com	r20
/** \ingroup avr_eeprom
    Write a byte \a __value to EEPROM address \a __p.
 */
static __inline__ void eeprom_write_byte (uint8_t *__p, uint8_t __value)
{
    do {} while (!eeprom_is_ready ());
    37a6:	f9 99       	sbic	0x1f, 1	; 31
    37a8:	fe cf       	rjmp	.-4      	; 0x37a6 <_Z25save_configuration_eepromPh+0x2c>

#if	defined(EEPM0) && defined(EEPM1)
    EECR = 0;		/* Set programming mode: erase and write.	*/
    37aa:	1f ba       	out	0x1f, r1	; 31
#endif

#if	E2END <= 0xFF
    EEARL = (unsigned)__p;
#else
    EEAR = (unsigned)__p;
    37ac:	32 bd       	out	0x22, r19	; 34
    37ae:	21 bd       	out	0x21, r18	; 33
#endif
    EEDR = __value;
    37b0:	40 bd       	out	0x20, r20	; 32
        : [__eecr]  "i" (_SFR_IO_ADDR(EECR)),
          [__sreg]  "i" (_SFR_IO_ADDR(SREG)),
          [__eemwe] "i" (EEMWE),
          [__eewe]  "i" (EEWE)
        : "r0"
    );
    37b2:	0f b6       	in	r0, 0x3f	; 63
    37b4:	f8 94       	cli
    37b6:	fa 9a       	sbi	0x1f, 2	; 31
    37b8:	f9 9a       	sbi	0x1f, 1	; 31
    37ba:	0f be       	out	0x3f, r0	; 63
	eeprom_write_byte( addr++, ~config_byte_3 );	
    37bc:	9c 01       	movw	r18, r24
    37be:	2f 5f       	subi	r18, 0xFF	; 255
    37c0:	3f 4f       	sbci	r19, 0xFF	; 255
    37c2:	40 91 41 03 	lds	r20, 0x0341
    37c6:	40 95       	com	r20
/** \ingroup avr_eeprom
    Write a byte \a __value to EEPROM address \a __p.
 */
static __inline__ void eeprom_write_byte (uint8_t *__p, uint8_t __value)
{
    do {} while (!eeprom_is_ready ());
    37c8:	f9 99       	sbic	0x1f, 1	; 31
    37ca:	fe cf       	rjmp	.-4      	; 0x37c8 <_Z25save_configuration_eepromPh+0x4e>

#if	defined(EEPM0) && defined(EEPM1)
    EECR = 0;		/* Set programming mode: erase and write.	*/
    37cc:	1f ba       	out	0x1f, r1	; 31
#endif

#if	E2END <= 0xFF
    EEARL = (unsigned)__p;
#else
    EEAR = (unsigned)__p;
    37ce:	92 bd       	out	0x22, r25	; 34
    37d0:	81 bd       	out	0x21, r24	; 33
#endif
    EEDR = __value;
    37d2:	40 bd       	out	0x20, r20	; 32
        : [__eecr]  "i" (_SFR_IO_ADDR(EECR)),
          [__sreg]  "i" (_SFR_IO_ADDR(SREG)),
          [__eemwe] "i" (EEMWE),
          [__eewe]  "i" (EEWE)
        : "r0"
    );
    37d4:	0f b6       	in	r0, 0x3f	; 63
    37d6:	f8 94       	cli
    37d8:	fa 9a       	sbi	0x1f, 2	; 31
    37da:	f9 9a       	sbi	0x1f, 1	; 31
    37dc:	0f be       	out	0x3f, r0	; 63
	eeprom_write_byte( addr++, ~config_byte_4 );
    37de:	c9 01       	movw	r24, r18
    37e0:	01 96       	adiw	r24, 0x01	; 1
    37e2:	40 91 42 03 	lds	r20, 0x0342
    37e6:	40 95       	com	r20
/** \ingroup avr_eeprom
    Write a byte \a __value to EEPROM address \a __p.
 */
static __inline__ void eeprom_write_byte (uint8_t *__p, uint8_t __value)
{
    do {} while (!eeprom_is_ready ());
    37e8:	f9 99       	sbic	0x1f, 1	; 31
    37ea:	fe cf       	rjmp	.-4      	; 0x37e8 <_Z25save_configuration_eepromPh+0x6e>

#if	defined(EEPM0) && defined(EEPM1)
    EECR = 0;		/* Set programming mode: erase and write.	*/
    37ec:	1f ba       	out	0x1f, r1	; 31
#endif

#if	E2END <= 0xFF
    EEARL = (unsigned)__p;
#else
    EEAR = (unsigned)__p;
    37ee:	32 bd       	out	0x22, r19	; 34
    37f0:	21 bd       	out	0x21, r18	; 33
#endif
    EEDR = __value;
    37f2:	40 bd       	out	0x20, r20	; 32
        : [__eecr]  "i" (_SFR_IO_ADDR(EECR)),
          [__sreg]  "i" (_SFR_IO_ADDR(SREG)),
          [__eemwe] "i" (EEMWE),
          [__eewe]  "i" (EEWE)
        : "r0"
    );
    37f4:	0f b6       	in	r0, 0x3f	; 63
    37f6:	f8 94       	cli
    37f8:	fa 9a       	sbi	0x1f, 2	; 31
    37fa:	f9 9a       	sbi	0x1f, 1	; 31
    37fc:	0f be       	out	0x3f, r0	; 63
	eeprom_write_byte( addr++, ~sys_config_byte);
    37fe:	9c 01       	movw	r18, r24
    3800:	2f 5f       	subi	r18, 0xFF	; 255
    3802:	3f 4f       	sbci	r19, 0xFF	; 255
    3804:	40 91 43 03 	lds	r20, 0x0343
    3808:	40 95       	com	r20
/** \ingroup avr_eeprom
    Write a byte \a __value to EEPROM address \a __p.
 */
static __inline__ void eeprom_write_byte (uint8_t *__p, uint8_t __value)
{
    do {} while (!eeprom_is_ready ());
    380a:	f9 99       	sbic	0x1f, 1	; 31
    380c:	fe cf       	rjmp	.-4      	; 0x380a <_Z25save_configuration_eepromPh+0x90>

#if	defined(EEPM0) && defined(EEPM1)
    EECR = 0;		/* Set programming mode: erase and write.	*/
    380e:	1f ba       	out	0x1f, r1	; 31
#endif

#if	E2END <= 0xFF
    EEARL = (unsigned)__p;
#else
    EEAR = (unsigned)__p;
    3810:	92 bd       	out	0x22, r25	; 34
    3812:	81 bd       	out	0x21, r24	; 33
#endif
    EEDR = __value;
    3814:	40 bd       	out	0x20, r20	; 32
        : [__eecr]  "i" (_SFR_IO_ADDR(EECR)),
          [__sreg]  "i" (_SFR_IO_ADDR(SREG)),
          [__eemwe] "i" (EEMWE),
          [__eewe]  "i" (EEWE)
        : "r0"
    );
    3816:	0f b6       	in	r0, 0x3f	; 63
    3818:	f8 94       	cli
    381a:	fa 9a       	sbi	0x1f, 2	; 31
    381c:	f9 9a       	sbi	0x1f, 1	; 31
    381e:	0f be       	out	0x3f, r0	; 63
	okay_to_read_cal = true;
    3820:	81 e0       	ldi	r24, 0x01	; 1
    3822:	80 93 1e 02 	sts	0x021E, r24
	return addr;
}
    3826:	c9 01       	movw	r24, r18
    3828:	08 95       	ret

0000382a <_Z18save_configurationv>:
Report DTCs (overtemperature, over voltage)
***********************************************/
byte* save_configuration()
{
	byte* Ptr;
	Ptr = save_instance_number (INSTANCE_EEPROM_ADDRESS);
    382a:	81 e0       	ldi	r24, 0x01	; 1
    382c:	90 e0       	ldi	r25, 0x00	; 0
    382e:	0e 94 7f 1b 	call	0x36fe	; 0x36fe <_Z20save_instance_numberPh>
	Ptr = save_confirmed_status(Ptr);
    3832:	0e 94 9e 1b 	call	0x373c	; 0x373c <_Z21save_confirmed_statusPh>
	return save_configuration_eeprom( Ptr );
    3836:	0e 94 bd 1b 	call	0x377a	; 0x377a <_Z25save_configuration_eepromPh>
}
    383a:	08 95       	ret

0000383c <_Z21save_configuration_div>:
	}	
}

byte* save_configuration_di()
{
	cli();
    383c:	f8 94       	cli
	return save_configuration();
    383e:	0e 94 15 1c 	call	0x382a	; 0x382a <_Z18save_configurationv>
	sei();
}
    3842:	08 95       	ret

00003844 <_Z21make_system_new_boardt>:
	Caller:		None found in BigMotorEn.
 */
byte make_system_new_board( word passcode )
{
	byte retval = 0;
	if (passcode == 0x1234)
    3844:	22 e1       	ldi	r18, 0x12	; 18
    3846:	84 33       	cpi	r24, 0x34	; 52
    3848:	92 07       	cpc	r25, r18
    384a:	11 f0       	breq	.+4      	; 0x3850 <_Z21make_system_new_boardt+0xc>
		  0 = bad password 
	Caller:		None found in BigMotorEn.
 */
byte make_system_new_board( word passcode )
{
	byte retval = 0;
    384c:	80 e0       	ldi	r24, 0x00	; 0
		//save_configuration_eeprom( (byte*)INSTANCE_EEPROM_ADDRESS+2 );
		cli(); save_configuration(); sei();
		retval = 1;
	}
	return retval;
}
    384e:	08 95       	ret
byte make_system_new_board( word passcode )
{
	byte retval = 0;
	if (passcode == 0x1234)
	{
		sys_config_byte &= ~CAN_NEW_BOARD;		// 0 means new board!
    3850:	80 91 43 03 	lds	r24, 0x0343
    3854:	8e 7f       	andi	r24, 0xFE	; 254
    3856:	80 93 43 03 	sts	0x0343, r24
		//save_configuration_eeprom( (byte*)INSTANCE_EEPROM_ADDRESS+2 );
		cli(); save_configuration(); sei();
    385a:	f8 94       	cli
    385c:	0e 94 15 1c 	call	0x382a	; 0x382a <_Z18save_configurationv>
    3860:	78 94       	sei
		retval = 1;
    3862:	81 e0       	ldi	r24, 0x01	; 1
    3864:	08 95       	ret

00003866 <_Z25read_configuration_eepromPh>:
Reads from EEPROM, and stores into the RAM
sEndPoint structures defined in pot.h
***********************************************************/
byte* read_configuration_eeprom(byte* addr)
{
	config_byte_1 = ~(eeprom_read_byte( addr++ ));
    3866:	9c 01       	movw	r18, r24
    3868:	2f 5f       	subi	r18, 0xFF	; 255
    386a:	3f 4f       	sbci	r19, 0xFF	; 255
/** \ingroup avr_eeprom
    Read one byte from EEPROM address \a __p.
 */
__ATTR_PURE__ static __inline__ uint8_t eeprom_read_byte (const uint8_t *__p)
{
    do {} while (!eeprom_is_ready ());
    386c:	f9 99       	sbic	0x1f, 1	; 31
    386e:	fe cf       	rjmp	.-4      	; 0x386c <_Z25read_configuration_eepromPh+0x6>
#if E2END <= 0xFF
    EEARL = (uint8_t)(uint16_t)__p;
#else
    EEAR = (uint16_t)__p;
    3870:	92 bd       	out	0x22, r25	; 34
    3872:	81 bd       	out	0x21, r24	; 33
        "/* END EEPROM READ CRITICAL SECTION */ \n\t"
        : "=r" (__result)
        : "i" (_SFR_IO_ADDR(EECR)),
          "i" (EERE),
          "i" (_SFR_IO_ADDR(EEDR))
    );
    3874:	f8 9a       	sbi	0x1f, 0	; 31
    3876:	80 b5       	in	r24, 0x20	; 32
    3878:	80 95       	com	r24
    387a:	80 93 3f 03 	sts	0x033F, r24
	config_byte_2 = ~(eeprom_read_byte( addr++ ));
    387e:	c9 01       	movw	r24, r18
    3880:	01 96       	adiw	r24, 0x01	; 1
/** \ingroup avr_eeprom
    Read one byte from EEPROM address \a __p.
 */
__ATTR_PURE__ static __inline__ uint8_t eeprom_read_byte (const uint8_t *__p)
{
    do {} while (!eeprom_is_ready ());
    3882:	f9 99       	sbic	0x1f, 1	; 31
    3884:	fe cf       	rjmp	.-4      	; 0x3882 <_Z25read_configuration_eepromPh+0x1c>
#if E2END <= 0xFF
    EEARL = (uint8_t)(uint16_t)__p;
#else
    EEAR = (uint16_t)__p;
    3886:	32 bd       	out	0x22, r19	; 34
    3888:	21 bd       	out	0x21, r18	; 33
        "/* END EEPROM READ CRITICAL SECTION */ \n\t"
        : "=r" (__result)
        : "i" (_SFR_IO_ADDR(EECR)),
          "i" (EERE),
          "i" (_SFR_IO_ADDR(EEDR))
    );
    388a:	f8 9a       	sbi	0x1f, 0	; 31
    388c:	20 b5       	in	r18, 0x20	; 32
    388e:	20 95       	com	r18
    3890:	20 93 40 03 	sts	0x0340, r18
	config_byte_3 = ~(eeprom_read_byte( addr++ ));
    3894:	9c 01       	movw	r18, r24
    3896:	2f 5f       	subi	r18, 0xFF	; 255
    3898:	3f 4f       	sbci	r19, 0xFF	; 255
/** \ingroup avr_eeprom
    Read one byte from EEPROM address \a __p.
 */
__ATTR_PURE__ static __inline__ uint8_t eeprom_read_byte (const uint8_t *__p)
{
    do {} while (!eeprom_is_ready ());
    389a:	f9 99       	sbic	0x1f, 1	; 31
    389c:	fe cf       	rjmp	.-4      	; 0x389a <_Z25read_configuration_eepromPh+0x34>
#if E2END <= 0xFF
    EEARL = (uint8_t)(uint16_t)__p;
#else
    EEAR = (uint16_t)__p;
    389e:	92 bd       	out	0x22, r25	; 34
    38a0:	81 bd       	out	0x21, r24	; 33
        "/* END EEPROM READ CRITICAL SECTION */ \n\t"
        : "=r" (__result)
        : "i" (_SFR_IO_ADDR(EECR)),
          "i" (EERE),
          "i" (_SFR_IO_ADDR(EEDR))
    );
    38a2:	f8 9a       	sbi	0x1f, 0	; 31
    38a4:	80 b5       	in	r24, 0x20	; 32
    38a6:	80 95       	com	r24
    38a8:	80 93 41 03 	sts	0x0341, r24
	config_byte_4 = ~(eeprom_read_byte( addr++ ));	
    38ac:	c9 01       	movw	r24, r18
    38ae:	01 96       	adiw	r24, 0x01	; 1
/** \ingroup avr_eeprom
    Read one byte from EEPROM address \a __p.
 */
__ATTR_PURE__ static __inline__ uint8_t eeprom_read_byte (const uint8_t *__p)
{
    do {} while (!eeprom_is_ready ());
    38b0:	f9 99       	sbic	0x1f, 1	; 31
    38b2:	fe cf       	rjmp	.-4      	; 0x38b0 <_Z25read_configuration_eepromPh+0x4a>
#if E2END <= 0xFF
    EEARL = (uint8_t)(uint16_t)__p;
#else
    EEAR = (uint16_t)__p;
    38b4:	32 bd       	out	0x22, r19	; 34
    38b6:	21 bd       	out	0x21, r18	; 33
        "/* END EEPROM READ CRITICAL SECTION */ \n\t"
        : "=r" (__result)
        : "i" (_SFR_IO_ADDR(EECR)),
          "i" (EERE),
          "i" (_SFR_IO_ADDR(EEDR))
    );
    38b8:	f8 9a       	sbi	0x1f, 0	; 31
    38ba:	20 b5       	in	r18, 0x20	; 32
    38bc:	20 95       	com	r18
    38be:	20 93 42 03 	sts	0x0342, r18
	sys_config_byte = ~(eeprom_read_byte( addr++ ));
    38c2:	9c 01       	movw	r18, r24
    38c4:	2f 5f       	subi	r18, 0xFF	; 255
    38c6:	3f 4f       	sbci	r19, 0xFF	; 255
/** \ingroup avr_eeprom
    Read one byte from EEPROM address \a __p.
 */
__ATTR_PURE__ static __inline__ uint8_t eeprom_read_byte (const uint8_t *__p)
{
    do {} while (!eeprom_is_ready ());
    38c8:	f9 99       	sbic	0x1f, 1	; 31
    38ca:	fe cf       	rjmp	.-4      	; 0x38c8 <_Z25read_configuration_eepromPh+0x62>
#if E2END <= 0xFF
    EEARL = (uint8_t)(uint16_t)__p;
#else
    EEAR = (uint16_t)__p;
    38cc:	92 bd       	out	0x22, r25	; 34
    38ce:	81 bd       	out	0x21, r24	; 33
        "/* END EEPROM READ CRITICAL SECTION */ \n\t"
        : "=r" (__result)
        : "i" (_SFR_IO_ADDR(EECR)),
          "i" (EERE),
          "i" (_SFR_IO_ADDR(EEDR))
    );
    38d0:	f8 9a       	sbi	0x1f, 0	; 31
    38d2:	80 b5       	in	r24, 0x20	; 32
    38d4:	80 95       	com	r24
    38d6:	80 93 43 03 	sts	0x0343, r24
	return addr;
}
    38da:	c9 01       	movw	r24, r18
    38dc:	08 95       	ret

000038de <_Z18read_configurationv>:
sEndPoint structures defined in pot.h
***********************************************************/
byte* read_configuration()
{
	byte* Ptr;
	Ptr = read_instance_number (INSTANCE_EEPROM_ADDRESS);
    38de:	81 e0       	ldi	r24, 0x01	; 1
    38e0:	90 e0       	ldi	r25, 0x00	; 0
    38e2:	0e 94 91 1b 	call	0x3722	; 0x3722 <_Z20read_instance_numberPh>
	Ptr = read_confirmed_status(Ptr);
    38e6:	0e 94 b0 1b 	call	0x3760	; 0x3760 <_Z21read_confirmed_statusPh>
	return read_configuration_eeprom(Ptr);
    38ea:	0e 94 33 1c 	call	0x3866	; 0x3866 <_Z25read_configuration_eepromPh>
}
    38ee:	08 95       	ret

000038f0 <__fixunssfsi>:
    38f0:	ef 92       	push	r14
    38f2:	ff 92       	push	r15
    38f4:	0f 93       	push	r16
    38f6:	1f 93       	push	r17
    38f8:	7b 01       	movw	r14, r22
    38fa:	8c 01       	movw	r16, r24
    38fc:	20 e0       	ldi	r18, 0x00	; 0
    38fe:	30 e0       	ldi	r19, 0x00	; 0
    3900:	40 e0       	ldi	r20, 0x00	; 0
    3902:	5f e4       	ldi	r21, 0x4F	; 79
    3904:	0e 94 24 20 	call	0x4048	; 0x4048 <__gesf2>
    3908:	87 fd       	sbrc	r24, 7
    390a:	11 c0       	rjmp	.+34     	; 0x392e <__fixunssfsi+0x3e>
    390c:	c8 01       	movw	r24, r16
    390e:	b7 01       	movw	r22, r14
    3910:	20 e0       	ldi	r18, 0x00	; 0
    3912:	30 e0       	ldi	r19, 0x00	; 0
    3914:	40 e0       	ldi	r20, 0x00	; 0
    3916:	5f e4       	ldi	r21, 0x4F	; 79
    3918:	0e 94 1b 1e 	call	0x3c36	; 0x3c36 <__subsf3>
    391c:	0e 94 e4 20 	call	0x41c8	; 0x41c8 <__fixsfsi>
    3920:	9b 01       	movw	r18, r22
    3922:	ac 01       	movw	r20, r24
    3924:	20 50       	subi	r18, 0x00	; 0
    3926:	30 40       	sbci	r19, 0x00	; 0
    3928:	40 40       	sbci	r20, 0x00	; 0
    392a:	50 48       	sbci	r21, 0x80	; 128
    392c:	06 c0       	rjmp	.+12     	; 0x393a <__fixunssfsi+0x4a>
    392e:	c8 01       	movw	r24, r16
    3930:	b7 01       	movw	r22, r14
    3932:	0e 94 e4 20 	call	0x41c8	; 0x41c8 <__fixsfsi>
    3936:	9b 01       	movw	r18, r22
    3938:	ac 01       	movw	r20, r24
    393a:	b9 01       	movw	r22, r18
    393c:	ca 01       	movw	r24, r20
    393e:	1f 91       	pop	r17
    3940:	0f 91       	pop	r16
    3942:	ff 90       	pop	r15
    3944:	ef 90       	pop	r14
    3946:	08 95       	ret

00003948 <_fpadd_parts>:
    3948:	a0 e0       	ldi	r26, 0x00	; 0
    394a:	b0 e0       	ldi	r27, 0x00	; 0
    394c:	ea ea       	ldi	r30, 0xAA	; 170
    394e:	fc e1       	ldi	r31, 0x1C	; 28
    3950:	0c 94 ff 23 	jmp	0x47fe	; 0x47fe <__prologue_saves__+0x8>
    3954:	fc 01       	movw	r30, r24
    3956:	ea 01       	movw	r28, r20
    3958:	80 81       	ld	r24, Z
    395a:	82 30       	cpi	r24, 0x02	; 2
    395c:	08 f4       	brcc	.+2      	; 0x3960 <_fpadd_parts+0x18>
    395e:	38 c1       	rjmp	.+624    	; 0x3bd0 <_fpadd_parts+0x288>
    3960:	db 01       	movw	r26, r22
    3962:	9c 91       	ld	r25, X
    3964:	92 30       	cpi	r25, 0x02	; 2
    3966:	08 f4       	brcc	.+2      	; 0x396a <_fpadd_parts+0x22>
    3968:	30 c1       	rjmp	.+608    	; 0x3bca <_fpadd_parts+0x282>
    396a:	84 30       	cpi	r24, 0x04	; 4
    396c:	59 f4       	brne	.+22     	; 0x3984 <_fpadd_parts+0x3c>
    396e:	94 30       	cpi	r25, 0x04	; 4
    3970:	09 f0       	breq	.+2      	; 0x3974 <_fpadd_parts+0x2c>
    3972:	2e c1       	rjmp	.+604    	; 0x3bd0 <_fpadd_parts+0x288>
    3974:	91 81       	ldd	r25, Z+1	; 0x01
    3976:	11 96       	adiw	r26, 0x01	; 1
    3978:	8c 91       	ld	r24, X
    397a:	11 97       	sbiw	r26, 0x01	; 1
    397c:	98 17       	cp	r25, r24
    397e:	09 f0       	breq	.+2      	; 0x3982 <_fpadd_parts+0x3a>
    3980:	21 c1       	rjmp	.+578    	; 0x3bc4 <_fpadd_parts+0x27c>
    3982:	26 c1       	rjmp	.+588    	; 0x3bd0 <_fpadd_parts+0x288>
    3984:	94 30       	cpi	r25, 0x04	; 4
    3986:	09 f4       	brne	.+2      	; 0x398a <_fpadd_parts+0x42>
    3988:	20 c1       	rjmp	.+576    	; 0x3bca <_fpadd_parts+0x282>
    398a:	92 30       	cpi	r25, 0x02	; 2
    398c:	b1 f4       	brne	.+44     	; 0x39ba <_fpadd_parts+0x72>
    398e:	82 30       	cpi	r24, 0x02	; 2
    3990:	09 f0       	breq	.+2      	; 0x3994 <_fpadd_parts+0x4c>
    3992:	1e c1       	rjmp	.+572    	; 0x3bd0 <_fpadd_parts+0x288>
    3994:	ca 01       	movw	r24, r20
    3996:	af 01       	movw	r20, r30
    3998:	28 e0       	ldi	r18, 0x08	; 8
    399a:	da 01       	movw	r26, r20
    399c:	0d 90       	ld	r0, X+
    399e:	ad 01       	movw	r20, r26
    39a0:	dc 01       	movw	r26, r24
    39a2:	0d 92       	st	X+, r0
    39a4:	cd 01       	movw	r24, r26
    39a6:	21 50       	subi	r18, 0x01	; 1
    39a8:	c1 f7       	brne	.-16     	; 0x399a <_fpadd_parts+0x52>
    39aa:	db 01       	movw	r26, r22
    39ac:	11 96       	adiw	r26, 0x01	; 1
    39ae:	8c 91       	ld	r24, X
    39b0:	11 97       	sbiw	r26, 0x01	; 1
    39b2:	91 81       	ldd	r25, Z+1	; 0x01
    39b4:	89 23       	and	r24, r25
    39b6:	89 83       	std	Y+1, r24	; 0x01
    39b8:	0a c1       	rjmp	.+532    	; 0x3bce <_fpadd_parts+0x286>
    39ba:	82 30       	cpi	r24, 0x02	; 2
    39bc:	09 f4       	brne	.+2      	; 0x39c0 <_fpadd_parts+0x78>
    39be:	05 c1       	rjmp	.+522    	; 0x3bca <_fpadd_parts+0x282>
    39c0:	c2 80       	ldd	r12, Z+2	; 0x02
    39c2:	d3 80       	ldd	r13, Z+3	; 0x03
    39c4:	db 01       	movw	r26, r22
    39c6:	12 96       	adiw	r26, 0x02	; 2
    39c8:	6d 90       	ld	r6, X+
    39ca:	7c 90       	ld	r7, X
    39cc:	13 97       	sbiw	r26, 0x03	; 3
    39ce:	24 81       	ldd	r18, Z+4	; 0x04
    39d0:	35 81       	ldd	r19, Z+5	; 0x05
    39d2:	46 81       	ldd	r20, Z+6	; 0x06
    39d4:	57 81       	ldd	r21, Z+7	; 0x07
    39d6:	14 96       	adiw	r26, 0x04	; 4
    39d8:	ed 90       	ld	r14, X+
    39da:	fd 90       	ld	r15, X+
    39dc:	0d 91       	ld	r16, X+
    39de:	1c 91       	ld	r17, X
    39e0:	17 97       	sbiw	r26, 0x07	; 7
    39e2:	c6 01       	movw	r24, r12
    39e4:	86 19       	sub	r24, r6
    39e6:	97 09       	sbc	r25, r7
    39e8:	5c 01       	movw	r10, r24
    39ea:	97 ff       	sbrs	r25, 7
    39ec:	04 c0       	rjmp	.+8      	; 0x39f6 <_fpadd_parts+0xae>
    39ee:	aa 24       	eor	r10, r10
    39f0:	bb 24       	eor	r11, r11
    39f2:	a8 1a       	sub	r10, r24
    39f4:	b9 0a       	sbc	r11, r25
    39f6:	b0 e2       	ldi	r27, 0x20	; 32
    39f8:	ab 16       	cp	r10, r27
    39fa:	b1 04       	cpc	r11, r1
    39fc:	0c f0       	brlt	.+2      	; 0x3a00 <_fpadd_parts+0xb8>
    39fe:	61 c0       	rjmp	.+194    	; 0x3ac2 <_fpadd_parts+0x17a>
    3a00:	18 16       	cp	r1, r24
    3a02:	19 06       	cpc	r1, r25
    3a04:	6c f5       	brge	.+90     	; 0x3a60 <_fpadd_parts+0x118>
    3a06:	37 01       	movw	r6, r14
    3a08:	48 01       	movw	r8, r16
    3a0a:	0a 2c       	mov	r0, r10
    3a0c:	04 c0       	rjmp	.+8      	; 0x3a16 <_fpadd_parts+0xce>
    3a0e:	96 94       	lsr	r9
    3a10:	87 94       	ror	r8
    3a12:	77 94       	ror	r7
    3a14:	67 94       	ror	r6
    3a16:	0a 94       	dec	r0
    3a18:	d2 f7       	brpl	.-12     	; 0x3a0e <_fpadd_parts+0xc6>
    3a1a:	81 e0       	ldi	r24, 0x01	; 1
    3a1c:	90 e0       	ldi	r25, 0x00	; 0
    3a1e:	a0 e0       	ldi	r26, 0x00	; 0
    3a20:	b0 e0       	ldi	r27, 0x00	; 0
    3a22:	0a 2c       	mov	r0, r10
    3a24:	04 c0       	rjmp	.+8      	; 0x3a2e <_fpadd_parts+0xe6>
    3a26:	88 0f       	add	r24, r24
    3a28:	99 1f       	adc	r25, r25
    3a2a:	aa 1f       	adc	r26, r26
    3a2c:	bb 1f       	adc	r27, r27
    3a2e:	0a 94       	dec	r0
    3a30:	d2 f7       	brpl	.-12     	; 0x3a26 <_fpadd_parts+0xde>
    3a32:	01 97       	sbiw	r24, 0x01	; 1
    3a34:	a1 09       	sbc	r26, r1
    3a36:	b1 09       	sbc	r27, r1
    3a38:	8e 21       	and	r24, r14
    3a3a:	9f 21       	and	r25, r15
    3a3c:	a0 23       	and	r26, r16
    3a3e:	b1 23       	and	r27, r17
    3a40:	ee 24       	eor	r14, r14
    3a42:	ff 24       	eor	r15, r15
    3a44:	87 01       	movw	r16, r14
    3a46:	e3 94       	inc	r14
    3a48:	00 97       	sbiw	r24, 0x00	; 0
    3a4a:	a1 05       	cpc	r26, r1
    3a4c:	b1 05       	cpc	r27, r1
    3a4e:	19 f4       	brne	.+6      	; 0x3a56 <_fpadd_parts+0x10e>
    3a50:	ee 24       	eor	r14, r14
    3a52:	ff 24       	eor	r15, r15
    3a54:	87 01       	movw	r16, r14
    3a56:	e6 28       	or	r14, r6
    3a58:	f7 28       	or	r15, r7
    3a5a:	08 29       	or	r16, r8
    3a5c:	19 29       	or	r17, r9
    3a5e:	3c c0       	rjmp	.+120    	; 0x3ad8 <_fpadd_parts+0x190>
    3a60:	00 97       	sbiw	r24, 0x00	; 0
    3a62:	d1 f1       	breq	.+116    	; 0x3ad8 <_fpadd_parts+0x190>
    3a64:	ca 0c       	add	r12, r10
    3a66:	db 1c       	adc	r13, r11
    3a68:	39 01       	movw	r6, r18
    3a6a:	4a 01       	movw	r8, r20
    3a6c:	0a 2c       	mov	r0, r10
    3a6e:	04 c0       	rjmp	.+8      	; 0x3a78 <_fpadd_parts+0x130>
    3a70:	96 94       	lsr	r9
    3a72:	87 94       	ror	r8
    3a74:	77 94       	ror	r7
    3a76:	67 94       	ror	r6
    3a78:	0a 94       	dec	r0
    3a7a:	d2 f7       	brpl	.-12     	; 0x3a70 <_fpadd_parts+0x128>
    3a7c:	81 e0       	ldi	r24, 0x01	; 1
    3a7e:	90 e0       	ldi	r25, 0x00	; 0
    3a80:	a0 e0       	ldi	r26, 0x00	; 0
    3a82:	b0 e0       	ldi	r27, 0x00	; 0
    3a84:	0a 2c       	mov	r0, r10
    3a86:	04 c0       	rjmp	.+8      	; 0x3a90 <_fpadd_parts+0x148>
    3a88:	88 0f       	add	r24, r24
    3a8a:	99 1f       	adc	r25, r25
    3a8c:	aa 1f       	adc	r26, r26
    3a8e:	bb 1f       	adc	r27, r27
    3a90:	0a 94       	dec	r0
    3a92:	d2 f7       	brpl	.-12     	; 0x3a88 <_fpadd_parts+0x140>
    3a94:	01 97       	sbiw	r24, 0x01	; 1
    3a96:	a1 09       	sbc	r26, r1
    3a98:	b1 09       	sbc	r27, r1
    3a9a:	82 23       	and	r24, r18
    3a9c:	93 23       	and	r25, r19
    3a9e:	a4 23       	and	r26, r20
    3aa0:	b5 23       	and	r27, r21
    3aa2:	21 e0       	ldi	r18, 0x01	; 1
    3aa4:	30 e0       	ldi	r19, 0x00	; 0
    3aa6:	40 e0       	ldi	r20, 0x00	; 0
    3aa8:	50 e0       	ldi	r21, 0x00	; 0
    3aaa:	00 97       	sbiw	r24, 0x00	; 0
    3aac:	a1 05       	cpc	r26, r1
    3aae:	b1 05       	cpc	r27, r1
    3ab0:	19 f4       	brne	.+6      	; 0x3ab8 <_fpadd_parts+0x170>
    3ab2:	20 e0       	ldi	r18, 0x00	; 0
    3ab4:	30 e0       	ldi	r19, 0x00	; 0
    3ab6:	a9 01       	movw	r20, r18
    3ab8:	26 29       	or	r18, r6
    3aba:	37 29       	or	r19, r7
    3abc:	48 29       	or	r20, r8
    3abe:	59 29       	or	r21, r9
    3ac0:	0b c0       	rjmp	.+22     	; 0x3ad8 <_fpadd_parts+0x190>
    3ac2:	6c 14       	cp	r6, r12
    3ac4:	7d 04       	cpc	r7, r13
    3ac6:	24 f4       	brge	.+8      	; 0x3ad0 <_fpadd_parts+0x188>
    3ac8:	ee 24       	eor	r14, r14
    3aca:	ff 24       	eor	r15, r15
    3acc:	87 01       	movw	r16, r14
    3ace:	04 c0       	rjmp	.+8      	; 0x3ad8 <_fpadd_parts+0x190>
    3ad0:	63 01       	movw	r12, r6
    3ad2:	20 e0       	ldi	r18, 0x00	; 0
    3ad4:	30 e0       	ldi	r19, 0x00	; 0
    3ad6:	a9 01       	movw	r20, r18
    3ad8:	81 81       	ldd	r24, Z+1	; 0x01
    3ada:	fb 01       	movw	r30, r22
    3adc:	91 81       	ldd	r25, Z+1	; 0x01
    3ade:	89 17       	cp	r24, r25
    3ae0:	09 f4       	brne	.+2      	; 0x3ae4 <_fpadd_parts+0x19c>
    3ae2:	45 c0       	rjmp	.+138    	; 0x3b6e <_fpadd_parts+0x226>
    3ae4:	88 23       	and	r24, r24
    3ae6:	49 f0       	breq	.+18     	; 0x3afa <_fpadd_parts+0x1b2>
    3ae8:	d8 01       	movw	r26, r16
    3aea:	c7 01       	movw	r24, r14
    3aec:	82 1b       	sub	r24, r18
    3aee:	93 0b       	sbc	r25, r19
    3af0:	a4 0b       	sbc	r26, r20
    3af2:	b5 0b       	sbc	r27, r21
    3af4:	9c 01       	movw	r18, r24
    3af6:	ad 01       	movw	r20, r26
    3af8:	04 c0       	rjmp	.+8      	; 0x3b02 <_fpadd_parts+0x1ba>
    3afa:	2e 19       	sub	r18, r14
    3afc:	3f 09       	sbc	r19, r15
    3afe:	40 0b       	sbc	r20, r16
    3b00:	51 0b       	sbc	r21, r17
    3b02:	57 fd       	sbrc	r21, 7
    3b04:	04 c0       	rjmp	.+8      	; 0x3b0e <_fpadd_parts+0x1c6>
    3b06:	19 82       	std	Y+1, r1	; 0x01
    3b08:	db 82       	std	Y+3, r13	; 0x03
    3b0a:	ca 82       	std	Y+2, r12	; 0x02
    3b0c:	0b c0       	rjmp	.+22     	; 0x3b24 <_fpadd_parts+0x1dc>
    3b0e:	81 e0       	ldi	r24, 0x01	; 1
    3b10:	89 83       	std	Y+1, r24	; 0x01
    3b12:	db 82       	std	Y+3, r13	; 0x03
    3b14:	ca 82       	std	Y+2, r12	; 0x02
    3b16:	50 95       	com	r21
    3b18:	40 95       	com	r20
    3b1a:	30 95       	com	r19
    3b1c:	21 95       	neg	r18
    3b1e:	3f 4f       	sbci	r19, 0xFF	; 255
    3b20:	4f 4f       	sbci	r20, 0xFF	; 255
    3b22:	5f 4f       	sbci	r21, 0xFF	; 255
    3b24:	2c 83       	std	Y+4, r18	; 0x04
    3b26:	3d 83       	std	Y+5, r19	; 0x05
    3b28:	4e 83       	std	Y+6, r20	; 0x06
    3b2a:	5f 83       	std	Y+7, r21	; 0x07
    3b2c:	0d c0       	rjmp	.+26     	; 0x3b48 <_fpadd_parts+0x200>
    3b2e:	88 0f       	add	r24, r24
    3b30:	99 1f       	adc	r25, r25
    3b32:	aa 1f       	adc	r26, r26
    3b34:	bb 1f       	adc	r27, r27
    3b36:	8c 83       	std	Y+4, r24	; 0x04
    3b38:	9d 83       	std	Y+5, r25	; 0x05
    3b3a:	ae 83       	std	Y+6, r26	; 0x06
    3b3c:	bf 83       	std	Y+7, r27	; 0x07
    3b3e:	8a 81       	ldd	r24, Y+2	; 0x02
    3b40:	9b 81       	ldd	r25, Y+3	; 0x03
    3b42:	01 97       	sbiw	r24, 0x01	; 1
    3b44:	9b 83       	std	Y+3, r25	; 0x03
    3b46:	8a 83       	std	Y+2, r24	; 0x02
    3b48:	8c 81       	ldd	r24, Y+4	; 0x04
    3b4a:	9d 81       	ldd	r25, Y+5	; 0x05
    3b4c:	ae 81       	ldd	r26, Y+6	; 0x06
    3b4e:	bf 81       	ldd	r27, Y+7	; 0x07
    3b50:	9c 01       	movw	r18, r24
    3b52:	ad 01       	movw	r20, r26
    3b54:	21 50       	subi	r18, 0x01	; 1
    3b56:	30 40       	sbci	r19, 0x00	; 0
    3b58:	40 40       	sbci	r20, 0x00	; 0
    3b5a:	50 40       	sbci	r21, 0x00	; 0
    3b5c:	2f 3f       	cpi	r18, 0xFF	; 255
    3b5e:	ef ef       	ldi	r30, 0xFF	; 255
    3b60:	3e 07       	cpc	r19, r30
    3b62:	ef ef       	ldi	r30, 0xFF	; 255
    3b64:	4e 07       	cpc	r20, r30
    3b66:	ef e3       	ldi	r30, 0x3F	; 63
    3b68:	5e 07       	cpc	r21, r30
    3b6a:	08 f3       	brcs	.-62     	; 0x3b2e <_fpadd_parts+0x1e6>
    3b6c:	0b c0       	rjmp	.+22     	; 0x3b84 <_fpadd_parts+0x23c>
    3b6e:	89 83       	std	Y+1, r24	; 0x01
    3b70:	db 82       	std	Y+3, r13	; 0x03
    3b72:	ca 82       	std	Y+2, r12	; 0x02
    3b74:	2e 0d       	add	r18, r14
    3b76:	3f 1d       	adc	r19, r15
    3b78:	40 1f       	adc	r20, r16
    3b7a:	51 1f       	adc	r21, r17
    3b7c:	2c 83       	std	Y+4, r18	; 0x04
    3b7e:	3d 83       	std	Y+5, r19	; 0x05
    3b80:	4e 83       	std	Y+6, r20	; 0x06
    3b82:	5f 83       	std	Y+7, r21	; 0x07
    3b84:	83 e0       	ldi	r24, 0x03	; 3
    3b86:	88 83       	st	Y, r24
    3b88:	2c 81       	ldd	r18, Y+4	; 0x04
    3b8a:	3d 81       	ldd	r19, Y+5	; 0x05
    3b8c:	4e 81       	ldd	r20, Y+6	; 0x06
    3b8e:	5f 81       	ldd	r21, Y+7	; 0x07
    3b90:	57 ff       	sbrs	r21, 7
    3b92:	1d c0       	rjmp	.+58     	; 0x3bce <_fpadd_parts+0x286>
    3b94:	da 01       	movw	r26, r20
    3b96:	c9 01       	movw	r24, r18
    3b98:	81 70       	andi	r24, 0x01	; 1
    3b9a:	90 70       	andi	r25, 0x00	; 0
    3b9c:	a0 70       	andi	r26, 0x00	; 0
    3b9e:	b0 70       	andi	r27, 0x00	; 0
    3ba0:	56 95       	lsr	r21
    3ba2:	47 95       	ror	r20
    3ba4:	37 95       	ror	r19
    3ba6:	27 95       	ror	r18
    3ba8:	82 2b       	or	r24, r18
    3baa:	93 2b       	or	r25, r19
    3bac:	a4 2b       	or	r26, r20
    3bae:	b5 2b       	or	r27, r21
    3bb0:	8c 83       	std	Y+4, r24	; 0x04
    3bb2:	9d 83       	std	Y+5, r25	; 0x05
    3bb4:	ae 83       	std	Y+6, r26	; 0x06
    3bb6:	bf 83       	std	Y+7, r27	; 0x07
    3bb8:	8a 81       	ldd	r24, Y+2	; 0x02
    3bba:	9b 81       	ldd	r25, Y+3	; 0x03
    3bbc:	01 96       	adiw	r24, 0x01	; 1
    3bbe:	9b 83       	std	Y+3, r25	; 0x03
    3bc0:	8a 83       	std	Y+2, r24	; 0x02
    3bc2:	05 c0       	rjmp	.+10     	; 0x3bce <_fpadd_parts+0x286>
    3bc4:	e5 e1       	ldi	r30, 0x15	; 21
    3bc6:	f1 e0       	ldi	r31, 0x01	; 1
    3bc8:	03 c0       	rjmp	.+6      	; 0x3bd0 <_fpadd_parts+0x288>
    3bca:	fb 01       	movw	r30, r22
    3bcc:	01 c0       	rjmp	.+2      	; 0x3bd0 <_fpadd_parts+0x288>
    3bce:	fe 01       	movw	r30, r28
    3bd0:	cf 01       	movw	r24, r30
    3bd2:	cd b7       	in	r28, 0x3d	; 61
    3bd4:	de b7       	in	r29, 0x3e	; 62
    3bd6:	ee e0       	ldi	r30, 0x0E	; 14
    3bd8:	0c 94 1b 24 	jmp	0x4836	; 0x4836 <__epilogue_restores__+0x8>

00003bdc <__addsf3>:
    3bdc:	a0 e2       	ldi	r26, 0x20	; 32
    3bde:	b0 e0       	ldi	r27, 0x00	; 0
    3be0:	e4 ef       	ldi	r30, 0xF4	; 244
    3be2:	fd e1       	ldi	r31, 0x1D	; 29
    3be4:	0c 94 07 24 	jmp	0x480e	; 0x480e <__prologue_saves__+0x18>
    3be8:	69 83       	std	Y+1, r22	; 0x01
    3bea:	7a 83       	std	Y+2, r23	; 0x02
    3bec:	8b 83       	std	Y+3, r24	; 0x03
    3bee:	9c 83       	std	Y+4, r25	; 0x04
    3bf0:	2d 83       	std	Y+5, r18	; 0x05
    3bf2:	3e 83       	std	Y+6, r19	; 0x06
    3bf4:	4f 83       	std	Y+7, r20	; 0x07
    3bf6:	58 87       	std	Y+8, r21	; 0x08
    3bf8:	89 e0       	ldi	r24, 0x09	; 9
    3bfa:	e8 2e       	mov	r14, r24
    3bfc:	f1 2c       	mov	r15, r1
    3bfe:	ec 0e       	add	r14, r28
    3c00:	fd 1e       	adc	r15, r29
    3c02:	ce 01       	movw	r24, r28
    3c04:	01 96       	adiw	r24, 0x01	; 1
    3c06:	b7 01       	movw	r22, r14
    3c08:	0e 94 d5 22 	call	0x45aa	; 0x45aa <__unpack_f>
    3c0c:	8e 01       	movw	r16, r28
    3c0e:	0f 5e       	subi	r16, 0xEF	; 239
    3c10:	1f 4f       	sbci	r17, 0xFF	; 255
    3c12:	ce 01       	movw	r24, r28
    3c14:	05 96       	adiw	r24, 0x05	; 5
    3c16:	b8 01       	movw	r22, r16
    3c18:	0e 94 d5 22 	call	0x45aa	; 0x45aa <__unpack_f>
    3c1c:	c7 01       	movw	r24, r14
    3c1e:	b8 01       	movw	r22, r16
    3c20:	ae 01       	movw	r20, r28
    3c22:	47 5e       	subi	r20, 0xE7	; 231
    3c24:	5f 4f       	sbci	r21, 0xFF	; 255
    3c26:	0e 94 a4 1c 	call	0x3948	; 0x3948 <_fpadd_parts>
    3c2a:	0e 94 08 22 	call	0x4410	; 0x4410 <__pack_f>
    3c2e:	a0 96       	adiw	r28, 0x20	; 32
    3c30:	e6 e0       	ldi	r30, 0x06	; 6
    3c32:	0c 94 23 24 	jmp	0x4846	; 0x4846 <__epilogue_restores__+0x18>

00003c36 <__subsf3>:
    3c36:	a0 e2       	ldi	r26, 0x20	; 32
    3c38:	b0 e0       	ldi	r27, 0x00	; 0
    3c3a:	e1 e2       	ldi	r30, 0x21	; 33
    3c3c:	fe e1       	ldi	r31, 0x1E	; 30
    3c3e:	0c 94 07 24 	jmp	0x480e	; 0x480e <__prologue_saves__+0x18>
    3c42:	69 83       	std	Y+1, r22	; 0x01
    3c44:	7a 83       	std	Y+2, r23	; 0x02
    3c46:	8b 83       	std	Y+3, r24	; 0x03
    3c48:	9c 83       	std	Y+4, r25	; 0x04
    3c4a:	2d 83       	std	Y+5, r18	; 0x05
    3c4c:	3e 83       	std	Y+6, r19	; 0x06
    3c4e:	4f 83       	std	Y+7, r20	; 0x07
    3c50:	58 87       	std	Y+8, r21	; 0x08
    3c52:	8e 01       	movw	r16, r28
    3c54:	07 5f       	subi	r16, 0xF7	; 247
    3c56:	1f 4f       	sbci	r17, 0xFF	; 255
    3c58:	ce 01       	movw	r24, r28
    3c5a:	01 96       	adiw	r24, 0x01	; 1
    3c5c:	b8 01       	movw	r22, r16
    3c5e:	0e 94 d5 22 	call	0x45aa	; 0x45aa <__unpack_f>
    3c62:	91 e1       	ldi	r25, 0x11	; 17
    3c64:	e9 2e       	mov	r14, r25
    3c66:	f1 2c       	mov	r15, r1
    3c68:	ec 0e       	add	r14, r28
    3c6a:	fd 1e       	adc	r15, r29
    3c6c:	ce 01       	movw	r24, r28
    3c6e:	05 96       	adiw	r24, 0x05	; 5
    3c70:	b7 01       	movw	r22, r14
    3c72:	0e 94 d5 22 	call	0x45aa	; 0x45aa <__unpack_f>
    3c76:	8a 89       	ldd	r24, Y+18	; 0x12
    3c78:	91 e0       	ldi	r25, 0x01	; 1
    3c7a:	89 27       	eor	r24, r25
    3c7c:	8a 8b       	std	Y+18, r24	; 0x12
    3c7e:	c8 01       	movw	r24, r16
    3c80:	b7 01       	movw	r22, r14
    3c82:	ae 01       	movw	r20, r28
    3c84:	47 5e       	subi	r20, 0xE7	; 231
    3c86:	5f 4f       	sbci	r21, 0xFF	; 255
    3c88:	0e 94 a4 1c 	call	0x3948	; 0x3948 <_fpadd_parts>
    3c8c:	0e 94 08 22 	call	0x4410	; 0x4410 <__pack_f>
    3c90:	a0 96       	adiw	r28, 0x20	; 32
    3c92:	e6 e0       	ldi	r30, 0x06	; 6
    3c94:	0c 94 23 24 	jmp	0x4846	; 0x4846 <__epilogue_restores__+0x18>

00003c98 <__mulsf3>:
    3c98:	a0 e2       	ldi	r26, 0x20	; 32
    3c9a:	b0 e0       	ldi	r27, 0x00	; 0
    3c9c:	e2 e5       	ldi	r30, 0x52	; 82
    3c9e:	fe e1       	ldi	r31, 0x1E	; 30
    3ca0:	0c 94 fb 23 	jmp	0x47f6	; 0x47f6 <__prologue_saves__>
    3ca4:	69 83       	std	Y+1, r22	; 0x01
    3ca6:	7a 83       	std	Y+2, r23	; 0x02
    3ca8:	8b 83       	std	Y+3, r24	; 0x03
    3caa:	9c 83       	std	Y+4, r25	; 0x04
    3cac:	2d 83       	std	Y+5, r18	; 0x05
    3cae:	3e 83       	std	Y+6, r19	; 0x06
    3cb0:	4f 83       	std	Y+7, r20	; 0x07
    3cb2:	58 87       	std	Y+8, r21	; 0x08
    3cb4:	ce 01       	movw	r24, r28
    3cb6:	01 96       	adiw	r24, 0x01	; 1
    3cb8:	be 01       	movw	r22, r28
    3cba:	67 5f       	subi	r22, 0xF7	; 247
    3cbc:	7f 4f       	sbci	r23, 0xFF	; 255
    3cbe:	0e 94 d5 22 	call	0x45aa	; 0x45aa <__unpack_f>
    3cc2:	ce 01       	movw	r24, r28
    3cc4:	05 96       	adiw	r24, 0x05	; 5
    3cc6:	be 01       	movw	r22, r28
    3cc8:	6f 5e       	subi	r22, 0xEF	; 239
    3cca:	7f 4f       	sbci	r23, 0xFF	; 255
    3ccc:	0e 94 d5 22 	call	0x45aa	; 0x45aa <__unpack_f>
    3cd0:	99 85       	ldd	r25, Y+9	; 0x09
    3cd2:	92 30       	cpi	r25, 0x02	; 2
    3cd4:	78 f0       	brcs	.+30     	; 0x3cf4 <__mulsf3+0x5c>
    3cd6:	89 89       	ldd	r24, Y+17	; 0x11
    3cd8:	82 30       	cpi	r24, 0x02	; 2
    3cda:	c0 f0       	brcs	.+48     	; 0x3d0c <__mulsf3+0x74>
    3cdc:	94 30       	cpi	r25, 0x04	; 4
    3cde:	19 f4       	brne	.+6      	; 0x3ce6 <__mulsf3+0x4e>
    3ce0:	82 30       	cpi	r24, 0x02	; 2
    3ce2:	41 f4       	brne	.+16     	; 0x3cf4 <__mulsf3+0x5c>
    3ce4:	cb c0       	rjmp	.+406    	; 0x3e7c <__mulsf3+0x1e4>
    3ce6:	84 30       	cpi	r24, 0x04	; 4
    3ce8:	19 f4       	brne	.+6      	; 0x3cf0 <__mulsf3+0x58>
    3cea:	92 30       	cpi	r25, 0x02	; 2
    3cec:	79 f4       	brne	.+30     	; 0x3d0c <__mulsf3+0x74>
    3cee:	c6 c0       	rjmp	.+396    	; 0x3e7c <__mulsf3+0x1e4>
    3cf0:	92 30       	cpi	r25, 0x02	; 2
    3cf2:	51 f4       	brne	.+20     	; 0x3d08 <__mulsf3+0x70>
    3cf4:	81 e0       	ldi	r24, 0x01	; 1
    3cf6:	2a 85       	ldd	r18, Y+10	; 0x0a
    3cf8:	9a 89       	ldd	r25, Y+18	; 0x12
    3cfa:	29 17       	cp	r18, r25
    3cfc:	09 f4       	brne	.+2      	; 0x3d00 <__mulsf3+0x68>
    3cfe:	80 e0       	ldi	r24, 0x00	; 0
    3d00:	8a 87       	std	Y+10, r24	; 0x0a
    3d02:	ce 01       	movw	r24, r28
    3d04:	09 96       	adiw	r24, 0x09	; 9
    3d06:	bc c0       	rjmp	.+376    	; 0x3e80 <__mulsf3+0x1e8>
    3d08:	82 30       	cpi	r24, 0x02	; 2
    3d0a:	51 f4       	brne	.+20     	; 0x3d20 <__mulsf3+0x88>
    3d0c:	81 e0       	ldi	r24, 0x01	; 1
    3d0e:	2a 85       	ldd	r18, Y+10	; 0x0a
    3d10:	9a 89       	ldd	r25, Y+18	; 0x12
    3d12:	29 17       	cp	r18, r25
    3d14:	09 f4       	brne	.+2      	; 0x3d18 <__mulsf3+0x80>
    3d16:	80 e0       	ldi	r24, 0x00	; 0
    3d18:	8a 8b       	std	Y+18, r24	; 0x12
    3d1a:	ce 01       	movw	r24, r28
    3d1c:	41 96       	adiw	r24, 0x11	; 17
    3d1e:	b0 c0       	rjmp	.+352    	; 0x3e80 <__mulsf3+0x1e8>
    3d20:	6d 84       	ldd	r6, Y+13	; 0x0d
    3d22:	7e 84       	ldd	r7, Y+14	; 0x0e
    3d24:	8f 84       	ldd	r8, Y+15	; 0x0f
    3d26:	98 88       	ldd	r9, Y+16	; 0x10
    3d28:	ed 88       	ldd	r14, Y+21	; 0x15
    3d2a:	fe 88       	ldd	r15, Y+22	; 0x16
    3d2c:	0f 89       	ldd	r16, Y+23	; 0x17
    3d2e:	18 8d       	ldd	r17, Y+24	; 0x18
    3d30:	e0 e2       	ldi	r30, 0x20	; 32
    3d32:	f0 e0       	ldi	r31, 0x00	; 0
    3d34:	80 e0       	ldi	r24, 0x00	; 0
    3d36:	90 e0       	ldi	r25, 0x00	; 0
    3d38:	dc 01       	movw	r26, r24
    3d3a:	aa 24       	eor	r10, r10
    3d3c:	bb 24       	eor	r11, r11
    3d3e:	65 01       	movw	r12, r10
    3d40:	20 e0       	ldi	r18, 0x00	; 0
    3d42:	30 e0       	ldi	r19, 0x00	; 0
    3d44:	a9 01       	movw	r20, r18
    3d46:	b3 01       	movw	r22, r6
    3d48:	61 70       	andi	r22, 0x01	; 1
    3d4a:	70 70       	andi	r23, 0x00	; 0
    3d4c:	61 15       	cp	r22, r1
    3d4e:	71 05       	cpc	r23, r1
    3d50:	d1 f0       	breq	.+52     	; 0x3d86 <__mulsf3+0xee>
    3d52:	2e 0d       	add	r18, r14
    3d54:	3f 1d       	adc	r19, r15
    3d56:	40 1f       	adc	r20, r16
    3d58:	51 1f       	adc	r21, r17
    3d5a:	15 01       	movw	r2, r10
    3d5c:	26 01       	movw	r4, r12
    3d5e:	28 0e       	add	r2, r24
    3d60:	39 1e       	adc	r3, r25
    3d62:	4a 1e       	adc	r4, r26
    3d64:	5b 1e       	adc	r5, r27
    3d66:	81 e0       	ldi	r24, 0x01	; 1
    3d68:	90 e0       	ldi	r25, 0x00	; 0
    3d6a:	a0 e0       	ldi	r26, 0x00	; 0
    3d6c:	b0 e0       	ldi	r27, 0x00	; 0
    3d6e:	2e 15       	cp	r18, r14
    3d70:	3f 05       	cpc	r19, r15
    3d72:	40 07       	cpc	r20, r16
    3d74:	51 07       	cpc	r21, r17
    3d76:	18 f0       	brcs	.+6      	; 0x3d7e <__mulsf3+0xe6>
    3d78:	80 e0       	ldi	r24, 0x00	; 0
    3d7a:	90 e0       	ldi	r25, 0x00	; 0
    3d7c:	dc 01       	movw	r26, r24
    3d7e:	82 0d       	add	r24, r2
    3d80:	93 1d       	adc	r25, r3
    3d82:	a4 1d       	adc	r26, r4
    3d84:	b5 1d       	adc	r27, r5
    3d86:	aa 0c       	add	r10, r10
    3d88:	bb 1c       	adc	r11, r11
    3d8a:	cc 1c       	adc	r12, r12
    3d8c:	dd 1c       	adc	r13, r13
    3d8e:	17 ff       	sbrs	r17, 7
    3d90:	09 c0       	rjmp	.+18     	; 0x3da4 <__mulsf3+0x10c>
    3d92:	61 e0       	ldi	r22, 0x01	; 1
    3d94:	26 2e       	mov	r2, r22
    3d96:	31 2c       	mov	r3, r1
    3d98:	41 2c       	mov	r4, r1
    3d9a:	51 2c       	mov	r5, r1
    3d9c:	a2 28       	or	r10, r2
    3d9e:	b3 28       	or	r11, r3
    3da0:	c4 28       	or	r12, r4
    3da2:	d5 28       	or	r13, r5
    3da4:	31 97       	sbiw	r30, 0x01	; 1
    3da6:	49 f0       	breq	.+18     	; 0x3dba <__mulsf3+0x122>
    3da8:	ee 0c       	add	r14, r14
    3daa:	ff 1c       	adc	r15, r15
    3dac:	00 1f       	adc	r16, r16
    3dae:	11 1f       	adc	r17, r17
    3db0:	96 94       	lsr	r9
    3db2:	87 94       	ror	r8
    3db4:	77 94       	ror	r7
    3db6:	67 94       	ror	r6
    3db8:	c6 cf       	rjmp	.-116    	; 0x3d46 <__mulsf3+0xae>
    3dba:	6b 89       	ldd	r22, Y+19	; 0x13
    3dbc:	7c 89       	ldd	r23, Y+20	; 0x14
    3dbe:	eb 85       	ldd	r30, Y+11	; 0x0b
    3dc0:	fc 85       	ldd	r31, Y+12	; 0x0c
    3dc2:	6e 0f       	add	r22, r30
    3dc4:	7f 1f       	adc	r23, r31
    3dc6:	6e 5f       	subi	r22, 0xFE	; 254
    3dc8:	7f 4f       	sbci	r23, 0xFF	; 255
    3dca:	7c 8f       	std	Y+28, r23	; 0x1c
    3dcc:	6b 8f       	std	Y+27, r22	; 0x1b
    3dce:	61 e0       	ldi	r22, 0x01	; 1
    3dd0:	ea 85       	ldd	r30, Y+10	; 0x0a
    3dd2:	7a 89       	ldd	r23, Y+18	; 0x12
    3dd4:	e7 17       	cp	r30, r23
    3dd6:	09 f4       	brne	.+2      	; 0x3dda <__mulsf3+0x142>
    3dd8:	60 e0       	ldi	r22, 0x00	; 0
    3dda:	6a 8f       	std	Y+26, r22	; 0x1a
    3ddc:	6b 8d       	ldd	r22, Y+27	; 0x1b
    3dde:	7c 8d       	ldd	r23, Y+28	; 0x1c
    3de0:	10 c0       	rjmp	.+32     	; 0x3e02 <__mulsf3+0x16a>
    3de2:	fc 01       	movw	r30, r24
    3de4:	e1 70       	andi	r30, 0x01	; 1
    3de6:	f0 70       	andi	r31, 0x00	; 0
    3de8:	30 97       	sbiw	r30, 0x00	; 0
    3dea:	29 f0       	breq	.+10     	; 0x3df6 <__mulsf3+0x15e>
    3dec:	56 95       	lsr	r21
    3dee:	47 95       	ror	r20
    3df0:	37 95       	ror	r19
    3df2:	27 95       	ror	r18
    3df4:	50 68       	ori	r21, 0x80	; 128
    3df6:	b6 95       	lsr	r27
    3df8:	a7 95       	ror	r26
    3dfa:	97 95       	ror	r25
    3dfc:	87 95       	ror	r24
    3dfe:	6f 5f       	subi	r22, 0xFF	; 255
    3e00:	7f 4f       	sbci	r23, 0xFF	; 255
    3e02:	b7 fd       	sbrc	r27, 7
    3e04:	ee cf       	rjmp	.-36     	; 0x3de2 <__mulsf3+0x14a>
    3e06:	0c c0       	rjmp	.+24     	; 0x3e20 <__mulsf3+0x188>
    3e08:	88 0f       	add	r24, r24
    3e0a:	99 1f       	adc	r25, r25
    3e0c:	aa 1f       	adc	r26, r26
    3e0e:	bb 1f       	adc	r27, r27
    3e10:	57 fd       	sbrc	r21, 7
    3e12:	81 60       	ori	r24, 0x01	; 1
    3e14:	22 0f       	add	r18, r18
    3e16:	33 1f       	adc	r19, r19
    3e18:	44 1f       	adc	r20, r20
    3e1a:	55 1f       	adc	r21, r21
    3e1c:	61 50       	subi	r22, 0x01	; 1
    3e1e:	70 40       	sbci	r23, 0x00	; 0
    3e20:	80 30       	cpi	r24, 0x00	; 0
    3e22:	e0 e0       	ldi	r30, 0x00	; 0
    3e24:	9e 07       	cpc	r25, r30
    3e26:	e0 e0       	ldi	r30, 0x00	; 0
    3e28:	ae 07       	cpc	r26, r30
    3e2a:	e0 e4       	ldi	r30, 0x40	; 64
    3e2c:	be 07       	cpc	r27, r30
    3e2e:	60 f3       	brcs	.-40     	; 0x3e08 <__mulsf3+0x170>
    3e30:	6b 8f       	std	Y+27, r22	; 0x1b
    3e32:	7c 8f       	std	Y+28, r23	; 0x1c
    3e34:	6f e7       	ldi	r22, 0x7F	; 127
    3e36:	e6 2e       	mov	r14, r22
    3e38:	f1 2c       	mov	r15, r1
    3e3a:	01 2d       	mov	r16, r1
    3e3c:	11 2d       	mov	r17, r1
    3e3e:	e8 22       	and	r14, r24
    3e40:	f9 22       	and	r15, r25
    3e42:	0a 23       	and	r16, r26
    3e44:	1b 23       	and	r17, r27
    3e46:	60 e4       	ldi	r22, 0x40	; 64
    3e48:	e6 16       	cp	r14, r22
    3e4a:	f1 04       	cpc	r15, r1
    3e4c:	01 05       	cpc	r16, r1
    3e4e:	11 05       	cpc	r17, r1
    3e50:	61 f4       	brne	.+24     	; 0x3e6a <__mulsf3+0x1d2>
    3e52:	87 fd       	sbrc	r24, 7
    3e54:	0a c0       	rjmp	.+20     	; 0x3e6a <__mulsf3+0x1d2>
    3e56:	21 15       	cp	r18, r1
    3e58:	31 05       	cpc	r19, r1
    3e5a:	41 05       	cpc	r20, r1
    3e5c:	51 05       	cpc	r21, r1
    3e5e:	29 f0       	breq	.+10     	; 0x3e6a <__mulsf3+0x1d2>
    3e60:	80 5c       	subi	r24, 0xC0	; 192
    3e62:	9f 4f       	sbci	r25, 0xFF	; 255
    3e64:	af 4f       	sbci	r26, 0xFF	; 255
    3e66:	bf 4f       	sbci	r27, 0xFF	; 255
    3e68:	80 78       	andi	r24, 0x80	; 128
    3e6a:	8d 8f       	std	Y+29, r24	; 0x1d
    3e6c:	9e 8f       	std	Y+30, r25	; 0x1e
    3e6e:	af 8f       	std	Y+31, r26	; 0x1f
    3e70:	b8 a3       	std	Y+32, r27	; 0x20
    3e72:	83 e0       	ldi	r24, 0x03	; 3
    3e74:	89 8f       	std	Y+25, r24	; 0x19
    3e76:	ce 01       	movw	r24, r28
    3e78:	49 96       	adiw	r24, 0x19	; 25
    3e7a:	02 c0       	rjmp	.+4      	; 0x3e80 <__mulsf3+0x1e8>
    3e7c:	85 e1       	ldi	r24, 0x15	; 21
    3e7e:	91 e0       	ldi	r25, 0x01	; 1
    3e80:	0e 94 08 22 	call	0x4410	; 0x4410 <__pack_f>
    3e84:	a0 96       	adiw	r28, 0x20	; 32
    3e86:	e2 e1       	ldi	r30, 0x12	; 18
    3e88:	0c 94 17 24 	jmp	0x482e	; 0x482e <__epilogue_restores__>

00003e8c <__divsf3>:
    3e8c:	a8 e1       	ldi	r26, 0x18	; 24
    3e8e:	b0 e0       	ldi	r27, 0x00	; 0
    3e90:	ec e4       	ldi	r30, 0x4C	; 76
    3e92:	ff e1       	ldi	r31, 0x1F	; 31
    3e94:	0c 94 03 24 	jmp	0x4806	; 0x4806 <__prologue_saves__+0x10>
    3e98:	69 83       	std	Y+1, r22	; 0x01
    3e9a:	7a 83       	std	Y+2, r23	; 0x02
    3e9c:	8b 83       	std	Y+3, r24	; 0x03
    3e9e:	9c 83       	std	Y+4, r25	; 0x04
    3ea0:	2d 83       	std	Y+5, r18	; 0x05
    3ea2:	3e 83       	std	Y+6, r19	; 0x06
    3ea4:	4f 83       	std	Y+7, r20	; 0x07
    3ea6:	58 87       	std	Y+8, r21	; 0x08
    3ea8:	8e 01       	movw	r16, r28
    3eaa:	07 5f       	subi	r16, 0xF7	; 247
    3eac:	1f 4f       	sbci	r17, 0xFF	; 255
    3eae:	ce 01       	movw	r24, r28
    3eb0:	01 96       	adiw	r24, 0x01	; 1
    3eb2:	b8 01       	movw	r22, r16
    3eb4:	0e 94 d5 22 	call	0x45aa	; 0x45aa <__unpack_f>
    3eb8:	81 e1       	ldi	r24, 0x11	; 17
    3eba:	e8 2e       	mov	r14, r24
    3ebc:	f1 2c       	mov	r15, r1
    3ebe:	ec 0e       	add	r14, r28
    3ec0:	fd 1e       	adc	r15, r29
    3ec2:	ce 01       	movw	r24, r28
    3ec4:	05 96       	adiw	r24, 0x05	; 5
    3ec6:	b7 01       	movw	r22, r14
    3ec8:	0e 94 d5 22 	call	0x45aa	; 0x45aa <__unpack_f>
    3ecc:	99 85       	ldd	r25, Y+9	; 0x09
    3ece:	92 30       	cpi	r25, 0x02	; 2
    3ed0:	08 f4       	brcc	.+2      	; 0x3ed4 <__divsf3+0x48>
    3ed2:	83 c0       	rjmp	.+262    	; 0x3fda <__divsf3+0x14e>
    3ed4:	89 89       	ldd	r24, Y+17	; 0x11
    3ed6:	82 30       	cpi	r24, 0x02	; 2
    3ed8:	08 f4       	brcc	.+2      	; 0x3edc <__divsf3+0x50>
    3eda:	7b c0       	rjmp	.+246    	; 0x3fd2 <__divsf3+0x146>
    3edc:	2a 85       	ldd	r18, Y+10	; 0x0a
    3ede:	3a 89       	ldd	r19, Y+18	; 0x12
    3ee0:	23 27       	eor	r18, r19
    3ee2:	2a 87       	std	Y+10, r18	; 0x0a
    3ee4:	94 30       	cpi	r25, 0x04	; 4
    3ee6:	11 f0       	breq	.+4      	; 0x3eec <__divsf3+0x60>
    3ee8:	92 30       	cpi	r25, 0x02	; 2
    3eea:	21 f4       	brne	.+8      	; 0x3ef4 <__divsf3+0x68>
    3eec:	98 17       	cp	r25, r24
    3eee:	09 f0       	breq	.+2      	; 0x3ef2 <__divsf3+0x66>
    3ef0:	6c c0       	rjmp	.+216    	; 0x3fca <__divsf3+0x13e>
    3ef2:	71 c0       	rjmp	.+226    	; 0x3fd6 <__divsf3+0x14a>
    3ef4:	84 30       	cpi	r24, 0x04	; 4
    3ef6:	39 f4       	brne	.+14     	; 0x3f06 <__divsf3+0x7a>
    3ef8:	1d 86       	std	Y+13, r1	; 0x0d
    3efa:	1e 86       	std	Y+14, r1	; 0x0e
    3efc:	1f 86       	std	Y+15, r1	; 0x0f
    3efe:	18 8a       	std	Y+16, r1	; 0x10
    3f00:	1c 86       	std	Y+12, r1	; 0x0c
    3f02:	1b 86       	std	Y+11, r1	; 0x0b
    3f04:	6a c0       	rjmp	.+212    	; 0x3fda <__divsf3+0x14e>
    3f06:	82 30       	cpi	r24, 0x02	; 2
    3f08:	19 f4       	brne	.+6      	; 0x3f10 <__divsf3+0x84>
    3f0a:	84 e0       	ldi	r24, 0x04	; 4
    3f0c:	89 87       	std	Y+9, r24	; 0x09
    3f0e:	65 c0       	rjmp	.+202    	; 0x3fda <__divsf3+0x14e>
    3f10:	8b 85       	ldd	r24, Y+11	; 0x0b
    3f12:	9c 85       	ldd	r25, Y+12	; 0x0c
    3f14:	2b 89       	ldd	r18, Y+19	; 0x13
    3f16:	3c 89       	ldd	r19, Y+20	; 0x14
    3f18:	82 1b       	sub	r24, r18
    3f1a:	93 0b       	sbc	r25, r19
    3f1c:	9c 87       	std	Y+12, r25	; 0x0c
    3f1e:	8b 87       	std	Y+11, r24	; 0x0b
    3f20:	2d 85       	ldd	r18, Y+13	; 0x0d
    3f22:	3e 85       	ldd	r19, Y+14	; 0x0e
    3f24:	4f 85       	ldd	r20, Y+15	; 0x0f
    3f26:	58 89       	ldd	r21, Y+16	; 0x10
    3f28:	ed 88       	ldd	r14, Y+21	; 0x15
    3f2a:	fe 88       	ldd	r15, Y+22	; 0x16
    3f2c:	0f 89       	ldd	r16, Y+23	; 0x17
    3f2e:	18 8d       	ldd	r17, Y+24	; 0x18
    3f30:	2e 15       	cp	r18, r14
    3f32:	3f 05       	cpc	r19, r15
    3f34:	40 07       	cpc	r20, r16
    3f36:	51 07       	cpc	r21, r17
    3f38:	38 f4       	brcc	.+14     	; 0x3f48 <__divsf3+0xbc>
    3f3a:	22 0f       	add	r18, r18
    3f3c:	33 1f       	adc	r19, r19
    3f3e:	44 1f       	adc	r20, r20
    3f40:	55 1f       	adc	r21, r21
    3f42:	01 97       	sbiw	r24, 0x01	; 1
    3f44:	9c 87       	std	Y+12, r25	; 0x0c
    3f46:	8b 87       	std	Y+11, r24	; 0x0b
    3f48:	6f e1       	ldi	r22, 0x1F	; 31
    3f4a:	70 e0       	ldi	r23, 0x00	; 0
    3f4c:	a1 2c       	mov	r10, r1
    3f4e:	b1 2c       	mov	r11, r1
    3f50:	c1 2c       	mov	r12, r1
    3f52:	a0 e4       	ldi	r26, 0x40	; 64
    3f54:	da 2e       	mov	r13, r26
    3f56:	80 e0       	ldi	r24, 0x00	; 0
    3f58:	90 e0       	ldi	r25, 0x00	; 0
    3f5a:	dc 01       	movw	r26, r24
    3f5c:	2e 15       	cp	r18, r14
    3f5e:	3f 05       	cpc	r19, r15
    3f60:	40 07       	cpc	r20, r16
    3f62:	51 07       	cpc	r21, r17
    3f64:	40 f0       	brcs	.+16     	; 0x3f76 <__divsf3+0xea>
    3f66:	8a 29       	or	r24, r10
    3f68:	9b 29       	or	r25, r11
    3f6a:	ac 29       	or	r26, r12
    3f6c:	bd 29       	or	r27, r13
    3f6e:	2e 19       	sub	r18, r14
    3f70:	3f 09       	sbc	r19, r15
    3f72:	40 0b       	sbc	r20, r16
    3f74:	51 0b       	sbc	r21, r17
    3f76:	d6 94       	lsr	r13
    3f78:	c7 94       	ror	r12
    3f7a:	b7 94       	ror	r11
    3f7c:	a7 94       	ror	r10
    3f7e:	22 0f       	add	r18, r18
    3f80:	33 1f       	adc	r19, r19
    3f82:	44 1f       	adc	r20, r20
    3f84:	55 1f       	adc	r21, r21
    3f86:	61 50       	subi	r22, 0x01	; 1
    3f88:	70 40       	sbci	r23, 0x00	; 0
    3f8a:	41 f7       	brne	.-48     	; 0x3f5c <__divsf3+0xd0>
    3f8c:	6f e7       	ldi	r22, 0x7F	; 127
    3f8e:	e6 2e       	mov	r14, r22
    3f90:	f1 2c       	mov	r15, r1
    3f92:	01 2d       	mov	r16, r1
    3f94:	11 2d       	mov	r17, r1
    3f96:	e8 22       	and	r14, r24
    3f98:	f9 22       	and	r15, r25
    3f9a:	0a 23       	and	r16, r26
    3f9c:	1b 23       	and	r17, r27
    3f9e:	60 e4       	ldi	r22, 0x40	; 64
    3fa0:	e6 16       	cp	r14, r22
    3fa2:	f1 04       	cpc	r15, r1
    3fa4:	01 05       	cpc	r16, r1
    3fa6:	11 05       	cpc	r17, r1
    3fa8:	61 f4       	brne	.+24     	; 0x3fc2 <__divsf3+0x136>
    3faa:	87 fd       	sbrc	r24, 7
    3fac:	0a c0       	rjmp	.+20     	; 0x3fc2 <__divsf3+0x136>
    3fae:	21 15       	cp	r18, r1
    3fb0:	31 05       	cpc	r19, r1
    3fb2:	41 05       	cpc	r20, r1
    3fb4:	51 05       	cpc	r21, r1
    3fb6:	29 f0       	breq	.+10     	; 0x3fc2 <__divsf3+0x136>
    3fb8:	80 5c       	subi	r24, 0xC0	; 192
    3fba:	9f 4f       	sbci	r25, 0xFF	; 255
    3fbc:	af 4f       	sbci	r26, 0xFF	; 255
    3fbe:	bf 4f       	sbci	r27, 0xFF	; 255
    3fc0:	80 78       	andi	r24, 0x80	; 128
    3fc2:	8d 87       	std	Y+13, r24	; 0x0d
    3fc4:	9e 87       	std	Y+14, r25	; 0x0e
    3fc6:	af 87       	std	Y+15, r26	; 0x0f
    3fc8:	b8 8b       	std	Y+16, r27	; 0x10
    3fca:	8e 01       	movw	r16, r28
    3fcc:	07 5f       	subi	r16, 0xF7	; 247
    3fce:	1f 4f       	sbci	r17, 0xFF	; 255
    3fd0:	04 c0       	rjmp	.+8      	; 0x3fda <__divsf3+0x14e>
    3fd2:	87 01       	movw	r16, r14
    3fd4:	02 c0       	rjmp	.+4      	; 0x3fda <__divsf3+0x14e>
    3fd6:	05 e1       	ldi	r16, 0x15	; 21
    3fd8:	11 e0       	ldi	r17, 0x01	; 1
    3fda:	c8 01       	movw	r24, r16
    3fdc:	0e 94 08 22 	call	0x4410	; 0x4410 <__pack_f>
    3fe0:	68 96       	adiw	r28, 0x18	; 24
    3fe2:	ea e0       	ldi	r30, 0x0A	; 10
    3fe4:	0c 94 1f 24 	jmp	0x483e	; 0x483e <__epilogue_restores__+0x10>

00003fe8 <__gtsf2>:
    3fe8:	a8 e1       	ldi	r26, 0x18	; 24
    3fea:	b0 e0       	ldi	r27, 0x00	; 0
    3fec:	ea ef       	ldi	r30, 0xFA	; 250
    3fee:	ff e1       	ldi	r31, 0x1F	; 31
    3ff0:	0c 94 07 24 	jmp	0x480e	; 0x480e <__prologue_saves__+0x18>
    3ff4:	69 83       	std	Y+1, r22	; 0x01
    3ff6:	7a 83       	std	Y+2, r23	; 0x02
    3ff8:	8b 83       	std	Y+3, r24	; 0x03
    3ffa:	9c 83       	std	Y+4, r25	; 0x04
    3ffc:	2d 83       	std	Y+5, r18	; 0x05
    3ffe:	3e 83       	std	Y+6, r19	; 0x06
    4000:	4f 83       	std	Y+7, r20	; 0x07
    4002:	58 87       	std	Y+8, r21	; 0x08
    4004:	8e 01       	movw	r16, r28
    4006:	07 5f       	subi	r16, 0xF7	; 247
    4008:	1f 4f       	sbci	r17, 0xFF	; 255
    400a:	ce 01       	movw	r24, r28
    400c:	01 96       	adiw	r24, 0x01	; 1
    400e:	b8 01       	movw	r22, r16
    4010:	0e 94 d5 22 	call	0x45aa	; 0x45aa <__unpack_f>
    4014:	81 e1       	ldi	r24, 0x11	; 17
    4016:	e8 2e       	mov	r14, r24
    4018:	f1 2c       	mov	r15, r1
    401a:	ec 0e       	add	r14, r28
    401c:	fd 1e       	adc	r15, r29
    401e:	ce 01       	movw	r24, r28
    4020:	05 96       	adiw	r24, 0x05	; 5
    4022:	b7 01       	movw	r22, r14
    4024:	0e 94 d5 22 	call	0x45aa	; 0x45aa <__unpack_f>
    4028:	89 85       	ldd	r24, Y+9	; 0x09
    402a:	82 30       	cpi	r24, 0x02	; 2
    402c:	40 f0       	brcs	.+16     	; 0x403e <__gtsf2+0x56>
    402e:	89 89       	ldd	r24, Y+17	; 0x11
    4030:	82 30       	cpi	r24, 0x02	; 2
    4032:	28 f0       	brcs	.+10     	; 0x403e <__gtsf2+0x56>
    4034:	c8 01       	movw	r24, r16
    4036:	b7 01       	movw	r22, r14
    4038:	0e 94 3e 23 	call	0x467c	; 0x467c <__fpcmp_parts_f>
    403c:	01 c0       	rjmp	.+2      	; 0x4040 <__gtsf2+0x58>
    403e:	8f ef       	ldi	r24, 0xFF	; 255
    4040:	68 96       	adiw	r28, 0x18	; 24
    4042:	e6 e0       	ldi	r30, 0x06	; 6
    4044:	0c 94 23 24 	jmp	0x4846	; 0x4846 <__epilogue_restores__+0x18>

00004048 <__gesf2>:
    4048:	a8 e1       	ldi	r26, 0x18	; 24
    404a:	b0 e0       	ldi	r27, 0x00	; 0
    404c:	ea e2       	ldi	r30, 0x2A	; 42
    404e:	f0 e2       	ldi	r31, 0x20	; 32
    4050:	0c 94 07 24 	jmp	0x480e	; 0x480e <__prologue_saves__+0x18>
    4054:	69 83       	std	Y+1, r22	; 0x01
    4056:	7a 83       	std	Y+2, r23	; 0x02
    4058:	8b 83       	std	Y+3, r24	; 0x03
    405a:	9c 83       	std	Y+4, r25	; 0x04
    405c:	2d 83       	std	Y+5, r18	; 0x05
    405e:	3e 83       	std	Y+6, r19	; 0x06
    4060:	4f 83       	std	Y+7, r20	; 0x07
    4062:	58 87       	std	Y+8, r21	; 0x08
    4064:	8e 01       	movw	r16, r28
    4066:	07 5f       	subi	r16, 0xF7	; 247
    4068:	1f 4f       	sbci	r17, 0xFF	; 255
    406a:	ce 01       	movw	r24, r28
    406c:	01 96       	adiw	r24, 0x01	; 1
    406e:	b8 01       	movw	r22, r16
    4070:	0e 94 d5 22 	call	0x45aa	; 0x45aa <__unpack_f>
    4074:	81 e1       	ldi	r24, 0x11	; 17
    4076:	e8 2e       	mov	r14, r24
    4078:	f1 2c       	mov	r15, r1
    407a:	ec 0e       	add	r14, r28
    407c:	fd 1e       	adc	r15, r29
    407e:	ce 01       	movw	r24, r28
    4080:	05 96       	adiw	r24, 0x05	; 5
    4082:	b7 01       	movw	r22, r14
    4084:	0e 94 d5 22 	call	0x45aa	; 0x45aa <__unpack_f>
    4088:	89 85       	ldd	r24, Y+9	; 0x09
    408a:	82 30       	cpi	r24, 0x02	; 2
    408c:	40 f0       	brcs	.+16     	; 0x409e <__gesf2+0x56>
    408e:	89 89       	ldd	r24, Y+17	; 0x11
    4090:	82 30       	cpi	r24, 0x02	; 2
    4092:	28 f0       	brcs	.+10     	; 0x409e <__gesf2+0x56>
    4094:	c8 01       	movw	r24, r16
    4096:	b7 01       	movw	r22, r14
    4098:	0e 94 3e 23 	call	0x467c	; 0x467c <__fpcmp_parts_f>
    409c:	01 c0       	rjmp	.+2      	; 0x40a0 <__gesf2+0x58>
    409e:	8f ef       	ldi	r24, 0xFF	; 255
    40a0:	68 96       	adiw	r28, 0x18	; 24
    40a2:	e6 e0       	ldi	r30, 0x06	; 6
    40a4:	0c 94 23 24 	jmp	0x4846	; 0x4846 <__epilogue_restores__+0x18>

000040a8 <__ltsf2>:
    40a8:	a8 e1       	ldi	r26, 0x18	; 24
    40aa:	b0 e0       	ldi	r27, 0x00	; 0
    40ac:	ea e5       	ldi	r30, 0x5A	; 90
    40ae:	f0 e2       	ldi	r31, 0x20	; 32
    40b0:	0c 94 07 24 	jmp	0x480e	; 0x480e <__prologue_saves__+0x18>
    40b4:	69 83       	std	Y+1, r22	; 0x01
    40b6:	7a 83       	std	Y+2, r23	; 0x02
    40b8:	8b 83       	std	Y+3, r24	; 0x03
    40ba:	9c 83       	std	Y+4, r25	; 0x04
    40bc:	2d 83       	std	Y+5, r18	; 0x05
    40be:	3e 83       	std	Y+6, r19	; 0x06
    40c0:	4f 83       	std	Y+7, r20	; 0x07
    40c2:	58 87       	std	Y+8, r21	; 0x08
    40c4:	8e 01       	movw	r16, r28
    40c6:	07 5f       	subi	r16, 0xF7	; 247
    40c8:	1f 4f       	sbci	r17, 0xFF	; 255
    40ca:	ce 01       	movw	r24, r28
    40cc:	01 96       	adiw	r24, 0x01	; 1
    40ce:	b8 01       	movw	r22, r16
    40d0:	0e 94 d5 22 	call	0x45aa	; 0x45aa <__unpack_f>
    40d4:	81 e1       	ldi	r24, 0x11	; 17
    40d6:	e8 2e       	mov	r14, r24
    40d8:	f1 2c       	mov	r15, r1
    40da:	ec 0e       	add	r14, r28
    40dc:	fd 1e       	adc	r15, r29
    40de:	ce 01       	movw	r24, r28
    40e0:	05 96       	adiw	r24, 0x05	; 5
    40e2:	b7 01       	movw	r22, r14
    40e4:	0e 94 d5 22 	call	0x45aa	; 0x45aa <__unpack_f>
    40e8:	89 85       	ldd	r24, Y+9	; 0x09
    40ea:	82 30       	cpi	r24, 0x02	; 2
    40ec:	40 f0       	brcs	.+16     	; 0x40fe <__ltsf2+0x56>
    40ee:	89 89       	ldd	r24, Y+17	; 0x11
    40f0:	82 30       	cpi	r24, 0x02	; 2
    40f2:	28 f0       	brcs	.+10     	; 0x40fe <__ltsf2+0x56>
    40f4:	c8 01       	movw	r24, r16
    40f6:	b7 01       	movw	r22, r14
    40f8:	0e 94 3e 23 	call	0x467c	; 0x467c <__fpcmp_parts_f>
    40fc:	01 c0       	rjmp	.+2      	; 0x4100 <__ltsf2+0x58>
    40fe:	81 e0       	ldi	r24, 0x01	; 1
    4100:	68 96       	adiw	r28, 0x18	; 24
    4102:	e6 e0       	ldi	r30, 0x06	; 6
    4104:	0c 94 23 24 	jmp	0x4846	; 0x4846 <__epilogue_restores__+0x18>

00004108 <__floatsisf>:
    4108:	a8 e0       	ldi	r26, 0x08	; 8
    410a:	b0 e0       	ldi	r27, 0x00	; 0
    410c:	ea e8       	ldi	r30, 0x8A	; 138
    410e:	f0 e2       	ldi	r31, 0x20	; 32
    4110:	0c 94 07 24 	jmp	0x480e	; 0x480e <__prologue_saves__+0x18>
    4114:	7b 01       	movw	r14, r22
    4116:	8c 01       	movw	r16, r24
    4118:	83 e0       	ldi	r24, 0x03	; 3
    411a:	89 83       	std	Y+1, r24	; 0x01
    411c:	d8 01       	movw	r26, r16
    411e:	c7 01       	movw	r24, r14
    4120:	88 27       	eor	r24, r24
    4122:	b7 fd       	sbrc	r27, 7
    4124:	83 95       	inc	r24
    4126:	99 27       	eor	r25, r25
    4128:	aa 27       	eor	r26, r26
    412a:	bb 27       	eor	r27, r27
    412c:	28 2f       	mov	r18, r24
    412e:	8a 83       	std	Y+2, r24	; 0x02
    4130:	e1 14       	cp	r14, r1
    4132:	f1 04       	cpc	r15, r1
    4134:	01 05       	cpc	r16, r1
    4136:	11 05       	cpc	r17, r1
    4138:	19 f4       	brne	.+6      	; 0x4140 <__floatsisf+0x38>
    413a:	82 e0       	ldi	r24, 0x02	; 2
    413c:	89 83       	std	Y+1, r24	; 0x01
    413e:	37 c0       	rjmp	.+110    	; 0x41ae <__floatsisf+0xa6>
    4140:	8e e1       	ldi	r24, 0x1E	; 30
    4142:	90 e0       	ldi	r25, 0x00	; 0
    4144:	9c 83       	std	Y+4, r25	; 0x04
    4146:	8b 83       	std	Y+3, r24	; 0x03
    4148:	22 23       	and	r18, r18
    414a:	89 f0       	breq	.+34     	; 0x416e <__floatsisf+0x66>
    414c:	80 e0       	ldi	r24, 0x00	; 0
    414e:	e8 16       	cp	r14, r24
    4150:	80 e0       	ldi	r24, 0x00	; 0
    4152:	f8 06       	cpc	r15, r24
    4154:	80 e0       	ldi	r24, 0x00	; 0
    4156:	08 07       	cpc	r16, r24
    4158:	80 e8       	ldi	r24, 0x80	; 128
    415a:	18 07       	cpc	r17, r24
    415c:	69 f1       	breq	.+90     	; 0x41b8 <__floatsisf+0xb0>
    415e:	10 95       	com	r17
    4160:	00 95       	com	r16
    4162:	f0 94       	com	r15
    4164:	e0 94       	com	r14
    4166:	e1 1c       	adc	r14, r1
    4168:	f1 1c       	adc	r15, r1
    416a:	01 1d       	adc	r16, r1
    416c:	11 1d       	adc	r17, r1
    416e:	ed 82       	std	Y+5, r14	; 0x05
    4170:	fe 82       	std	Y+6, r15	; 0x06
    4172:	0f 83       	std	Y+7, r16	; 0x07
    4174:	18 87       	std	Y+8, r17	; 0x08
    4176:	c8 01       	movw	r24, r16
    4178:	b7 01       	movw	r22, r14
    417a:	0e 94 ae 21 	call	0x435c	; 0x435c <__clzsi2>
    417e:	9c 01       	movw	r18, r24
    4180:	21 50       	subi	r18, 0x01	; 1
    4182:	30 40       	sbci	r19, 0x00	; 0
    4184:	12 16       	cp	r1, r18
    4186:	13 06       	cpc	r1, r19
    4188:	94 f4       	brge	.+36     	; 0x41ae <__floatsisf+0xa6>
    418a:	02 2e       	mov	r0, r18
    418c:	04 c0       	rjmp	.+8      	; 0x4196 <__floatsisf+0x8e>
    418e:	ee 0c       	add	r14, r14
    4190:	ff 1c       	adc	r15, r15
    4192:	00 1f       	adc	r16, r16
    4194:	11 1f       	adc	r17, r17
    4196:	0a 94       	dec	r0
    4198:	d2 f7       	brpl	.-12     	; 0x418e <__floatsisf+0x86>
    419a:	ed 82       	std	Y+5, r14	; 0x05
    419c:	fe 82       	std	Y+6, r15	; 0x06
    419e:	0f 83       	std	Y+7, r16	; 0x07
    41a0:	18 87       	std	Y+8, r17	; 0x08
    41a2:	8e e1       	ldi	r24, 0x1E	; 30
    41a4:	90 e0       	ldi	r25, 0x00	; 0
    41a6:	82 1b       	sub	r24, r18
    41a8:	93 0b       	sbc	r25, r19
    41aa:	9c 83       	std	Y+4, r25	; 0x04
    41ac:	8b 83       	std	Y+3, r24	; 0x03
    41ae:	ce 01       	movw	r24, r28
    41b0:	01 96       	adiw	r24, 0x01	; 1
    41b2:	0e 94 08 22 	call	0x4410	; 0x4410 <__pack_f>
    41b6:	04 c0       	rjmp	.+8      	; 0x41c0 <__floatsisf+0xb8>
    41b8:	60 e0       	ldi	r22, 0x00	; 0
    41ba:	70 e0       	ldi	r23, 0x00	; 0
    41bc:	80 e0       	ldi	r24, 0x00	; 0
    41be:	9f ec       	ldi	r25, 0xCF	; 207
    41c0:	28 96       	adiw	r28, 0x08	; 8
    41c2:	e6 e0       	ldi	r30, 0x06	; 6
    41c4:	0c 94 23 24 	jmp	0x4846	; 0x4846 <__epilogue_restores__+0x18>

000041c8 <__fixsfsi>:
    41c8:	ac e0       	ldi	r26, 0x0C	; 12
    41ca:	b0 e0       	ldi	r27, 0x00	; 0
    41cc:	ea ee       	ldi	r30, 0xEA	; 234
    41ce:	f0 e2       	ldi	r31, 0x20	; 32
    41d0:	0c 94 0b 24 	jmp	0x4816	; 0x4816 <__prologue_saves__+0x20>
    41d4:	69 83       	std	Y+1, r22	; 0x01
    41d6:	7a 83       	std	Y+2, r23	; 0x02
    41d8:	8b 83       	std	Y+3, r24	; 0x03
    41da:	9c 83       	std	Y+4, r25	; 0x04
    41dc:	ce 01       	movw	r24, r28
    41de:	01 96       	adiw	r24, 0x01	; 1
    41e0:	be 01       	movw	r22, r28
    41e2:	6b 5f       	subi	r22, 0xFB	; 251
    41e4:	7f 4f       	sbci	r23, 0xFF	; 255
    41e6:	0e 94 d5 22 	call	0x45aa	; 0x45aa <__unpack_f>
    41ea:	8d 81       	ldd	r24, Y+5	; 0x05
    41ec:	82 30       	cpi	r24, 0x02	; 2
    41ee:	81 f1       	breq	.+96     	; 0x4250 <__fixsfsi+0x88>
    41f0:	82 30       	cpi	r24, 0x02	; 2
    41f2:	70 f1       	brcs	.+92     	; 0x4250 <__fixsfsi+0x88>
    41f4:	84 30       	cpi	r24, 0x04	; 4
    41f6:	21 f4       	brne	.+8      	; 0x4200 <__fixsfsi+0x38>
    41f8:	8e 81       	ldd	r24, Y+6	; 0x06
    41fa:	88 23       	and	r24, r24
    41fc:	69 f1       	breq	.+90     	; 0x4258 <__fixsfsi+0x90>
    41fe:	0a c0       	rjmp	.+20     	; 0x4214 <__fixsfsi+0x4c>
    4200:	2f 81       	ldd	r18, Y+7	; 0x07
    4202:	38 85       	ldd	r19, Y+8	; 0x08
    4204:	37 fd       	sbrc	r19, 7
    4206:	24 c0       	rjmp	.+72     	; 0x4250 <__fixsfsi+0x88>
    4208:	6e 81       	ldd	r22, Y+6	; 0x06
    420a:	2f 31       	cpi	r18, 0x1F	; 31
    420c:	31 05       	cpc	r19, r1
    420e:	3c f0       	brlt	.+14     	; 0x421e <__fixsfsi+0x56>
    4210:	66 23       	and	r22, r22
    4212:	11 f1       	breq	.+68     	; 0x4258 <__fixsfsi+0x90>
    4214:	20 e0       	ldi	r18, 0x00	; 0
    4216:	30 e0       	ldi	r19, 0x00	; 0
    4218:	40 e0       	ldi	r20, 0x00	; 0
    421a:	50 e8       	ldi	r21, 0x80	; 128
    421c:	21 c0       	rjmp	.+66     	; 0x4260 <__fixsfsi+0x98>
    421e:	8e e1       	ldi	r24, 0x1E	; 30
    4220:	90 e0       	ldi	r25, 0x00	; 0
    4222:	82 1b       	sub	r24, r18
    4224:	93 0b       	sbc	r25, r19
    4226:	29 85       	ldd	r18, Y+9	; 0x09
    4228:	3a 85       	ldd	r19, Y+10	; 0x0a
    422a:	4b 85       	ldd	r20, Y+11	; 0x0b
    422c:	5c 85       	ldd	r21, Y+12	; 0x0c
    422e:	04 c0       	rjmp	.+8      	; 0x4238 <__fixsfsi+0x70>
    4230:	56 95       	lsr	r21
    4232:	47 95       	ror	r20
    4234:	37 95       	ror	r19
    4236:	27 95       	ror	r18
    4238:	8a 95       	dec	r24
    423a:	d2 f7       	brpl	.-12     	; 0x4230 <__fixsfsi+0x68>
    423c:	66 23       	and	r22, r22
    423e:	81 f0       	breq	.+32     	; 0x4260 <__fixsfsi+0x98>
    4240:	50 95       	com	r21
    4242:	40 95       	com	r20
    4244:	30 95       	com	r19
    4246:	21 95       	neg	r18
    4248:	3f 4f       	sbci	r19, 0xFF	; 255
    424a:	4f 4f       	sbci	r20, 0xFF	; 255
    424c:	5f 4f       	sbci	r21, 0xFF	; 255
    424e:	08 c0       	rjmp	.+16     	; 0x4260 <__fixsfsi+0x98>
    4250:	20 e0       	ldi	r18, 0x00	; 0
    4252:	30 e0       	ldi	r19, 0x00	; 0
    4254:	a9 01       	movw	r20, r18
    4256:	04 c0       	rjmp	.+8      	; 0x4260 <__fixsfsi+0x98>
    4258:	2f ef       	ldi	r18, 0xFF	; 255
    425a:	3f ef       	ldi	r19, 0xFF	; 255
    425c:	4f ef       	ldi	r20, 0xFF	; 255
    425e:	5f e7       	ldi	r21, 0x7F	; 127
    4260:	b9 01       	movw	r22, r18
    4262:	ca 01       	movw	r24, r20
    4264:	2c 96       	adiw	r28, 0x0c	; 12
    4266:	e2 e0       	ldi	r30, 0x02	; 2
    4268:	0c 94 27 24 	jmp	0x484e	; 0x484e <__epilogue_restores__+0x20>

0000426c <__floatunsisf>:
    426c:	a8 e0       	ldi	r26, 0x08	; 8
    426e:	b0 e0       	ldi	r27, 0x00	; 0
    4270:	ec e3       	ldi	r30, 0x3C	; 60
    4272:	f1 e2       	ldi	r31, 0x21	; 33
    4274:	0c 94 05 24 	jmp	0x480a	; 0x480a <__prologue_saves__+0x14>
    4278:	7b 01       	movw	r14, r22
    427a:	8c 01       	movw	r16, r24
    427c:	1a 82       	std	Y+2, r1	; 0x02
    427e:	61 15       	cp	r22, r1
    4280:	71 05       	cpc	r23, r1
    4282:	81 05       	cpc	r24, r1
    4284:	91 05       	cpc	r25, r1
    4286:	19 f4       	brne	.+6      	; 0x428e <__floatunsisf+0x22>
    4288:	82 e0       	ldi	r24, 0x02	; 2
    428a:	89 83       	std	Y+1, r24	; 0x01
    428c:	5f c0       	rjmp	.+190    	; 0x434c <__floatunsisf+0xe0>
    428e:	83 e0       	ldi	r24, 0x03	; 3
    4290:	89 83       	std	Y+1, r24	; 0x01
    4292:	8e e1       	ldi	r24, 0x1E	; 30
    4294:	c8 2e       	mov	r12, r24
    4296:	d1 2c       	mov	r13, r1
    4298:	dc 82       	std	Y+4, r13	; 0x04
    429a:	cb 82       	std	Y+3, r12	; 0x03
    429c:	ed 82       	std	Y+5, r14	; 0x05
    429e:	fe 82       	std	Y+6, r15	; 0x06
    42a0:	0f 83       	std	Y+7, r16	; 0x07
    42a2:	18 87       	std	Y+8, r17	; 0x08
    42a4:	c8 01       	movw	r24, r16
    42a6:	b7 01       	movw	r22, r14
    42a8:	0e 94 ae 21 	call	0x435c	; 0x435c <__clzsi2>
    42ac:	fc 01       	movw	r30, r24
    42ae:	31 97       	sbiw	r30, 0x01	; 1
    42b0:	f7 ff       	sbrs	r31, 7
    42b2:	3a c0       	rjmp	.+116    	; 0x4328 <__floatunsisf+0xbc>
    42b4:	aa 27       	eor	r26, r26
    42b6:	bb 27       	eor	r27, r27
    42b8:	ae 1b       	sub	r26, r30
    42ba:	bf 0b       	sbc	r27, r31
    42bc:	21 e0       	ldi	r18, 0x01	; 1
    42be:	30 e0       	ldi	r19, 0x00	; 0
    42c0:	40 e0       	ldi	r20, 0x00	; 0
    42c2:	50 e0       	ldi	r21, 0x00	; 0
    42c4:	0a 2e       	mov	r0, r26
    42c6:	04 c0       	rjmp	.+8      	; 0x42d0 <__floatunsisf+0x64>
    42c8:	22 0f       	add	r18, r18
    42ca:	33 1f       	adc	r19, r19
    42cc:	44 1f       	adc	r20, r20
    42ce:	55 1f       	adc	r21, r21
    42d0:	0a 94       	dec	r0
    42d2:	d2 f7       	brpl	.-12     	; 0x42c8 <__floatunsisf+0x5c>
    42d4:	21 50       	subi	r18, 0x01	; 1
    42d6:	30 40       	sbci	r19, 0x00	; 0
    42d8:	40 40       	sbci	r20, 0x00	; 0
    42da:	50 40       	sbci	r21, 0x00	; 0
    42dc:	2e 21       	and	r18, r14
    42de:	3f 21       	and	r19, r15
    42e0:	40 23       	and	r20, r16
    42e2:	51 23       	and	r21, r17
    42e4:	61 e0       	ldi	r22, 0x01	; 1
    42e6:	70 e0       	ldi	r23, 0x00	; 0
    42e8:	80 e0       	ldi	r24, 0x00	; 0
    42ea:	90 e0       	ldi	r25, 0x00	; 0
    42ec:	21 15       	cp	r18, r1
    42ee:	31 05       	cpc	r19, r1
    42f0:	41 05       	cpc	r20, r1
    42f2:	51 05       	cpc	r21, r1
    42f4:	19 f4       	brne	.+6      	; 0x42fc <__floatunsisf+0x90>
    42f6:	60 e0       	ldi	r22, 0x00	; 0
    42f8:	70 e0       	ldi	r23, 0x00	; 0
    42fa:	cb 01       	movw	r24, r22
    42fc:	04 c0       	rjmp	.+8      	; 0x4306 <__floatunsisf+0x9a>
    42fe:	16 95       	lsr	r17
    4300:	07 95       	ror	r16
    4302:	f7 94       	ror	r15
    4304:	e7 94       	ror	r14
    4306:	aa 95       	dec	r26
    4308:	d2 f7       	brpl	.-12     	; 0x42fe <__floatunsisf+0x92>
    430a:	e6 2a       	or	r14, r22
    430c:	f7 2a       	or	r15, r23
    430e:	08 2b       	or	r16, r24
    4310:	19 2b       	or	r17, r25
    4312:	ed 82       	std	Y+5, r14	; 0x05
    4314:	fe 82       	std	Y+6, r15	; 0x06
    4316:	0f 83       	std	Y+7, r16	; 0x07
    4318:	18 87       	std	Y+8, r17	; 0x08
    431a:	8e e1       	ldi	r24, 0x1E	; 30
    431c:	90 e0       	ldi	r25, 0x00	; 0
    431e:	8e 1b       	sub	r24, r30
    4320:	9f 0b       	sbc	r25, r31
    4322:	9c 83       	std	Y+4, r25	; 0x04
    4324:	8b 83       	std	Y+3, r24	; 0x03
    4326:	12 c0       	rjmp	.+36     	; 0x434c <__floatunsisf+0xe0>
    4328:	30 97       	sbiw	r30, 0x00	; 0
    432a:	81 f0       	breq	.+32     	; 0x434c <__floatunsisf+0xe0>
    432c:	0e 2e       	mov	r0, r30
    432e:	04 c0       	rjmp	.+8      	; 0x4338 <__floatunsisf+0xcc>
    4330:	ee 0c       	add	r14, r14
    4332:	ff 1c       	adc	r15, r15
    4334:	00 1f       	adc	r16, r16
    4336:	11 1f       	adc	r17, r17
    4338:	0a 94       	dec	r0
    433a:	d2 f7       	brpl	.-12     	; 0x4330 <__floatunsisf+0xc4>
    433c:	ed 82       	std	Y+5, r14	; 0x05
    433e:	fe 82       	std	Y+6, r15	; 0x06
    4340:	0f 83       	std	Y+7, r16	; 0x07
    4342:	18 87       	std	Y+8, r17	; 0x08
    4344:	ce 1a       	sub	r12, r30
    4346:	df 0a       	sbc	r13, r31
    4348:	dc 82       	std	Y+4, r13	; 0x04
    434a:	cb 82       	std	Y+3, r12	; 0x03
    434c:	ce 01       	movw	r24, r28
    434e:	01 96       	adiw	r24, 0x01	; 1
    4350:	0e 94 08 22 	call	0x4410	; 0x4410 <__pack_f>
    4354:	28 96       	adiw	r28, 0x08	; 8
    4356:	e8 e0       	ldi	r30, 0x08	; 8
    4358:	0c 94 21 24 	jmp	0x4842	; 0x4842 <__epilogue_restores__+0x14>

0000435c <__clzsi2>:
    435c:	af 92       	push	r10
    435e:	bf 92       	push	r11
    4360:	cf 92       	push	r12
    4362:	df 92       	push	r13
    4364:	ef 92       	push	r14
    4366:	ff 92       	push	r15
    4368:	0f 93       	push	r16
    436a:	1f 93       	push	r17
    436c:	7b 01       	movw	r14, r22
    436e:	8c 01       	movw	r16, r24
    4370:	80 e0       	ldi	r24, 0x00	; 0
    4372:	e8 16       	cp	r14, r24
    4374:	80 e0       	ldi	r24, 0x00	; 0
    4376:	f8 06       	cpc	r15, r24
    4378:	81 e0       	ldi	r24, 0x01	; 1
    437a:	08 07       	cpc	r16, r24
    437c:	80 e0       	ldi	r24, 0x00	; 0
    437e:	18 07       	cpc	r17, r24
    4380:	58 f4       	brcc	.+22     	; 0x4398 <__clzsi2+0x3c>
    4382:	ef ef       	ldi	r30, 0xFF	; 255
    4384:	ee 16       	cp	r14, r30
    4386:	f1 04       	cpc	r15, r1
    4388:	01 05       	cpc	r16, r1
    438a:	11 05       	cpc	r17, r1
    438c:	09 f0       	breq	.+2      	; 0x4390 <__clzsi2+0x34>
    438e:	90 f4       	brcc	.+36     	; 0x43b4 <__clzsi2+0x58>
    4390:	80 e0       	ldi	r24, 0x00	; 0
    4392:	90 e0       	ldi	r25, 0x00	; 0
    4394:	dc 01       	movw	r26, r24
    4396:	17 c0       	rjmp	.+46     	; 0x43c6 <__clzsi2+0x6a>
    4398:	f0 e0       	ldi	r31, 0x00	; 0
    439a:	ef 16       	cp	r14, r31
    439c:	f0 e0       	ldi	r31, 0x00	; 0
    439e:	ff 06       	cpc	r15, r31
    43a0:	f0 e0       	ldi	r31, 0x00	; 0
    43a2:	0f 07       	cpc	r16, r31
    43a4:	f1 e0       	ldi	r31, 0x01	; 1
    43a6:	1f 07       	cpc	r17, r31
    43a8:	50 f4       	brcc	.+20     	; 0x43be <__clzsi2+0x62>
    43aa:	80 e1       	ldi	r24, 0x10	; 16
    43ac:	90 e0       	ldi	r25, 0x00	; 0
    43ae:	a0 e0       	ldi	r26, 0x00	; 0
    43b0:	b0 e0       	ldi	r27, 0x00	; 0
    43b2:	09 c0       	rjmp	.+18     	; 0x43c6 <__clzsi2+0x6a>
    43b4:	88 e0       	ldi	r24, 0x08	; 8
    43b6:	90 e0       	ldi	r25, 0x00	; 0
    43b8:	a0 e0       	ldi	r26, 0x00	; 0
    43ba:	b0 e0       	ldi	r27, 0x00	; 0
    43bc:	04 c0       	rjmp	.+8      	; 0x43c6 <__clzsi2+0x6a>
    43be:	88 e1       	ldi	r24, 0x18	; 24
    43c0:	90 e0       	ldi	r25, 0x00	; 0
    43c2:	a0 e0       	ldi	r26, 0x00	; 0
    43c4:	b0 e0       	ldi	r27, 0x00	; 0
    43c6:	20 e2       	ldi	r18, 0x20	; 32
    43c8:	30 e0       	ldi	r19, 0x00	; 0
    43ca:	40 e0       	ldi	r20, 0x00	; 0
    43cc:	50 e0       	ldi	r21, 0x00	; 0
    43ce:	28 1b       	sub	r18, r24
    43d0:	39 0b       	sbc	r19, r25
    43d2:	4a 0b       	sbc	r20, r26
    43d4:	5b 0b       	sbc	r21, r27
    43d6:	57 01       	movw	r10, r14
    43d8:	68 01       	movw	r12, r16
    43da:	04 c0       	rjmp	.+8      	; 0x43e4 <__clzsi2+0x88>
    43dc:	d6 94       	lsr	r13
    43de:	c7 94       	ror	r12
    43e0:	b7 94       	ror	r11
    43e2:	a7 94       	ror	r10
    43e4:	8a 95       	dec	r24
    43e6:	d2 f7       	brpl	.-12     	; 0x43dc <__clzsi2+0x80>
    43e8:	d6 01       	movw	r26, r12
    43ea:	c5 01       	movw	r24, r10
    43ec:	83 5e       	subi	r24, 0xE3	; 227
    43ee:	9e 4f       	sbci	r25, 0xFE	; 254
    43f0:	fc 01       	movw	r30, r24
    43f2:	80 81       	ld	r24, Z
    43f4:	28 1b       	sub	r18, r24
    43f6:	31 09       	sbc	r19, r1
    43f8:	41 09       	sbc	r20, r1
    43fa:	51 09       	sbc	r21, r1
    43fc:	c9 01       	movw	r24, r18
    43fe:	1f 91       	pop	r17
    4400:	0f 91       	pop	r16
    4402:	ff 90       	pop	r15
    4404:	ef 90       	pop	r14
    4406:	df 90       	pop	r13
    4408:	cf 90       	pop	r12
    440a:	bf 90       	pop	r11
    440c:	af 90       	pop	r10
    440e:	08 95       	ret

00004410 <__pack_f>:
    4410:	ef 92       	push	r14
    4412:	ff 92       	push	r15
    4414:	0f 93       	push	r16
    4416:	1f 93       	push	r17
    4418:	cf 93       	push	r28
    441a:	df 93       	push	r29
    441c:	fc 01       	movw	r30, r24
    441e:	24 81       	ldd	r18, Z+4	; 0x04
    4420:	35 81       	ldd	r19, Z+5	; 0x05
    4422:	46 81       	ldd	r20, Z+6	; 0x06
    4424:	57 81       	ldd	r21, Z+7	; 0x07
    4426:	61 81       	ldd	r22, Z+1	; 0x01
    4428:	80 81       	ld	r24, Z
    442a:	82 30       	cpi	r24, 0x02	; 2
    442c:	20 f4       	brcc	.+8      	; 0x4436 <__pack_f+0x26>
    442e:	40 61       	ori	r20, 0x10	; 16
    4430:	ef ef       	ldi	r30, 0xFF	; 255
    4432:	f0 e0       	ldi	r31, 0x00	; 0
    4434:	a3 c0       	rjmp	.+326    	; 0x457c <__pack_f+0x16c>
    4436:	84 30       	cpi	r24, 0x04	; 4
    4438:	09 f4       	brne	.+2      	; 0x443c <__pack_f+0x2c>
    443a:	9b c0       	rjmp	.+310    	; 0x4572 <__pack_f+0x162>
    443c:	82 30       	cpi	r24, 0x02	; 2
    443e:	09 f4       	brne	.+2      	; 0x4442 <__pack_f+0x32>
    4440:	92 c0       	rjmp	.+292    	; 0x4566 <__pack_f+0x156>
    4442:	21 15       	cp	r18, r1
    4444:	31 05       	cpc	r19, r1
    4446:	41 05       	cpc	r20, r1
    4448:	51 05       	cpc	r21, r1
    444a:	09 f4       	brne	.+2      	; 0x444e <__pack_f+0x3e>
    444c:	8f c0       	rjmp	.+286    	; 0x456c <__pack_f+0x15c>
    444e:	02 80       	ldd	r0, Z+2	; 0x02
    4450:	f3 81       	ldd	r31, Z+3	; 0x03
    4452:	e0 2d       	mov	r30, r0
    4454:	7f ef       	ldi	r23, 0xFF	; 255
    4456:	e2 38       	cpi	r30, 0x82	; 130
    4458:	f7 07       	cpc	r31, r23
    445a:	0c f0       	brlt	.+2      	; 0x445e <__pack_f+0x4e>
    445c:	5a c0       	rjmp	.+180    	; 0x4512 <__pack_f+0x102>
    445e:	c2 e8       	ldi	r28, 0x82	; 130
    4460:	df ef       	ldi	r29, 0xFF	; 255
    4462:	ce 1b       	sub	r28, r30
    4464:	df 0b       	sbc	r29, r31
    4466:	ca 31       	cpi	r28, 0x1A	; 26
    4468:	d1 05       	cpc	r29, r1
    446a:	6c f5       	brge	.+90     	; 0x44c6 <__pack_f+0xb6>
    446c:	79 01       	movw	r14, r18
    446e:	8a 01       	movw	r16, r20
    4470:	0c 2e       	mov	r0, r28
    4472:	04 c0       	rjmp	.+8      	; 0x447c <__pack_f+0x6c>
    4474:	16 95       	lsr	r17
    4476:	07 95       	ror	r16
    4478:	f7 94       	ror	r15
    447a:	e7 94       	ror	r14
    447c:	0a 94       	dec	r0
    447e:	d2 f7       	brpl	.-12     	; 0x4474 <__pack_f+0x64>
    4480:	81 e0       	ldi	r24, 0x01	; 1
    4482:	90 e0       	ldi	r25, 0x00	; 0
    4484:	a0 e0       	ldi	r26, 0x00	; 0
    4486:	b0 e0       	ldi	r27, 0x00	; 0
    4488:	0c 2e       	mov	r0, r28
    448a:	04 c0       	rjmp	.+8      	; 0x4494 <__pack_f+0x84>
    448c:	88 0f       	add	r24, r24
    448e:	99 1f       	adc	r25, r25
    4490:	aa 1f       	adc	r26, r26
    4492:	bb 1f       	adc	r27, r27
    4494:	0a 94       	dec	r0
    4496:	d2 f7       	brpl	.-12     	; 0x448c <__pack_f+0x7c>
    4498:	01 97       	sbiw	r24, 0x01	; 1
    449a:	a1 09       	sbc	r26, r1
    449c:	b1 09       	sbc	r27, r1
    449e:	82 23       	and	r24, r18
    44a0:	93 23       	and	r25, r19
    44a2:	a4 23       	and	r26, r20
    44a4:	b5 23       	and	r27, r21
    44a6:	21 e0       	ldi	r18, 0x01	; 1
    44a8:	30 e0       	ldi	r19, 0x00	; 0
    44aa:	40 e0       	ldi	r20, 0x00	; 0
    44ac:	50 e0       	ldi	r21, 0x00	; 0
    44ae:	00 97       	sbiw	r24, 0x00	; 0
    44b0:	a1 05       	cpc	r26, r1
    44b2:	b1 05       	cpc	r27, r1
    44b4:	19 f4       	brne	.+6      	; 0x44bc <__pack_f+0xac>
    44b6:	20 e0       	ldi	r18, 0x00	; 0
    44b8:	30 e0       	ldi	r19, 0x00	; 0
    44ba:	a9 01       	movw	r20, r18
    44bc:	2e 29       	or	r18, r14
    44be:	3f 29       	or	r19, r15
    44c0:	40 2b       	or	r20, r16
    44c2:	51 2b       	or	r21, r17
    44c4:	03 c0       	rjmp	.+6      	; 0x44cc <__pack_f+0xbc>
    44c6:	20 e0       	ldi	r18, 0x00	; 0
    44c8:	30 e0       	ldi	r19, 0x00	; 0
    44ca:	a9 01       	movw	r20, r18
    44cc:	da 01       	movw	r26, r20
    44ce:	c9 01       	movw	r24, r18
    44d0:	8f 77       	andi	r24, 0x7F	; 127
    44d2:	90 70       	andi	r25, 0x00	; 0
    44d4:	a0 70       	andi	r26, 0x00	; 0
    44d6:	b0 70       	andi	r27, 0x00	; 0
    44d8:	80 34       	cpi	r24, 0x40	; 64
    44da:	91 05       	cpc	r25, r1
    44dc:	a1 05       	cpc	r26, r1
    44de:	b1 05       	cpc	r27, r1
    44e0:	39 f4       	brne	.+14     	; 0x44f0 <__pack_f+0xe0>
    44e2:	27 ff       	sbrs	r18, 7
    44e4:	09 c0       	rjmp	.+18     	; 0x44f8 <__pack_f+0xe8>
    44e6:	20 5c       	subi	r18, 0xC0	; 192
    44e8:	3f 4f       	sbci	r19, 0xFF	; 255
    44ea:	4f 4f       	sbci	r20, 0xFF	; 255
    44ec:	5f 4f       	sbci	r21, 0xFF	; 255
    44ee:	04 c0       	rjmp	.+8      	; 0x44f8 <__pack_f+0xe8>
    44f0:	21 5c       	subi	r18, 0xC1	; 193
    44f2:	3f 4f       	sbci	r19, 0xFF	; 255
    44f4:	4f 4f       	sbci	r20, 0xFF	; 255
    44f6:	5f 4f       	sbci	r21, 0xFF	; 255
    44f8:	e1 e0       	ldi	r30, 0x01	; 1
    44fa:	f0 e0       	ldi	r31, 0x00	; 0
    44fc:	20 30       	cpi	r18, 0x00	; 0
    44fe:	80 e0       	ldi	r24, 0x00	; 0
    4500:	38 07       	cpc	r19, r24
    4502:	80 e0       	ldi	r24, 0x00	; 0
    4504:	48 07       	cpc	r20, r24
    4506:	80 e4       	ldi	r24, 0x40	; 64
    4508:	58 07       	cpc	r21, r24
    450a:	28 f5       	brcc	.+74     	; 0x4556 <__pack_f+0x146>
    450c:	e0 e0       	ldi	r30, 0x00	; 0
    450e:	f0 e0       	ldi	r31, 0x00	; 0
    4510:	22 c0       	rjmp	.+68     	; 0x4556 <__pack_f+0x146>
    4512:	e0 38       	cpi	r30, 0x80	; 128
    4514:	f1 05       	cpc	r31, r1
    4516:	6c f5       	brge	.+90     	; 0x4572 <__pack_f+0x162>
    4518:	e1 58       	subi	r30, 0x81	; 129
    451a:	ff 4f       	sbci	r31, 0xFF	; 255
    451c:	da 01       	movw	r26, r20
    451e:	c9 01       	movw	r24, r18
    4520:	8f 77       	andi	r24, 0x7F	; 127
    4522:	90 70       	andi	r25, 0x00	; 0
    4524:	a0 70       	andi	r26, 0x00	; 0
    4526:	b0 70       	andi	r27, 0x00	; 0
    4528:	80 34       	cpi	r24, 0x40	; 64
    452a:	91 05       	cpc	r25, r1
    452c:	a1 05       	cpc	r26, r1
    452e:	b1 05       	cpc	r27, r1
    4530:	39 f4       	brne	.+14     	; 0x4540 <__pack_f+0x130>
    4532:	27 ff       	sbrs	r18, 7
    4534:	09 c0       	rjmp	.+18     	; 0x4548 <__pack_f+0x138>
    4536:	20 5c       	subi	r18, 0xC0	; 192
    4538:	3f 4f       	sbci	r19, 0xFF	; 255
    453a:	4f 4f       	sbci	r20, 0xFF	; 255
    453c:	5f 4f       	sbci	r21, 0xFF	; 255
    453e:	04 c0       	rjmp	.+8      	; 0x4548 <__pack_f+0x138>
    4540:	21 5c       	subi	r18, 0xC1	; 193
    4542:	3f 4f       	sbci	r19, 0xFF	; 255
    4544:	4f 4f       	sbci	r20, 0xFF	; 255
    4546:	5f 4f       	sbci	r21, 0xFF	; 255
    4548:	57 ff       	sbrs	r21, 7
    454a:	05 c0       	rjmp	.+10     	; 0x4556 <__pack_f+0x146>
    454c:	56 95       	lsr	r21
    454e:	47 95       	ror	r20
    4550:	37 95       	ror	r19
    4552:	27 95       	ror	r18
    4554:	31 96       	adiw	r30, 0x01	; 1
    4556:	87 e0       	ldi	r24, 0x07	; 7
    4558:	56 95       	lsr	r21
    455a:	47 95       	ror	r20
    455c:	37 95       	ror	r19
    455e:	27 95       	ror	r18
    4560:	8a 95       	dec	r24
    4562:	d1 f7       	brne	.-12     	; 0x4558 <__pack_f+0x148>
    4564:	0b c0       	rjmp	.+22     	; 0x457c <__pack_f+0x16c>
    4566:	e0 e0       	ldi	r30, 0x00	; 0
    4568:	f0 e0       	ldi	r31, 0x00	; 0
    456a:	05 c0       	rjmp	.+10     	; 0x4576 <__pack_f+0x166>
    456c:	e0 e0       	ldi	r30, 0x00	; 0
    456e:	f0 e0       	ldi	r31, 0x00	; 0
    4570:	05 c0       	rjmp	.+10     	; 0x457c <__pack_f+0x16c>
    4572:	ef ef       	ldi	r30, 0xFF	; 255
    4574:	f0 e0       	ldi	r31, 0x00	; 0
    4576:	20 e0       	ldi	r18, 0x00	; 0
    4578:	30 e0       	ldi	r19, 0x00	; 0
    457a:	a9 01       	movw	r20, r18
    457c:	8e 2f       	mov	r24, r30
    457e:	87 95       	ror	r24
    4580:	88 27       	eor	r24, r24
    4582:	87 95       	ror	r24
    4584:	94 2f       	mov	r25, r20
    4586:	9f 77       	andi	r25, 0x7F	; 127
    4588:	67 95       	ror	r22
    458a:	66 27       	eor	r22, r22
    458c:	67 95       	ror	r22
    458e:	e6 95       	lsr	r30
    4590:	a9 2f       	mov	r26, r25
    4592:	a8 2b       	or	r26, r24
    4594:	fe 2f       	mov	r31, r30
    4596:	f6 2b       	or	r31, r22
    4598:	62 2f       	mov	r22, r18
    459a:	73 2f       	mov	r23, r19
    459c:	8a 2f       	mov	r24, r26
    459e:	9f 2f       	mov	r25, r31
    45a0:	cd b7       	in	r28, 0x3d	; 61
    45a2:	de b7       	in	r29, 0x3e	; 62
    45a4:	e6 e0       	ldi	r30, 0x06	; 6
    45a6:	0c 94 23 24 	jmp	0x4846	; 0x4846 <__epilogue_restores__+0x18>

000045aa <__unpack_f>:
    45aa:	dc 01       	movw	r26, r24
    45ac:	fb 01       	movw	r30, r22
    45ae:	2c 91       	ld	r18, X
    45b0:	11 96       	adiw	r26, 0x01	; 1
    45b2:	3c 91       	ld	r19, X
    45b4:	11 97       	sbiw	r26, 0x01	; 1
    45b6:	12 96       	adiw	r26, 0x02	; 2
    45b8:	8c 91       	ld	r24, X
    45ba:	12 97       	sbiw	r26, 0x02	; 2
    45bc:	48 2f       	mov	r20, r24
    45be:	4f 77       	andi	r20, 0x7F	; 127
    45c0:	50 e0       	ldi	r21, 0x00	; 0
    45c2:	98 2f       	mov	r25, r24
    45c4:	99 1f       	adc	r25, r25
    45c6:	99 27       	eor	r25, r25
    45c8:	99 1f       	adc	r25, r25
    45ca:	13 96       	adiw	r26, 0x03	; 3
    45cc:	6c 91       	ld	r22, X
    45ce:	13 97       	sbiw	r26, 0x03	; 3
    45d0:	86 2f       	mov	r24, r22
    45d2:	88 0f       	add	r24, r24
    45d4:	89 2b       	or	r24, r25
    45d6:	90 e0       	ldi	r25, 0x00	; 0
    45d8:	66 1f       	adc	r22, r22
    45da:	66 27       	eor	r22, r22
    45dc:	66 1f       	adc	r22, r22
    45de:	61 83       	std	Z+1, r22	; 0x01
    45e0:	00 97       	sbiw	r24, 0x00	; 0
    45e2:	39 f5       	brne	.+78     	; 0x4632 <__unpack_f+0x88>
    45e4:	21 15       	cp	r18, r1
    45e6:	31 05       	cpc	r19, r1
    45e8:	41 05       	cpc	r20, r1
    45ea:	51 05       	cpc	r21, r1
    45ec:	11 f4       	brne	.+4      	; 0x45f2 <__unpack_f+0x48>
    45ee:	82 e0       	ldi	r24, 0x02	; 2
    45f0:	29 c0       	rjmp	.+82     	; 0x4644 <__unpack_f+0x9a>
    45f2:	82 e8       	ldi	r24, 0x82	; 130
    45f4:	9f ef       	ldi	r25, 0xFF	; 255
    45f6:	93 83       	std	Z+3, r25	; 0x03
    45f8:	82 83       	std	Z+2, r24	; 0x02
    45fa:	67 e0       	ldi	r22, 0x07	; 7
    45fc:	22 0f       	add	r18, r18
    45fe:	33 1f       	adc	r19, r19
    4600:	44 1f       	adc	r20, r20
    4602:	55 1f       	adc	r21, r21
    4604:	6a 95       	dec	r22
    4606:	d1 f7       	brne	.-12     	; 0x45fc <__unpack_f+0x52>
    4608:	83 e0       	ldi	r24, 0x03	; 3
    460a:	80 83       	st	Z, r24
    460c:	09 c0       	rjmp	.+18     	; 0x4620 <__unpack_f+0x76>
    460e:	22 0f       	add	r18, r18
    4610:	33 1f       	adc	r19, r19
    4612:	44 1f       	adc	r20, r20
    4614:	55 1f       	adc	r21, r21
    4616:	82 81       	ldd	r24, Z+2	; 0x02
    4618:	93 81       	ldd	r25, Z+3	; 0x03
    461a:	01 97       	sbiw	r24, 0x01	; 1
    461c:	93 83       	std	Z+3, r25	; 0x03
    461e:	82 83       	std	Z+2, r24	; 0x02
    4620:	20 30       	cpi	r18, 0x00	; 0
    4622:	80 e0       	ldi	r24, 0x00	; 0
    4624:	38 07       	cpc	r19, r24
    4626:	80 e0       	ldi	r24, 0x00	; 0
    4628:	48 07       	cpc	r20, r24
    462a:	80 e4       	ldi	r24, 0x40	; 64
    462c:	58 07       	cpc	r21, r24
    462e:	78 f3       	brcs	.-34     	; 0x460e <__unpack_f+0x64>
    4630:	20 c0       	rjmp	.+64     	; 0x4672 <__unpack_f+0xc8>
    4632:	8f 3f       	cpi	r24, 0xFF	; 255
    4634:	91 05       	cpc	r25, r1
    4636:	79 f4       	brne	.+30     	; 0x4656 <__unpack_f+0xac>
    4638:	21 15       	cp	r18, r1
    463a:	31 05       	cpc	r19, r1
    463c:	41 05       	cpc	r20, r1
    463e:	51 05       	cpc	r21, r1
    4640:	19 f4       	brne	.+6      	; 0x4648 <__unpack_f+0x9e>
    4642:	84 e0       	ldi	r24, 0x04	; 4
    4644:	80 83       	st	Z, r24
    4646:	08 95       	ret
    4648:	44 ff       	sbrs	r20, 4
    464a:	03 c0       	rjmp	.+6      	; 0x4652 <__unpack_f+0xa8>
    464c:	81 e0       	ldi	r24, 0x01	; 1
    464e:	80 83       	st	Z, r24
    4650:	10 c0       	rjmp	.+32     	; 0x4672 <__unpack_f+0xc8>
    4652:	10 82       	st	Z, r1
    4654:	0e c0       	rjmp	.+28     	; 0x4672 <__unpack_f+0xc8>
    4656:	8f 57       	subi	r24, 0x7F	; 127
    4658:	90 40       	sbci	r25, 0x00	; 0
    465a:	93 83       	std	Z+3, r25	; 0x03
    465c:	82 83       	std	Z+2, r24	; 0x02
    465e:	83 e0       	ldi	r24, 0x03	; 3
    4660:	80 83       	st	Z, r24
    4662:	87 e0       	ldi	r24, 0x07	; 7
    4664:	22 0f       	add	r18, r18
    4666:	33 1f       	adc	r19, r19
    4668:	44 1f       	adc	r20, r20
    466a:	55 1f       	adc	r21, r21
    466c:	8a 95       	dec	r24
    466e:	d1 f7       	brne	.-12     	; 0x4664 <__unpack_f+0xba>
    4670:	50 64       	ori	r21, 0x40	; 64
    4672:	24 83       	std	Z+4, r18	; 0x04
    4674:	35 83       	std	Z+5, r19	; 0x05
    4676:	46 83       	std	Z+6, r20	; 0x06
    4678:	57 83       	std	Z+7, r21	; 0x07
    467a:	08 95       	ret

0000467c <__fpcmp_parts_f>:
    467c:	fc 01       	movw	r30, r24
    467e:	db 01       	movw	r26, r22
    4680:	90 81       	ld	r25, Z
    4682:	92 30       	cpi	r25, 0x02	; 2
    4684:	08 f4       	brcc	.+2      	; 0x4688 <__fpcmp_parts_f+0xc>
    4686:	49 c0       	rjmp	.+146    	; 0x471a <__fpcmp_parts_f+0x9e>
    4688:	8c 91       	ld	r24, X
    468a:	82 30       	cpi	r24, 0x02	; 2
    468c:	08 f4       	brcc	.+2      	; 0x4690 <__fpcmp_parts_f+0x14>
    468e:	45 c0       	rjmp	.+138    	; 0x471a <__fpcmp_parts_f+0x9e>
    4690:	94 30       	cpi	r25, 0x04	; 4
    4692:	51 f4       	brne	.+20     	; 0x46a8 <__fpcmp_parts_f+0x2c>
    4694:	61 81       	ldd	r22, Z+1	; 0x01
    4696:	84 30       	cpi	r24, 0x04	; 4
    4698:	b1 f5       	brne	.+108    	; 0x4706 <__fpcmp_parts_f+0x8a>
    469a:	11 96       	adiw	r26, 0x01	; 1
    469c:	2c 91       	ld	r18, X
    469e:	11 97       	sbiw	r26, 0x01	; 1
    46a0:	30 e0       	ldi	r19, 0x00	; 0
    46a2:	26 1b       	sub	r18, r22
    46a4:	31 09       	sbc	r19, r1
    46a6:	41 c0       	rjmp	.+130    	; 0x472a <__fpcmp_parts_f+0xae>
    46a8:	84 30       	cpi	r24, 0x04	; 4
    46aa:	21 f0       	breq	.+8      	; 0x46b4 <__fpcmp_parts_f+0x38>
    46ac:	92 30       	cpi	r25, 0x02	; 2
    46ae:	41 f4       	brne	.+16     	; 0x46c0 <__fpcmp_parts_f+0x44>
    46b0:	82 30       	cpi	r24, 0x02	; 2
    46b2:	b1 f1       	breq	.+108    	; 0x4720 <__fpcmp_parts_f+0xa4>
    46b4:	11 96       	adiw	r26, 0x01	; 1
    46b6:	8c 91       	ld	r24, X
    46b8:	11 97       	sbiw	r26, 0x01	; 1
    46ba:	88 23       	and	r24, r24
    46bc:	a1 f1       	breq	.+104    	; 0x4726 <__fpcmp_parts_f+0xaa>
    46be:	2d c0       	rjmp	.+90     	; 0x471a <__fpcmp_parts_f+0x9e>
    46c0:	61 81       	ldd	r22, Z+1	; 0x01
    46c2:	82 30       	cpi	r24, 0x02	; 2
    46c4:	01 f1       	breq	.+64     	; 0x4706 <__fpcmp_parts_f+0x8a>
    46c6:	11 96       	adiw	r26, 0x01	; 1
    46c8:	8c 91       	ld	r24, X
    46ca:	11 97       	sbiw	r26, 0x01	; 1
    46cc:	68 17       	cp	r22, r24
    46ce:	d9 f4       	brne	.+54     	; 0x4706 <__fpcmp_parts_f+0x8a>
    46d0:	22 81       	ldd	r18, Z+2	; 0x02
    46d2:	33 81       	ldd	r19, Z+3	; 0x03
    46d4:	12 96       	adiw	r26, 0x02	; 2
    46d6:	8d 91       	ld	r24, X+
    46d8:	9c 91       	ld	r25, X
    46da:	13 97       	sbiw	r26, 0x03	; 3
    46dc:	82 17       	cp	r24, r18
    46de:	93 07       	cpc	r25, r19
    46e0:	94 f0       	brlt	.+36     	; 0x4706 <__fpcmp_parts_f+0x8a>
    46e2:	28 17       	cp	r18, r24
    46e4:	39 07       	cpc	r19, r25
    46e6:	bc f0       	brlt	.+46     	; 0x4716 <__fpcmp_parts_f+0x9a>
    46e8:	24 81       	ldd	r18, Z+4	; 0x04
    46ea:	35 81       	ldd	r19, Z+5	; 0x05
    46ec:	46 81       	ldd	r20, Z+6	; 0x06
    46ee:	57 81       	ldd	r21, Z+7	; 0x07
    46f0:	14 96       	adiw	r26, 0x04	; 4
    46f2:	8d 91       	ld	r24, X+
    46f4:	9d 91       	ld	r25, X+
    46f6:	0d 90       	ld	r0, X+
    46f8:	bc 91       	ld	r27, X
    46fa:	a0 2d       	mov	r26, r0
    46fc:	82 17       	cp	r24, r18
    46fe:	93 07       	cpc	r25, r19
    4700:	a4 07       	cpc	r26, r20
    4702:	b5 07       	cpc	r27, r21
    4704:	18 f4       	brcc	.+6      	; 0x470c <__fpcmp_parts_f+0x90>
    4706:	66 23       	and	r22, r22
    4708:	41 f0       	breq	.+16     	; 0x471a <__fpcmp_parts_f+0x9e>
    470a:	0d c0       	rjmp	.+26     	; 0x4726 <__fpcmp_parts_f+0xaa>
    470c:	28 17       	cp	r18, r24
    470e:	39 07       	cpc	r19, r25
    4710:	4a 07       	cpc	r20, r26
    4712:	5b 07       	cpc	r21, r27
    4714:	28 f4       	brcc	.+10     	; 0x4720 <__fpcmp_parts_f+0xa4>
    4716:	66 23       	and	r22, r22
    4718:	31 f0       	breq	.+12     	; 0x4726 <__fpcmp_parts_f+0xaa>
    471a:	21 e0       	ldi	r18, 0x01	; 1
    471c:	30 e0       	ldi	r19, 0x00	; 0
    471e:	05 c0       	rjmp	.+10     	; 0x472a <__fpcmp_parts_f+0xae>
    4720:	20 e0       	ldi	r18, 0x00	; 0
    4722:	30 e0       	ldi	r19, 0x00	; 0
    4724:	02 c0       	rjmp	.+4      	; 0x472a <__fpcmp_parts_f+0xae>
    4726:	2f ef       	ldi	r18, 0xFF	; 255
    4728:	3f ef       	ldi	r19, 0xFF	; 255
    472a:	c9 01       	movw	r24, r18
    472c:	08 95       	ret

0000472e <__udivmodhi4>:
    472e:	aa 1b       	sub	r26, r26
    4730:	bb 1b       	sub	r27, r27
    4732:	51 e1       	ldi	r21, 0x11	; 17
    4734:	07 c0       	rjmp	.+14     	; 0x4744 <__udivmodhi4_ep>

00004736 <__udivmodhi4_loop>:
    4736:	aa 1f       	adc	r26, r26
    4738:	bb 1f       	adc	r27, r27
    473a:	a6 17       	cp	r26, r22
    473c:	b7 07       	cpc	r27, r23
    473e:	10 f0       	brcs	.+4      	; 0x4744 <__udivmodhi4_ep>
    4740:	a6 1b       	sub	r26, r22
    4742:	b7 0b       	sbc	r27, r23

00004744 <__udivmodhi4_ep>:
    4744:	88 1f       	adc	r24, r24
    4746:	99 1f       	adc	r25, r25
    4748:	5a 95       	dec	r21
    474a:	a9 f7       	brne	.-22     	; 0x4736 <__udivmodhi4_loop>
    474c:	80 95       	com	r24
    474e:	90 95       	com	r25
    4750:	bc 01       	movw	r22, r24
    4752:	cd 01       	movw	r24, r26
    4754:	08 95       	ret

00004756 <__divmodhi4>:
    4756:	97 fb       	bst	r25, 7
    4758:	09 2e       	mov	r0, r25
    475a:	07 26       	eor	r0, r23
    475c:	0a d0       	rcall	.+20     	; 0x4772 <__divmodhi4_neg1>
    475e:	77 fd       	sbrc	r23, 7
    4760:	04 d0       	rcall	.+8      	; 0x476a <__divmodhi4_neg2>
    4762:	e5 df       	rcall	.-54     	; 0x472e <__udivmodhi4>
    4764:	06 d0       	rcall	.+12     	; 0x4772 <__divmodhi4_neg1>
    4766:	00 20       	and	r0, r0
    4768:	1a f4       	brpl	.+6      	; 0x4770 <__divmodhi4_exit>

0000476a <__divmodhi4_neg2>:
    476a:	70 95       	com	r23
    476c:	61 95       	neg	r22
    476e:	7f 4f       	sbci	r23, 0xFF	; 255

00004770 <__divmodhi4_exit>:
    4770:	08 95       	ret

00004772 <__divmodhi4_neg1>:
    4772:	f6 f7       	brtc	.-4      	; 0x4770 <__divmodhi4_exit>
    4774:	90 95       	com	r25
    4776:	81 95       	neg	r24
    4778:	9f 4f       	sbci	r25, 0xFF	; 255
    477a:	08 95       	ret

0000477c <__divmodsi4>:
    477c:	97 fb       	bst	r25, 7
    477e:	09 2e       	mov	r0, r25
    4780:	05 26       	eor	r0, r21
    4782:	0e d0       	rcall	.+28     	; 0x47a0 <__divmodsi4_neg1>
    4784:	57 fd       	sbrc	r21, 7
    4786:	04 d0       	rcall	.+8      	; 0x4790 <__divmodsi4_neg2>
    4788:	14 d0       	rcall	.+40     	; 0x47b2 <__udivmodsi4>
    478a:	0a d0       	rcall	.+20     	; 0x47a0 <__divmodsi4_neg1>
    478c:	00 1c       	adc	r0, r0
    478e:	38 f4       	brcc	.+14     	; 0x479e <__divmodsi4_exit>

00004790 <__divmodsi4_neg2>:
    4790:	50 95       	com	r21
    4792:	40 95       	com	r20
    4794:	30 95       	com	r19
    4796:	21 95       	neg	r18
    4798:	3f 4f       	sbci	r19, 0xFF	; 255
    479a:	4f 4f       	sbci	r20, 0xFF	; 255
    479c:	5f 4f       	sbci	r21, 0xFF	; 255

0000479e <__divmodsi4_exit>:
    479e:	08 95       	ret

000047a0 <__divmodsi4_neg1>:
    47a0:	f6 f7       	brtc	.-4      	; 0x479e <__divmodsi4_exit>
    47a2:	90 95       	com	r25
    47a4:	80 95       	com	r24
    47a6:	70 95       	com	r23
    47a8:	61 95       	neg	r22
    47aa:	7f 4f       	sbci	r23, 0xFF	; 255
    47ac:	8f 4f       	sbci	r24, 0xFF	; 255
    47ae:	9f 4f       	sbci	r25, 0xFF	; 255
    47b0:	08 95       	ret

000047b2 <__udivmodsi4>:
    47b2:	a1 e2       	ldi	r26, 0x21	; 33
    47b4:	1a 2e       	mov	r1, r26
    47b6:	aa 1b       	sub	r26, r26
    47b8:	bb 1b       	sub	r27, r27
    47ba:	fd 01       	movw	r30, r26
    47bc:	0d c0       	rjmp	.+26     	; 0x47d8 <__udivmodsi4_ep>

000047be <__udivmodsi4_loop>:
    47be:	aa 1f       	adc	r26, r26
    47c0:	bb 1f       	adc	r27, r27
    47c2:	ee 1f       	adc	r30, r30
    47c4:	ff 1f       	adc	r31, r31
    47c6:	a2 17       	cp	r26, r18
    47c8:	b3 07       	cpc	r27, r19
    47ca:	e4 07       	cpc	r30, r20
    47cc:	f5 07       	cpc	r31, r21
    47ce:	20 f0       	brcs	.+8      	; 0x47d8 <__udivmodsi4_ep>
    47d0:	a2 1b       	sub	r26, r18
    47d2:	b3 0b       	sbc	r27, r19
    47d4:	e4 0b       	sbc	r30, r20
    47d6:	f5 0b       	sbc	r31, r21

000047d8 <__udivmodsi4_ep>:
    47d8:	66 1f       	adc	r22, r22
    47da:	77 1f       	adc	r23, r23
    47dc:	88 1f       	adc	r24, r24
    47de:	99 1f       	adc	r25, r25
    47e0:	1a 94       	dec	r1
    47e2:	69 f7       	brne	.-38     	; 0x47be <__udivmodsi4_loop>
    47e4:	60 95       	com	r22
    47e6:	70 95       	com	r23
    47e8:	80 95       	com	r24
    47ea:	90 95       	com	r25
    47ec:	9b 01       	movw	r18, r22
    47ee:	ac 01       	movw	r20, r24
    47f0:	bd 01       	movw	r22, r26
    47f2:	cf 01       	movw	r24, r30
    47f4:	08 95       	ret

000047f6 <__prologue_saves__>:
    47f6:	2f 92       	push	r2
    47f8:	3f 92       	push	r3
    47fa:	4f 92       	push	r4
    47fc:	5f 92       	push	r5
    47fe:	6f 92       	push	r6
    4800:	7f 92       	push	r7
    4802:	8f 92       	push	r8
    4804:	9f 92       	push	r9
    4806:	af 92       	push	r10
    4808:	bf 92       	push	r11
    480a:	cf 92       	push	r12
    480c:	df 92       	push	r13
    480e:	ef 92       	push	r14
    4810:	ff 92       	push	r15
    4812:	0f 93       	push	r16
    4814:	1f 93       	push	r17
    4816:	cf 93       	push	r28
    4818:	df 93       	push	r29
    481a:	cd b7       	in	r28, 0x3d	; 61
    481c:	de b7       	in	r29, 0x3e	; 62
    481e:	ca 1b       	sub	r28, r26
    4820:	db 0b       	sbc	r29, r27
    4822:	0f b6       	in	r0, 0x3f	; 63
    4824:	f8 94       	cli
    4826:	de bf       	out	0x3e, r29	; 62
    4828:	0f be       	out	0x3f, r0	; 63
    482a:	cd bf       	out	0x3d, r28	; 61
    482c:	09 94       	ijmp

0000482e <__epilogue_restores__>:
    482e:	2a 88       	ldd	r2, Y+18	; 0x12
    4830:	39 88       	ldd	r3, Y+17	; 0x11
    4832:	48 88       	ldd	r4, Y+16	; 0x10
    4834:	5f 84       	ldd	r5, Y+15	; 0x0f
    4836:	6e 84       	ldd	r6, Y+14	; 0x0e
    4838:	7d 84       	ldd	r7, Y+13	; 0x0d
    483a:	8c 84       	ldd	r8, Y+12	; 0x0c
    483c:	9b 84       	ldd	r9, Y+11	; 0x0b
    483e:	aa 84       	ldd	r10, Y+10	; 0x0a
    4840:	b9 84       	ldd	r11, Y+9	; 0x09
    4842:	c8 84       	ldd	r12, Y+8	; 0x08
    4844:	df 80       	ldd	r13, Y+7	; 0x07
    4846:	ee 80       	ldd	r14, Y+6	; 0x06
    4848:	fd 80       	ldd	r15, Y+5	; 0x05
    484a:	0c 81       	ldd	r16, Y+4	; 0x04
    484c:	1b 81       	ldd	r17, Y+3	; 0x03
    484e:	aa 81       	ldd	r26, Y+2	; 0x02
    4850:	b9 81       	ldd	r27, Y+1	; 0x01
    4852:	ce 0f       	add	r28, r30
    4854:	d1 1d       	adc	r29, r1
    4856:	0f b6       	in	r0, 0x3f	; 63
    4858:	f8 94       	cli
    485a:	de bf       	out	0x3e, r29	; 62
    485c:	0f be       	out	0x3f, r0	; 63
    485e:	cd bf       	out	0x3d, r28	; 61
    4860:	ed 01       	movw	r28, r26
    4862:	08 95       	ret

00004864 <ceil>:
    4864:	3b d0       	rcall	.+118    	; 0x48dc <__fp_trunc>
    4866:	80 f0       	brcs	.+32     	; 0x4888 <ceil+0x24>
    4868:	9f 37       	cpi	r25, 0x7F	; 127
    486a:	40 f4       	brcc	.+16     	; 0x487c <ceil+0x18>
    486c:	91 11       	cpse	r25, r1
    486e:	0e f4       	brtc	.+2      	; 0x4872 <ceil+0xe>
    4870:	4d c0       	rjmp	.+154    	; 0x490c <__fp_szero>
    4872:	60 e0       	ldi	r22, 0x00	; 0
    4874:	70 e0       	ldi	r23, 0x00	; 0
    4876:	80 e8       	ldi	r24, 0x80	; 128
    4878:	9f e3       	ldi	r25, 0x3F	; 63
    487a:	08 95       	ret
    487c:	26 f0       	brts	.+8      	; 0x4886 <ceil+0x22>
    487e:	1b 16       	cp	r1, r27
    4880:	61 1d       	adc	r22, r1
    4882:	71 1d       	adc	r23, r1
    4884:	81 1d       	adc	r24, r1
    4886:	01 c0       	rjmp	.+2      	; 0x488a <__fp_mintl>
    4888:	1b c0       	rjmp	.+54     	; 0x48c0 <__fp_mpack>

0000488a <__fp_mintl>:
    488a:	88 23       	and	r24, r24
    488c:	71 f4       	brne	.+28     	; 0x48aa <__fp_mintl+0x20>
    488e:	77 23       	and	r23, r23
    4890:	21 f0       	breq	.+8      	; 0x489a <__fp_mintl+0x10>
    4892:	98 50       	subi	r25, 0x08	; 8
    4894:	87 2b       	or	r24, r23
    4896:	76 2f       	mov	r23, r22
    4898:	07 c0       	rjmp	.+14     	; 0x48a8 <__fp_mintl+0x1e>
    489a:	66 23       	and	r22, r22
    489c:	11 f4       	brne	.+4      	; 0x48a2 <__fp_mintl+0x18>
    489e:	99 27       	eor	r25, r25
    48a0:	0d c0       	rjmp	.+26     	; 0x48bc <__fp_mintl+0x32>
    48a2:	90 51       	subi	r25, 0x10	; 16
    48a4:	86 2b       	or	r24, r22
    48a6:	70 e0       	ldi	r23, 0x00	; 0
    48a8:	60 e0       	ldi	r22, 0x00	; 0
    48aa:	2a f0       	brmi	.+10     	; 0x48b6 <__fp_mintl+0x2c>
    48ac:	9a 95       	dec	r25
    48ae:	66 0f       	add	r22, r22
    48b0:	77 1f       	adc	r23, r23
    48b2:	88 1f       	adc	r24, r24
    48b4:	da f7       	brpl	.-10     	; 0x48ac <__fp_mintl+0x22>
    48b6:	88 0f       	add	r24, r24
    48b8:	96 95       	lsr	r25
    48ba:	87 95       	ror	r24
    48bc:	97 f9       	bld	r25, 7
    48be:	08 95       	ret

000048c0 <__fp_mpack>:
    48c0:	9f 3f       	cpi	r25, 0xFF	; 255
    48c2:	31 f0       	breq	.+12     	; 0x48d0 <__fp_mpack_finite+0xc>

000048c4 <__fp_mpack_finite>:
    48c4:	91 50       	subi	r25, 0x01	; 1
    48c6:	20 f4       	brcc	.+8      	; 0x48d0 <__fp_mpack_finite+0xc>
    48c8:	87 95       	ror	r24
    48ca:	77 95       	ror	r23
    48cc:	67 95       	ror	r22
    48ce:	b7 95       	ror	r27
    48d0:	88 0f       	add	r24, r24
    48d2:	91 1d       	adc	r25, r1
    48d4:	96 95       	lsr	r25
    48d6:	87 95       	ror	r24
    48d8:	97 f9       	bld	r25, 7
    48da:	08 95       	ret

000048dc <__fp_trunc>:
    48dc:	45 d0       	rcall	.+138    	; 0x4968 <__fp_splitA>
    48de:	a0 f0       	brcs	.+40     	; 0x4908 <__fp_trunc+0x2c>
    48e0:	be e7       	ldi	r27, 0x7E	; 126
    48e2:	b9 17       	cp	r27, r25
    48e4:	88 f4       	brcc	.+34     	; 0x4908 <__fp_trunc+0x2c>
    48e6:	bb 27       	eor	r27, r27
    48e8:	9f 38       	cpi	r25, 0x8F	; 143
    48ea:	60 f4       	brcc	.+24     	; 0x4904 <__fp_trunc+0x28>
    48ec:	16 16       	cp	r1, r22
    48ee:	b1 1d       	adc	r27, r1
    48f0:	67 2f       	mov	r22, r23
    48f2:	78 2f       	mov	r23, r24
    48f4:	88 27       	eor	r24, r24
    48f6:	98 5f       	subi	r25, 0xF8	; 248
    48f8:	f7 cf       	rjmp	.-18     	; 0x48e8 <__fp_trunc+0xc>
    48fa:	86 95       	lsr	r24
    48fc:	77 95       	ror	r23
    48fe:	67 95       	ror	r22
    4900:	b1 1d       	adc	r27, r1
    4902:	93 95       	inc	r25
    4904:	96 39       	cpi	r25, 0x96	; 150
    4906:	c8 f3       	brcs	.-14     	; 0x48fa <__fp_trunc+0x1e>
    4908:	08 95       	ret

0000490a <__fp_zero>:
    490a:	e8 94       	clt

0000490c <__fp_szero>:
    490c:	bb 27       	eor	r27, r27
    490e:	66 27       	eor	r22, r22
    4910:	77 27       	eor	r23, r23
    4912:	cb 01       	movw	r24, r22
    4914:	97 f9       	bld	r25, 7
    4916:	08 95       	ret

00004918 <round>:
    4918:	27 d0       	rcall	.+78     	; 0x4968 <__fp_splitA>
    491a:	e0 f0       	brcs	.+56     	; 0x4954 <round+0x3c>
    491c:	9e 37       	cpi	r25, 0x7E	; 126
    491e:	d8 f0       	brcs	.+54     	; 0x4956 <round+0x3e>
    4920:	96 39       	cpi	r25, 0x96	; 150
    4922:	b8 f4       	brcc	.+46     	; 0x4952 <round+0x3a>
    4924:	9e 38       	cpi	r25, 0x8E	; 142
    4926:	48 f4       	brcc	.+18     	; 0x493a <round+0x22>
    4928:	67 2f       	mov	r22, r23
    492a:	78 2f       	mov	r23, r24
    492c:	88 27       	eor	r24, r24
    492e:	98 5f       	subi	r25, 0xF8	; 248
    4930:	f9 cf       	rjmp	.-14     	; 0x4924 <round+0xc>
    4932:	86 95       	lsr	r24
    4934:	77 95       	ror	r23
    4936:	67 95       	ror	r22
    4938:	93 95       	inc	r25
    493a:	95 39       	cpi	r25, 0x95	; 149
    493c:	d0 f3       	brcs	.-12     	; 0x4932 <round+0x1a>
    493e:	b6 2f       	mov	r27, r22
    4940:	b1 70       	andi	r27, 0x01	; 1
    4942:	6b 0f       	add	r22, r27
    4944:	71 1d       	adc	r23, r1
    4946:	81 1d       	adc	r24, r1
    4948:	20 f4       	brcc	.+8      	; 0x4952 <round+0x3a>
    494a:	87 95       	ror	r24
    494c:	77 95       	ror	r23
    494e:	67 95       	ror	r22
    4950:	93 95       	inc	r25
    4952:	9b cf       	rjmp	.-202    	; 0x488a <__fp_mintl>
    4954:	b5 cf       	rjmp	.-150    	; 0x48c0 <__fp_mpack>
    4956:	da cf       	rjmp	.-76     	; 0x490c <__fp_szero>

00004958 <__fp_split3>:
    4958:	57 fd       	sbrc	r21, 7
    495a:	90 58       	subi	r25, 0x80	; 128
    495c:	44 0f       	add	r20, r20
    495e:	55 1f       	adc	r21, r21
    4960:	59 f0       	breq	.+22     	; 0x4978 <__fp_splitA+0x10>
    4962:	5f 3f       	cpi	r21, 0xFF	; 255
    4964:	71 f0       	breq	.+28     	; 0x4982 <__fp_splitA+0x1a>
    4966:	47 95       	ror	r20

00004968 <__fp_splitA>:
    4968:	88 0f       	add	r24, r24
    496a:	97 fb       	bst	r25, 7
    496c:	99 1f       	adc	r25, r25
    496e:	61 f0       	breq	.+24     	; 0x4988 <__fp_splitA+0x20>
    4970:	9f 3f       	cpi	r25, 0xFF	; 255
    4972:	79 f0       	breq	.+30     	; 0x4992 <__fp_splitA+0x2a>
    4974:	87 95       	ror	r24
    4976:	08 95       	ret
    4978:	12 16       	cp	r1, r18
    497a:	13 06       	cpc	r1, r19
    497c:	14 06       	cpc	r1, r20
    497e:	55 1f       	adc	r21, r21
    4980:	f2 cf       	rjmp	.-28     	; 0x4966 <__fp_split3+0xe>
    4982:	46 95       	lsr	r20
    4984:	f1 df       	rcall	.-30     	; 0x4968 <__fp_splitA>
    4986:	08 c0       	rjmp	.+16     	; 0x4998 <__fp_splitA+0x30>
    4988:	16 16       	cp	r1, r22
    498a:	17 06       	cpc	r1, r23
    498c:	18 06       	cpc	r1, r24
    498e:	99 1f       	adc	r25, r25
    4990:	f1 cf       	rjmp	.-30     	; 0x4974 <__fp_splitA+0xc>
    4992:	86 95       	lsr	r24
    4994:	71 05       	cpc	r23, r1
    4996:	61 05       	cpc	r22, r1
    4998:	08 94       	sec
    499a:	08 95       	ret

0000499c <_exit>:
    499c:	f8 94       	cli

0000499e <__stop_program>:
    499e:	ff cf       	rjmp	.-2      	; 0x499e <__stop_program>
